MPLINK 5.00, LINKER
Linker Map File - Created Wed Jun 20 23:17:39 2018

                                 Section Info
                  Section       Type    Address   Location Size(Bytes)
                ---------  ---------  ---------  ---------  ---------
               _entry_scn       code   0x000000    program   0x000006
           .code___init.o       code   0x000006    program   0x000002
              high_vector       code   0x000008    program   0x000006
         .code_i2c2nack.o       code   0x00000e    program   0x000006
         .code_i2c2strt.o       code   0x000014    program   0x000004
               low_vector       code   0x000018    program   0x000006
                   .cinit    romdata   0x00001e    program   0x000056
         .code_vfprintf.o       code   0x000074    program   0x000c22
      .code_PetitModbus.o       code   0x000c96    program   0x0009c0
       .code_FiddleYard.o       code   0x001656    program   0x000294
          .code_eusart1.o       code   0x0018ea    program   0x000154
          .code_eusart2.o       code   0x001a3e    program   0x000148
         .code_i2c2eerr.o       code   0x001b86    program   0x000104
         .code_i2c1eerr.o       code   0x001c8a    program   0x000104
             const_table2    romdata   0x001d8e    program   0x000100
             const_table1    romdata   0x001e8e    program   0x000100
         .code_i2c2eesr.o       code   0x001f8e    program   0x0000ea
         .code_i2c1eesr.o       code   0x002078    program   0x0000e4
         .code_i2c2eepw.o       code   0x00215c    program   0x0000a6
         .code_i2c1eepw.o       code   0x002202    program   0x0000a6
         .code_i2c2eebw.o       code   0x0022a8    program   0x0000a2
         .code_i2c1eebw.o       code   0x00234a    program   0x0000a2
               _cinit_scn       code   0x0023ec    program   0x00009e
           .code_printf.o       code   0x00248a    program   0x000098
                     PROG       code   0x002522    program   0x000096
  .code_PetitModbusPort.o       code   0x0025b8    program   0x000096
         .code_i2c2eecr.o       code   0x00264e    program   0x000090
         .code_i2c1eecr.o       code   0x0026de    program   0x000090
             .code_putc.o       code   0x00276e    program   0x000084
         .code_i2c2eeap.o       code   0x0027f2    program   0x000084
         .code_i2c1eeap.o       code   0x002876    program   0x000084
         .code_i2c1writ.o       code   0x0028fa    program   0x000074
          .code_fxm3232.o       code   0x00296e    program   0x000070
         .code_i2c2writ.o       code   0x0029de    program   0x00006e
         .code_i2c2read.o       code   0x002a4c    program   0x000068
                   STRING       code   0x002ab4    program   0x000066
         .code_i2c2puts.o       code   0x002b1a    program   0x000066
         .code_i2c1puts.o       code   0x002b80    program   0x000066
       .code_Interrupts.o       code   0x002be6    program   0x000066
             .code_Init.o       code   0x002c4c    program   0x000064
         .code_i2c2gets.o       code   0x002cb0    program   0x00005a
         .code_i2c1gets.o       code   0x002d0a    program   0x00005a
         .code_fxd3232u.o       code   0x002d64    program   0x000048
                    .code       code   0x002dac    program   0x00002c
         .code_i2c1read.o       code   0x002dd8    program   0x000028
                    CTYPE       code   0x002e00    program   0x000024
             .stringtable    romdata   0x002e24    program   0x00001e
             _startup_scn       code   0x002e42    program   0x00001c
                    STDIO       code   0x002e5e    program   0x00001c
         .code_i2c2open.o       code   0x002e7a    program   0x00001c
         .code_i2c1open.o       code   0x002e96    program   0x00001c
         .code_i2c2idle.o       code   0x002eb2    program   0x000018
         .code_i2c1idle.o       code   0x002eca    program   0x000018
      .romdata_vfprintf.o    romdata   0x002ee2    program   0x000011
      .romdata_fxd3232u.o    romdata   0x002ef3    program   0x000000
      .idata_i2c2rstr.o_i    romdata   0x002ef3    program   0x000000
    .romdata_FiddleYard.o    romdata   0x002ef3    program   0x000000
       .idata_fxm3232.o_i    romdata   0x002ef3    program   0x000000
      .romdata_i2c2read.o    romdata   0x002ef3    program   0x000000
       .romdata_fxm3232.o    romdata   0x002ef3    program   0x000000
        .idata___init.o_i    romdata   0x002ef3    program   0x000000
      .romdata_i2c2puts.o    romdata   0x002ef3    program   0x000000
      .idata_i2c2puts.o_i    romdata   0x002ef3    program   0x000000
          .idata_putc.o_i    romdata   0x002ef3    program   0x000000
 .romdata_State_Machine.o    romdata   0x002ef3    program   0x000000
      .romdata_i2c2open.o    romdata   0x002ef3    program   0x000000
          .romdata_putc.o    romdata   0x002ef3    program   0x000000
      .idata_i2c2open.o_i    romdata   0x002ef3    program   0x000000
       .romdata_eusart1.o    romdata   0x002ef3    program   0x000000
 .idata_State_Machine.o_i    romdata   0x002ef3    program   0x000000
      .romdata_i2c2nack.o    romdata   0x002ef3    program   0x000000
      .idata_i2c2nack.o_i    romdata   0x002ef3    program   0x000000
       .romdata_eusart2.o    romdata   0x002ef3    program   0x000000
        .romdata___init.o    romdata   0x002ef3    program   0x000000
.romdata_PetitModbusPort.o    romdata   0x002ef3    program   0x000000
.idata_PetitModbusPort.o_i    romdata   0x002ef3    program   0x000001
        .idata_printf.o_i    romdata   0x002ef3    program   0x000000
        .romdata_printf.o    romdata   0x002ef3    program   0x000000
        .romdata_stdout.o    romdata   0x002ef3    program   0x000000
   .romdata_PetitModbus.o    romdata   0x002ef3    program   0x000000
.idata_PetitRegConstant.o_i    romdata   0x002ef3    program   0x000000
    .romdata_Interrupts.o    romdata   0x002ef3    program   0x000000
.romdata_PetitRegConstant.o    romdata   0x002ef3    program   0x000000
      .idata_vfprintf.o_i    romdata   0x002ef3    program   0x000000
          .romdata_Init.o    romdata   0x002ef3    program   0x000000
       .romdata_General.o    romdata   0x002ef3    program   0x000000
      .romdata_i2c2writ.o    romdata   0x002ef3    program   0x000000
      .idata_i2c2writ.o_i    romdata   0x002ef3    program   0x000000
      .idata_fxd3232u.o_i    romdata   0x002ef3    program   0x000000
      .romdata_i2c2strt.o    romdata   0x002ef3    program   0x000000
      .idata_i2c2strt.o_i    romdata   0x002ef3    program   0x000000
      .romdata_i2c2stop.o    romdata   0x002ef3    program   0x000000
      .idata_i2c2stop.o_i    romdata   0x002ef3    program   0x000000
      .romdata_i2c2rstr.o    romdata   0x002ef3    program   0x000000
      .romdata_i2c1eesr.o    romdata   0x002ef3    program   0x000000
      .idata_i2c1gets.o_i    romdata   0x002ef3    program   0x000000
      .romdata_i2c1gets.o    romdata   0x002ef3    program   0x000000
      .idata_i2c1idle.o_i    romdata   0x002ef3    program   0x000000
      .romdata_i2c1idle.o    romdata   0x002ef3    program   0x000000
      .idata_i2c1nack.o_i    romdata   0x002ef3    program   0x000000
      .romdata_i2c1nack.o    romdata   0x002ef3    program   0x000000
      .idata_i2c1open.o_i    romdata   0x002ef3    program   0x000000
      .romdata_i2c1open.o    romdata   0x002ef3    program   0x000000
      .idata_i2c1puts.o_i    romdata   0x002ef3    program   0x000000
      .romdata_i2c1puts.o    romdata   0x002ef3    program   0x000000
      .idata_i2c1read.o_i    romdata   0x002ef3    program   0x000000
      .romdata_i2c1read.o    romdata   0x002ef3    program   0x000000
      .idata_i2c1rstr.o_i    romdata   0x002ef3    program   0x000000
      .romdata_i2c1rstr.o    romdata   0x002ef3    program   0x000000
      .idata_i2c1stop.o_i    romdata   0x002ef3    program   0x000000
      .romdata_i2c1stop.o    romdata   0x002ef3    program   0x000000
      .idata_i2c1strt.o_i    romdata   0x002ef3    program   0x000000
         .idata_c018i.o_i    romdata   0x002ef3    program   0x000000
         .romdata_c018i.o    romdata   0x002ef3    program   0x000000
       .idata_i2c1ack.o_i    romdata   0x002ef3    program   0x000000
       .romdata_i2c1ack.o    romdata   0x002ef3    program   0x000000
      .idata_i2c1clos.o_i    romdata   0x002ef3    program   0x000000
      .romdata_i2c1clos.o    romdata   0x002ef3    program   0x000000
      .idata_i2c1dtrd.o_i    romdata   0x002ef3    program   0x000000
      .romdata_i2c1dtrd.o    romdata   0x002ef3    program   0x000000
      .idata_i2c1eeap.o_i    romdata   0x002ef3    program   0x000000
      .romdata_i2c1eeap.o    romdata   0x002ef3    program   0x000000
      .idata_i2c1eebw.o_i    romdata   0x002ef3    program   0x000000
      .romdata_i2c1eebw.o    romdata   0x002ef3    program   0x000000
      .idata_i2c1eecr.o_i    romdata   0x002ef3    program   0x000000
      .romdata_i2c1eecr.o    romdata   0x002ef3    program   0x000000
      .idata_i2c1eepw.o_i    romdata   0x002ef3    program   0x000000
      .romdata_i2c1eepw.o    romdata   0x002ef3    program   0x000000
      .idata_i2c1eerr.o_i    romdata   0x002ef3    program   0x000000
      .romdata_i2c1eerr.o    romdata   0x002ef3    program   0x000000
      .idata_i2c1eesr.o_i    romdata   0x002ef3    program   0x000000
      .idata_i2c2clos.o_i    romdata   0x002ef3    program   0x000000
      .romdata_i2c2clos.o    romdata   0x002ef3    program   0x000000
      .idata_i2c2dtrd.o_i    romdata   0x002ef3    program   0x000000
      .romdata_i2c2dtrd.o    romdata   0x002ef3    program   0x000000
      .idata_i2c2eeap.o_i    romdata   0x002ef3    program   0x000000
      .romdata_i2c2eeap.o    romdata   0x002ef3    program   0x000000
      .idata_i2c2eebw.o_i    romdata   0x002ef3    program   0x000000
      .romdata_i2c2eebw.o    romdata   0x002ef3    program   0x000000
      .idata_i2c2eecr.o_i    romdata   0x002ef3    program   0x000000
      .romdata_i2c2eecr.o    romdata   0x002ef3    program   0x000000
      .idata_i2c2eepw.o_i    romdata   0x002ef3    program   0x000000
      .romdata_i2c2eepw.o    romdata   0x002ef3    program   0x000000
      .idata_i2c2eerr.o_i    romdata   0x002ef3    program   0x000000
      .romdata_i2c2eerr.o    romdata   0x002ef3    program   0x000000
      .idata_i2c2eesr.o_i    romdata   0x002ef3    program   0x000000
      .romdata_i2c2eesr.o    romdata   0x002ef3    program   0x000000
      .idata_i2c2gets.o_i    romdata   0x002ef3    program   0x000000
      .romdata_i2c2gets.o    romdata   0x002ef3    program   0x000000
      .idata_i2c2idle.o_i    romdata   0x002ef3    program   0x000000
      .romdata_i2c2idle.o    romdata   0x002ef3    program   0x000000
       .idata_i2c2ack.o_i    romdata   0x002ef3    program   0x000000
       .romdata_i2c2ack.o    romdata   0x002ef3    program   0x000000
      .romdata_i2c1writ.o    romdata   0x002ef3    program   0x000000
      .idata_i2c1writ.o_i    romdata   0x002ef3    program   0x000000
      .romdata_i2c1strt.o    romdata   0x002ef3    program   0x000000
         .code_i2c2dtrd.o       code   0x002ef4    program   0x000010
         .code_i2c1dtrd.o       code   0x002f04    program   0x000010
          .code_i2c2ack.o       code   0x002f14    program   0x000006
         .code_i2c1nack.o       code   0x002f1a    program   0x000006
          .code_i2c1ack.o       code   0x002f20    program   0x000006
         .code_i2c2stop.o       code   0x002f26    program   0x000004
         .code_i2c2rstr.o       code   0x002f2a    program   0x000004
         .code_i2c2clos.o       code   0x002f2e    program   0x000004
         .code_i2c1strt.o       code   0x002f32    program   0x000004
         .code_i2c1stop.o       code   0x002f36    program   0x000004
         .code_i2c1rstr.o       code   0x002f3a    program   0x000004
         .code_i2c1clos.o       code   0x002f3e    program   0x000004
    .code_State_Machine.o       code   0x002f42    program   0x000002
        .idata_stdout.o_i    romdata   0x002f44    program   0x000002
      .idata_i2c2read.o_i    romdata   0x002f46    program   0x000006
       .idata_eusart2.o_i    romdata   0x002f4c    program   0x000005
       .idata_eusart1.o_i    romdata   0x002f51    program   0x000005
   .idata_PetitModbus.o_i    romdata   0x002f56    program   0x000029
    .idata_Interrupts.o_i    romdata   0x002f7f    program   0x000000
       .idata_General.o_i    romdata   0x002f7f    program   0x000000
    .idata_FiddleYard.o_i    romdata   0x002f7f    program   0x000008
          .idata_Init.o_i    romdata   0x002f7f    program   0x000000
 .code_PetitRegConstant.o       code   0x002f88    program   0x000000
          .code_General.o       code   0x002f88    program   0x000000
           .code_stdout.o       code   0x002f88    program   0x000000
            .code_c018i.o       code   0x002f88    program   0x000000
.config_1fff8_FiddleYard.o    romdata   0x01fff8    program   0x000001
.config_1fff9_FiddleYard.o    romdata   0x01fff9    program   0x000001
.config_1fffa_FiddleYard.o    romdata   0x01fffa    program   0x000001
.config_1fffb_FiddleYard.o    romdata   0x01fffb    program   0x000001
.config_1fffc_FiddleYard.o    romdata   0x01fffc    program   0x000001
.config_1fffd_FiddleYard.o    romdata   0x01fffd    program   0x000001
                MATH_DATA      udata   0x000000       data   0x000014
                 .tmpdata      udata   0x000014       data   0x000007
         .udata_eusart1.o      udata   0x000060       data   0x000096
           .udata_c018i.o      udata   0x0000f6       data   0x00000a
         .udata_eusart2.o      udata   0x000100       data   0x000095
      .udata_FiddleYard.o      udata   0x000195       data   0x000050
      .idata_FiddleYard.o      idata   0x0001e5       data   0x000008
        .idata_i2c2read.o      idata   0x0001ed       data   0x000006
        .udata_i2c2eesr.o      udata   0x0001f3       data   0x000005
        .udata_i2c1eesr.o      udata   0x0001f8       data   0x000005
        .udata_i2c2puts.o      udata   0x0001fd       data   0x000003
                   .stack      udata   0x000d00       data   0x000100
     .idata_PetitModbus.o      idata   0x000e00       data   0x000029
 .udata_PetitModbusPort.o      udata   0x000e29       data   0x000020
         .idata_eusart2.o      idata   0x000e49       data   0x000005
         .idata_eusart1.o      idata   0x000e4e       data   0x000005
        .udata_i2c2eepw.o      udata   0x000e53       data   0x000004
        .udata_i2c1eepw.o      udata   0x000e57       data   0x000004
        .udata_i2c2gets.o      udata   0x000e5b       data   0x000003
        .udata_i2c2eebw.o      udata   0x000e5e       data   0x000003
        .udata_i2c1puts.o      udata   0x000e61       data   0x000003
        .udata_i2c1gets.o      udata   0x000e64       data   0x000003
        .udata_i2c1eebw.o      udata   0x000e67       data   0x000003
        .udata_i2c2eerr.o      udata   0x000e6a       data   0x000002
        .udata_i2c1open.o      udata   0x000e6c       data   0x000002
        .udata_i2c1eerr.o      udata   0x000e6e       data   0x000002
         .udata_General.o      udata   0x000e70       data   0x000002
          .idata_stdout.o      idata   0x000e72       data   0x000002
        .udata_i2c2writ.o      udata   0x000e74       data   0x000001
        .udata_i2c2eecr.o      udata   0x000e75       data   0x000001
        .udata_i2c2eeap.o      udata   0x000e76       data   0x000001
        .udata_i2c1writ.o      udata   0x000e77       data   0x000001
        .udata_i2c1eecr.o      udata   0x000e78       data   0x000001
        .udata_i2c1eeap.o      udata   0x000e79       data   0x000001
 .idata_PetitModbusPort.o      idata   0x000e7a       data   0x000001
      .idata_Interrupts.o      idata   0x000e7b       data   0x000000
      .udata_Interrupts.o      udata   0x000e7b       data   0x000000
        .udata_i2c1dtrd.o      udata   0x000e7b       data   0x000000
        .udata_i2c2rstr.o      udata   0x000e7b       data   0x000000
            .idata_Init.o      idata   0x000e7b       data   0x000000
        .idata_i2c2rstr.o      idata   0x000e7b       data   0x000000
            .udata_Init.o      udata   0x000e7b       data   0x000000
         .idata_General.o      idata   0x000e7b       data   0x000000
        .udata_i2c2stop.o      udata   0x000e7b       data   0x000000
        .idata_i2c2stop.o      idata   0x000e7b       data   0x000000
        .idata_i2c2writ.o      idata   0x000e7b       data   0x000000
        .idata_i2c2strt.o      idata   0x000e7b       data   0x000000
        .udata_i2c2strt.o      udata   0x000e7b       data   0x000000
           .idata_c018i.o      idata   0x000e7b       data   0x000000
            .idata_putc.o      idata   0x000e7b       data   0x000000
            .udata_putc.o      udata   0x000e7b       data   0x000000
         .idata_fxm3232.o      idata   0x000e7b       data   0x000000
         .udata_fxm3232.o      udata   0x000e7b       data   0x000000
        .idata_fxd3232u.o      idata   0x000e7b       data   0x000000
        .udata_fxd3232u.o      udata   0x000e7b       data   0x000000
        .idata_vfprintf.o      idata   0x000e7b       data   0x000000
        .udata_vfprintf.o      udata   0x000e7b       data   0x000000
          .udata_stdout.o      udata   0x000e7b       data   0x000000
          .idata_printf.o      idata   0x000e7b       data   0x000000
          .udata_printf.o      udata   0x000e7b       data   0x000000
          .idata___init.o      idata   0x000e7b       data   0x000000
          .udata___init.o      udata   0x000e7b       data   0x000000
   .idata_State_Machine.o      idata   0x000e7b       data   0x000000
   .udata_State_Machine.o      udata   0x000e7b       data   0x000000
         .udata_i2c1ack.o      udata   0x000e7b       data   0x000000
         .idata_i2c1ack.o      idata   0x000e7b       data   0x000000
        .udata_i2c1clos.o      udata   0x000e7b       data   0x000000
        .idata_i2c1clos.o      idata   0x000e7b       data   0x000000
.idata_PetitRegConstant.o      idata   0x000e7b       data   0x000000
.udata_PetitRegConstant.o      udata   0x000e7b       data   0x000000
        .idata_i2c1writ.o      idata   0x000e7b       data   0x000000
        .idata_i2c1strt.o      idata   0x000e7b       data   0x000000
        .udata_i2c1strt.o      udata   0x000e7b       data   0x000000
        .idata_i2c1stop.o      idata   0x000e7b       data   0x000000
        .udata_i2c1stop.o      udata   0x000e7b       data   0x000000
        .idata_i2c1rstr.o      idata   0x000e7b       data   0x000000
        .udata_i2c1rstr.o      udata   0x000e7b       data   0x000000
        .idata_i2c1read.o      idata   0x000e7b       data   0x000000
        .udata_i2c1read.o      udata   0x000e7b       data   0x000000
        .idata_i2c1puts.o      idata   0x000e7b       data   0x000000
        .idata_i2c1open.o      idata   0x000e7b       data   0x000000
        .idata_i2c1nack.o      idata   0x000e7b       data   0x000000
        .udata_i2c1nack.o      udata   0x000e7b       data   0x000000
        .idata_i2c1idle.o      idata   0x000e7b       data   0x000000
        .udata_i2c1idle.o      udata   0x000e7b       data   0x000000
        .idata_i2c1gets.o      idata   0x000e7b       data   0x000000
        .idata_i2c1eesr.o      idata   0x000e7b       data   0x000000
        .idata_i2c1eeap.o      idata   0x000e7b       data   0x000000
        .idata_i2c1eerr.o      idata   0x000e7b       data   0x000000
        .idata_i2c1eepw.o      idata   0x000e7b       data   0x000000
        .idata_i2c1eecr.o      idata   0x000e7b       data   0x000000
        .idata_i2c1eebw.o      idata   0x000e7b       data   0x000000
        .udata_i2c2read.o      udata   0x000e7b       data   0x000000
        .idata_i2c2puts.o      idata   0x000e7b       data   0x000000
        .idata_i2c1dtrd.o      idata   0x000e7b       data   0x000000
        .idata_i2c2open.o      idata   0x000e7b       data   0x000000
        .idata_i2c2nack.o      idata   0x000e7b       data   0x000000
        .udata_i2c2nack.o      udata   0x000e7b       data   0x000000
        .idata_i2c2idle.o      idata   0x000e7b       data   0x000000
        .udata_i2c2idle.o      udata   0x000e7b       data   0x000000
        .idata_i2c2gets.o      idata   0x000e7b       data   0x000000
        .idata_i2c2eesr.o      idata   0x000e7b       data   0x000000
        .idata_i2c2eerr.o      idata   0x000e7b       data   0x000000
        .idata_i2c2eepw.o      idata   0x000e7b       data   0x000000
        .idata_i2c2eecr.o      idata   0x000e7b       data   0x000000
        .idata_i2c2eebw.o      idata   0x000e7b       data   0x000000
         .udata_i2c2ack.o      udata   0x000e7b       data   0x000000
         .idata_i2c2ack.o      idata   0x000e7b       data   0x000000
        .udata_i2c2clos.o      udata   0x000e7b       data   0x000000
        .idata_i2c2clos.o      idata   0x000e7b       data   0x000000
        .udata_i2c2dtrd.o      udata   0x000e7b       data   0x000000
        .idata_i2c2dtrd.o      idata   0x000e7b       data   0x000000
        .idata_i2c2eeap.o      idata   0x000e7b       data   0x000000
              SFR_BANKED0      udata   0x000e80       data   0x000006
              SFR_BANKED1      udata   0x000e8a       data   0x000001
              SFR_BANKED2      udata   0x000e97       data   0x000003
              SFR_BANKED3      udata   0x000ea0       data   0x000001
              SFR_BANKED4      udata   0x000ea2       data   0x000003
              SFR_BANKED5      udata   0x000ea6       data   0x000002
              SFR_BANKED6      udata   0x000eaa       data   0x000002
              SFR_BANKED7      udata   0x000eb2       data   0x000001
              SFR_BANKED8      udata   0x000eb4       data   0x000001
              SFR_BANKED9      udata   0x000eb6       data   0x000004
             SFR_BANKED10      udata   0x000ec0       data   0x000012
             SFR_BANKED11      udata   0x000ed4       data   0x000002
             SFR_BANKED12      udata   0x000ed8       data   0x000002
             SFR_BANKED13      udata   0x000ee2       data   0x000016
             SFR_BANKED14      udata   0x000efb       data   0x000001
             SFR_BANKED15      udata   0x000efd       data   0x000002
     .udata_PetitModbus.o      udata   0x000f00       data   0x00005e
        .udata_i2c2open.o      udata   0x000f5e       data   0x000002
            SFR_UNBANKED0      udata   0x000f60       data   0x0000a0



                              Program Memory Usage 
                               Start         End      
                           ---------   ---------      
                            0x000000    0x002f86      
                            0x01fff8    0x01fffd      
            12173 out of 131072 program addresses used, program memory utilization is 9%



                              Symbols - Sorted by Name
                     Name    Address   Location    Storage File                     
                ---------  ---------  ---------  --------- ---------                
                  AckI2C1   0x002f20    program     extern C:\GIT-REPOS\Siebwalde\TrackController3.X\I2c2\i2c1ack.c
                  AckI2C2   0x002f14    program     extern C:\GIT-REPOS\Siebwalde\TrackController3.X\I2c2\i2c2ack.c
CheckPetitModbusBufferComplete   0x000dec    program     extern C:\GIT-REPOS\Siebwalde\TrackController3.X\modbus\PetitModbus.c
                CloseI2C1   0x002f3e    program     extern C:\GIT-REPOS\Siebwalde\TrackController3.X\I2c2\i2c1clos.c
                CloseI2C2   0x002f2e    program     extern C:\GIT-REPOS\Siebwalde\TrackController3.X\I2c2\i2c2clos.c
              DataRdyI2C1   0x002f04    program     extern C:\GIT-REPOS\Siebwalde\TrackController3.X\I2c2\i2c1dtrd.c
              DataRdyI2C2   0x002ef4    program     extern C:\GIT-REPOS\Siebwalde\TrackController3.X\I2c2\i2c2dtrd.c
            EEAckPolling1   0x002876    program     extern C:\GIT-REPOS\Siebwalde\TrackController3.X\I2c2\i2c1eeap.c
            EEAckPolling2   0x0027f2    program     extern C:\GIT-REPOS\Siebwalde\TrackController3.X\I2c2\i2c2eeap.c
             EEByteWrite1   0x00234a    program     extern C:\GIT-REPOS\Siebwalde\TrackController3.X\I2c2\i2c1eebw.c
             EEByteWrite2   0x0022a8    program     extern C:\GIT-REPOS\Siebwalde\TrackController3.X\I2c2\i2c2eebw.c
        EECurrentAddRead1   0x0026de    program     extern C:\GIT-REPOS\Siebwalde\TrackController3.X\I2c2\i2c1eecr.c
        EECurrentAddRead2   0x00264e    program     extern C:\GIT-REPOS\Siebwalde\TrackController3.X\I2c2\i2c2eecr.c
             EEPageWrite1   0x002202    program     extern C:\GIT-REPOS\Siebwalde\TrackController3.X\I2c2\i2c1eepw.c
             EEPageWrite2   0x00215c    program     extern C:\GIT-REPOS\Siebwalde\TrackController3.X\I2c2\i2c2eepw.c
            EERandomRead1   0x001c8a    program     extern C:\GIT-REPOS\Siebwalde\TrackController3.X\I2c2\i2c1eerr.c
            EERandomRead2   0x001b86    program     extern C:\GIT-REPOS\Siebwalde\TrackController3.X\I2c2\i2c2eerr.c
        EESequentialRead1   0x002078    program     extern C:\GIT-REPOS\Siebwalde\TrackController3.X\I2c2\i2c1eesr.c
        EESequentialRead2   0x001f8e    program     extern C:\GIT-REPOS\Siebwalde\TrackController3.X\I2c2\i2c2eesr.c
       EUSART1_Initialize   0x0018ea    program     extern C:\GIT-REPOS\Siebwalde\TrackController3.X\eusart1.c
             EUSART1_Read   0x001924    program     extern C:\GIT-REPOS\Siebwalde\TrackController3.X\eusart1.c
      EUSART1_Receive_ISR   0x0019fa    program     extern C:\GIT-REPOS\Siebwalde\TrackController3.X\eusart1.c
     EUSART1_Transmit_ISR   0x0019b4    program     extern C:\GIT-REPOS\Siebwalde\TrackController3.X\eusart1.c
            EUSART1_Write   0x001966    program     extern C:\GIT-REPOS\Siebwalde\TrackController3.X\eusart1.c
       EUSART2_Initialize   0x001a3e    program     extern C:\GIT-REPOS\Siebwalde\TrackController3.X\eusart2.c
             EUSART2_Read   0x001a74    program     extern C:\GIT-REPOS\Siebwalde\TrackController3.X\eusart2.c
      EUSART2_Receive_ISR   0x001b42    program     extern C:\GIT-REPOS\Siebwalde\TrackController3.X\eusart2.c
     EUSART2_Transmit_ISR   0x001afc    program     extern C:\GIT-REPOS\Siebwalde\TrackController3.X\eusart2.c
            EUSART2_Write   0x001ab6    program     extern C:\GIT-REPOS\Siebwalde\TrackController3.X\eusart2.c
                 FXD3232U   0x002d64    program     extern E:\3.46\pic18-lt\cxx-framework\src\traditional\math\fxd3232u.c
                 FXM1616S   0x00255e    program     extern E:\3.46\pic18-lt\cxx-framework\src\traditional\math\fxm1616s.asm
                 FXM1616U   0x002522    program     extern E:\3.46\pic18-lt\cxx-framework\src\traditional\math\fxm1616u.asm
                  FXM3232   0x00296e    program     extern E:\3.46\pic18-lt\cxx-framework\src\traditional\math\fxm3232.c
HandleMPetitodbusMbExceptionCodesSlaveReadback   0x0015cc    program     extern C:\GIT-REPOS\Siebwalde\TrackController3.X\modbus\PetitModbus.c
HandleMPetitodbusWriteMultipleRegistersSlaveReadback   0x0014c2    program     extern C:\GIT-REPOS\Siebwalde\TrackController3.X\modbus\PetitModbus.c
HandlePetitModbusReadHoldingRegistersSlaveReadback   0x00130a    program     extern C:\GIT-REPOS\Siebwalde\TrackController3.X\modbus\PetitModbus.c
HandlePetitModbusWriteSingleRegisterSlaveReadback   0x001252    program     extern C:\GIT-REPOS\Siebwalde\TrackController3.X\modbus\PetitModbus.c
                 IdleI2C1   0x002eca    program     extern C:\GIT-REPOS\Siebwalde\TrackController3.X\I2c2\i2c1idle.c
                 IdleI2C2   0x002eb2    program     extern C:\GIT-REPOS\Siebwalde\TrackController3.X\I2c2\i2c2idle.c
          InitPetitModbus   0x00117a    program     extern C:\GIT-REPOS\Siebwalde\TrackController3.X\modbus\PetitModbus.c
                  InitTMR   0x002c7a    program     extern C:\GIT-REPOS\Siebwalde\TrackController3.X\modbus\Init.c
                 InitUART   0x002c4c    program     extern C:\GIT-REPOS\Siebwalde\TrackController3.X\modbus\Init.c
                 Init_Pwm   0x0018d8    program     static C:\GIT-REPOS\Siebwalde\TrackController3.X\FiddleYard.c
              Init_Timers   0x0018aa    program     static C:\GIT-REPOS\Siebwalde\TrackController3.X\FiddleYard.c
               NotAckI2C1   0x002f1a    program     extern C:\GIT-REPOS\Siebwalde\TrackController3.X\I2c2\i2c1nack.c
               NotAckI2C2   0x00000e    program     extern C:\GIT-REPOS\Siebwalde\TrackController3.X\I2c2\i2c2nack.c
                 OpenI2C1   0x002e96    program     extern C:\GIT-REPOS\Siebwalde\TrackController3.X\I2c2\i2c1open.c
                 OpenI2C2   0x002e7a    program     extern C:\GIT-REPOS\Siebwalde\TrackController3.X\I2c2\i2c2open.c
PetitModBus_TIMER_Initialise   0x0025be    program     extern C:\GIT-REPOS\Siebwalde\TrackController3.X\modbus\PetitModbusPort.c
  PetitModBus_TimerValues   0x002644    program     extern C:\GIT-REPOS\Siebwalde\TrackController3.X\modbus\PetitModbusPort.c
PetitModBus_UART_Initialise   0x0025b8    program     extern C:\GIT-REPOS\Siebwalde\TrackController3.X\modbus\PetitModbusPort.c
   PetitModBus_UART_Putch   0x0025c4    program     extern C:\GIT-REPOS\Siebwalde\TrackController3.X\modbus\PetitModbusPort.c
  PetitModBus_UART_String   0x0025ce    program     extern C:\GIT-REPOS\Siebwalde\TrackController3.X\modbus\PetitModbusPort.c
    PetitModbusIntHandler   0x002be6    program     extern C:\GIT-REPOS\Siebwalde\TrackController3.X\modbus\Interrupts.c
         PetitSendMessage   0x000d9e    program     extern C:\GIT-REPOS\Siebwalde\TrackController3.X\modbus\PetitModbus.c
              Petit_CRC16   0x000c96    program     extern C:\GIT-REPOS\Siebwalde\TrackController3.X\modbus\PetitModbus.c
     Petit_CheckRxTimeout   0x000dcc    program     extern C:\GIT-REPOS\Siebwalde\TrackController3.X\modbus\PetitModbus.c
          Petit_DoSlaveTX   0x000d7c    program     extern C:\GIT-REPOS\Siebwalde\TrackController3.X\modbus\PetitModbus.c
    Petit_RxDataAvailable   0x000dbc    program     extern C:\GIT-REPOS\Siebwalde\TrackController3.X\modbus\PetitModbus.c
              Petit_RxRTU   0x000e64    program     extern C:\GIT-REPOS\Siebwalde\TrackController3.X\modbus\PetitModbus.c
              Petit_TxRTU   0x000fa8    program     extern C:\GIT-REPOS\Siebwalde\TrackController3.X\modbus\PetitModbus.c
       ProcessPetitModbus   0x0010fc    program     extern C:\GIT-REPOS\Siebwalde\TrackController3.X\modbus\PetitModbus.c
                 ReadI2C1   0x002dd8    program     extern C:\GIT-REPOS\Siebwalde\TrackController3.X\I2c2\i2c1read.c
                 ReadI2C2   0x002a4c    program     extern C:\GIT-REPOS\Siebwalde\TrackController3.X\I2c2\i2c2read.c
         ReceiveInterrupt   0x002614    program     extern C:\GIT-REPOS\Siebwalde\TrackController3.X\modbus\PetitModbusPort.c
              RestartI2C1   0x002f3a    program     extern C:\GIT-REPOS\Siebwalde\TrackController3.X\I2c2\i2c1rstr.c
              RestartI2C2   0x002f2a    program     extern C:\GIT-REPOS\Siebwalde\TrackController3.X\I2c2\i2c2rstr.c
          SendPetitModbus   0x00118c    program     extern C:\GIT-REPOS\Siebwalde\TrackController3.X\modbus\PetitModbus.c
                StartI2C1   0x002f32    program     extern C:\GIT-REPOS\Siebwalde\TrackController3.X\I2c2\i2c1strt.c
                StartI2C2   0x000014    program     extern C:\GIT-REPOS\Siebwalde\TrackController3.X\I2c2\i2c2strt.c
       StatexMachinexInit   0x002f42    program     extern C:\GIT-REPOS\Siebwalde\TrackController3.X\State_Machine.c
                 StopI2C1   0x002f36    program     extern C:\GIT-REPOS\Siebwalde\TrackController3.X\I2c2\i2c1stop.c
                 StopI2C2   0x002f26    program     extern C:\GIT-REPOS\Siebwalde\TrackController3.X\I2c2\i2c2stop.c
               TSIGN1616A   0x0025aa    program     static E:\3.46\pic18-lt\cxx-framework\src\traditional\math\fxm1616s.asm
                WriteI2C1   0x0028fa    program     extern C:\GIT-REPOS\Siebwalde\TrackController3.X\I2c2\i2c1writ.c
                WriteI2C2   0x0029de    program     extern C:\GIT-REPOS\Siebwalde\TrackController3.X\I2c2\i2c2writ.c
                   _2jEnd   0x002b04    program     static E:\3.46\pic18-lt\cxx-framework\src\traditional\stdclib\slenpgm.asm
       ___return_lbl00000   0x002daa    program     static                          
       ___return_lbl00000   0x000004    program     static                          
       ___return_lbl00000   0x0029dc    program     static                          
       ___return_lbl00001   0x002e5c    program     static                          
       ___return_lbl00002   0x002488    program     static                          
       ___return_lbl00015   0x00000c    program     static                          
       ___return_lbl00017   0x00001c    program     static                          
               __config_0   0x01fff8    program     static C:\GIT-REPOS\Siebwalde\TrackController3.X\FiddleYard.c
               __config_1   0x01fff9    program     static C:\GIT-REPOS\Siebwalde\TrackController3.X\FiddleYard.c
               __config_2   0x01fffa    program     static C:\GIT-REPOS\Siebwalde\TrackController3.X\FiddleYard.c
               __config_3   0x01fffb    program     static C:\GIT-REPOS\Siebwalde\TrackController3.X\FiddleYard.c
               __config_4   0x01fffc    program     static C:\GIT-REPOS\Siebwalde\TrackController3.X\FiddleYard.c
               __config_5   0x01fffd    program     static C:\GIT-REPOS\Siebwalde\TrackController3.X\FiddleYard.c
                   __init   0x000006    program     extern E:\3.46\pic18-lt\cxx-framework\src\traditional\stdclib\__init.c
                   __pa_0   0x0009b4    program     static E:\3.46\pic18-lt\cxx-framework\src\traditional\stdclib\vfprintf.c
                   __pa_1   0x0009bc    program     static E:\3.46\pic18-lt\cxx-framework\src\traditional\stdclib\vfprintf.c
                  __pa_10   0x000a70    program     static E:\3.46\pic18-lt\cxx-framework\src\traditional\stdclib\vfprintf.c
                  __pa_11   0x000a7e    program     static E:\3.46\pic18-lt\cxx-framework\src\traditional\stdclib\vfprintf.c
                  __pa_12   0x000a94    program     static E:\3.46\pic18-lt\cxx-framework\src\traditional\stdclib\vfprintf.c
                  __pa_13   0x000aae    program     static E:\3.46\pic18-lt\cxx-framework\src\traditional\stdclib\vfprintf.c
                  __pa_14   0x000ac6    program     static E:\3.46\pic18-lt\cxx-framework\src\traditional\stdclib\vfprintf.c
                  __pa_15   0x000ad6    program     static E:\3.46\pic18-lt\cxx-framework\src\traditional\stdclib\vfprintf.c
                  __pa_16   0x000aec    program     static E:\3.46\pic18-lt\cxx-framework\src\traditional\stdclib\vfprintf.c
                  __pa_17   0x000afe    program     static E:\3.46\pic18-lt\cxx-framework\src\traditional\stdclib\vfprintf.c
                  __pa_18   0x000b10    program     static E:\3.46\pic18-lt\cxx-framework\src\traditional\stdclib\vfprintf.c
                  __pa_19   0x000b1a    program     static E:\3.46\pic18-lt\cxx-framework\src\traditional\stdclib\vfprintf.c
                   __pa_2   0x0009c6    program     static E:\3.46\pic18-lt\cxx-framework\src\traditional\stdclib\vfprintf.c
                  __pa_20   0x000b2a    program     static E:\3.46\pic18-lt\cxx-framework\src\traditional\stdclib\vfprintf.c
                  __pa_21   0x000b3a    program     static E:\3.46\pic18-lt\cxx-framework\src\traditional\stdclib\vfprintf.c
                  __pa_22   0x000b4a    program     static E:\3.46\pic18-lt\cxx-framework\src\traditional\stdclib\vfprintf.c
                  __pa_23   0x000b56    program     static E:\3.46\pic18-lt\cxx-framework\src\traditional\stdclib\vfprintf.c
                  __pa_24   0x000b64    program     static E:\3.46\pic18-lt\cxx-framework\src\traditional\stdclib\vfprintf.c
                  __pa_25   0x000b6c    program     static E:\3.46\pic18-lt\cxx-framework\src\traditional\stdclib\vfprintf.c
                  __pa_26   0x000b76    program     static E:\3.46\pic18-lt\cxx-framework\src\traditional\stdclib\vfprintf.c
                  __pa_27   0x000b80    program     static E:\3.46\pic18-lt\cxx-framework\src\traditional\stdclib\vfprintf.c
                  __pa_28   0x000b88    program     static E:\3.46\pic18-lt\cxx-framework\src\traditional\stdclib\vfprintf.c
                  __pa_29   0x000b96    program     static E:\3.46\pic18-lt\cxx-framework\src\traditional\stdclib\vfprintf.c
                   __pa_3   0x0009d0    program     static E:\3.46\pic18-lt\cxx-framework\src\traditional\stdclib\vfprintf.c
                  __pa_30   0x000bb2    program     static E:\3.46\pic18-lt\cxx-framework\src\traditional\stdclib\vfprintf.c
                  __pa_31   0x000bcc    program     static E:\3.46\pic18-lt\cxx-framework\src\traditional\stdclib\vfprintf.c
                  __pa_32   0x000be6    program     static E:\3.46\pic18-lt\cxx-framework\src\traditional\stdclib\vfprintf.c
                  __pa_33   0x000bfe    program     static E:\3.46\pic18-lt\cxx-framework\src\traditional\stdclib\vfprintf.c
                  __pa_34   0x000c08    program     static E:\3.46\pic18-lt\cxx-framework\src\traditional\stdclib\vfprintf.c
                  __pa_35   0x000c16    program     static E:\3.46\pic18-lt\cxx-framework\src\traditional\stdclib\vfprintf.c
                  __pa_36   0x000c1e    program     static E:\3.46\pic18-lt\cxx-framework\src\traditional\stdclib\vfprintf.c
                  __pa_37   0x000c28    program     static E:\3.46\pic18-lt\cxx-framework\src\traditional\stdclib\vfprintf.c
                  __pa_38   0x000c38    program     static E:\3.46\pic18-lt\cxx-framework\src\traditional\stdclib\vfprintf.c
                  __pa_39   0x000c46    program     static E:\3.46\pic18-lt\cxx-framework\src\traditional\stdclib\vfprintf.c
                   __pa_4   0x0009e8    program     static E:\3.46\pic18-lt\cxx-framework\src\traditional\stdclib\vfprintf.c
                  __pa_40   0x000c52    program     static E:\3.46\pic18-lt\cxx-framework\src\traditional\stdclib\vfprintf.c
                  __pa_41   0x000c5e    program     static E:\3.46\pic18-lt\cxx-framework\src\traditional\stdclib\vfprintf.c
                  __pa_42   0x000c66    program     static E:\3.46\pic18-lt\cxx-framework\src\traditional\stdclib\vfprintf.c
                  __pa_43   0x000c70    program     static E:\3.46\pic18-lt\cxx-framework\src\traditional\stdclib\vfprintf.c
                  __pa_44   0x000c76    program     static E:\3.46\pic18-lt\cxx-framework\src\traditional\stdclib\vfprintf.c
                  __pa_45   0x000c80    program     static E:\3.46\pic18-lt\cxx-framework\src\traditional\stdclib\vfprintf.c
                  __pa_46   0x000c8c    program     static E:\3.46\pic18-lt\cxx-framework\src\traditional\stdclib\vfprintf.c
                   __pa_5   0x0009fc    program     static E:\3.46\pic18-lt\cxx-framework\src\traditional\stdclib\vfprintf.c
                   __pa_6   0x000a18    program     static E:\3.46\pic18-lt\cxx-framework\src\traditional\stdclib\vfprintf.c
                   __pa_7   0x000a22    program     static E:\3.46\pic18-lt\cxx-framework\src\traditional\stdclib\vfprintf.c
                   __pa_8   0x000a2e    program     static E:\3.46\pic18-lt\cxx-framework\src\traditional\stdclib\vfprintf.c
                   __pa_9   0x000a50    program     static E:\3.46\pic18-lt\cxx-framework\src\traditional\stdclib\vfprintf.c
               __string_0   0x002e26    program     static C:\GIT-REPOS\Siebwalde\TrackController3.X\FiddleYard.c
               __string_1   0x002e24    program     static C:\GIT-REPOS\Siebwalde\TrackController3.X\FiddleYard.c
              __tmplbl_42   0x000b4a    program     static                          
              __tmplbl_43   0x000992    program     static                          
              __tmplbl_44   0x000978    program     static                          
              __tmplbl_85   0x0000ca    program     static                          
            __zero_memory   0x002dac    program     extern E:\3.46\pic18-lt\cxx-framework\src\traditional\proc\p18f97j60.asm
                _do_cinit   0x0023ec    program     extern E:\3.46\pic18-lt\cxx-framework\src\traditional\startup\c018i.c
                   _entry   0x000000    program     extern E:\3.46\pic18-lt\cxx-framework\src\traditional\startup\c018i.c
                   _false   0x002da6    program     static                          
                 _startup   0x002e42    program     extern E:\3.46\pic18-lt\cxx-framework\src\traditional\startup\c018i.c
              _usart_putc   0x002e5e    program     extern E:\3.46\pic18-lt\cxx-framework\src\pmc_common\USART\_usartpc.asm
               _user_putc   0x0019ac    program     extern C:\GIT-REPOS\Siebwalde\TrackController3.X\eusart1.c
                auchCRCHi   0x001e8e    program     extern C:\GIT-REPOS\Siebwalde\TrackController3.X\modbus\PetitModbus.c
                auchCRCLo   0x001d8e    program     extern C:\GIT-REPOS\Siebwalde\TrackController3.X\modbus\PetitModbus.c
                compare_l   0x002dce    program     static E:\3.46\pic18-lt\cxx-framework\src\traditional\proc\p18f97j60.asm
                copy_loop   0x00245e    program     static                          
            copy_one_byte   0x002464    program     static                          
                     done   0x002488    program     static                          
             done_copying   0x002472    program     static                          
                 getsI2C1   0x002d0a    program     extern C:\GIT-REPOS\Siebwalde\TrackController3.X\I2c2\i2c1gets.c
                 getsI2C2   0x002cb0    program     extern C:\GIT-REPOS\Siebwalde\TrackController3.X\I2c2\i2c2gets.c
                 high_isr   0x0017ba    program     extern C:\GIT-REPOS\Siebwalde\TrackController3.X\FiddleYard.c
 interrupt_at_high_vector   0x000008    program     extern C:\GIT-REPOS\Siebwalde\TrackController3.X\FiddleYard.c
  interrupt_at_low_vector   0x000018    program     extern C:\GIT-REPOS\Siebwalde\TrackController3.X\FiddleYard.c
                  isdigit   0x002e00    program     extern E:\3.46\pic18-lt\cxx-framework\src\traditional\stdclib\isdigit.asm
                     jEnd   0x002ace    program     static E:\3.46\pic18-lt\cxx-framework\src\traditional\stdclib\strlen.asm
                     jEnd   0x002b06    program     static E:\3.46\pic18-lt\cxx-framework\src\traditional\stdclib\slenpgm.asm
                    jLoop   0x002aee    program     static E:\3.46\pic18-lt\cxx-framework\src\traditional\stdclib\slenpgm.asm
                    jLoop   0x002ac4    program     static E:\3.46\pic18-lt\cxx-framework\src\traditional\stdclib\strlen.asm
                   jMatch   0x002e20    program     static E:\3.46\pic18-lt\cxx-framework\src\traditional\stdclib\isdigit.asm
                 jNoMatch   0x002e22    program     static E:\3.46\pic18-lt\cxx-framework\src\traditional\stdclib\isdigit.asm
                     loop   0x002d72    program     static                          
                     loop   0x002e6e    program     static E:\3.46\pic18-lt\cxx-framework\src\pmc_common\USART\_usartpc.asm
                     loop   0x002e52    program     static                          
                   loop_h   0x002dc6    program     static E:\3.46\pic18-lt\cxx-framework\src\traditional\proc\p18f97j60.asm
                   loop_l   0x002dd0    program     static E:\3.46\pic18-lt\cxx-framework\src\traditional\proc\p18f97j60.asm
                  low_isr   0x0017cc    program     extern C:\GIT-REPOS\Siebwalde\TrackController3.X\FiddleYard.c
                     main   0x001656    program     extern C:\GIT-REPOS\Siebwalde\TrackController3.X\FiddleYard.c
                   printf   0x00248a    program     extern E:\3.46\pic18-lt\cxx-framework\src\traditional\stdclib\printf.c
                     putc   0x00276e    program     extern E:\3.46\pic18-lt\cxx-framework\src\traditional\stdclib\putc.c
                 putsI2C1   0x002b80    program     extern C:\GIT-REPOS\Siebwalde\TrackController3.X\I2c2\i2c1puts.c
                 putsI2C2   0x002b1a    program     extern C:\GIT-REPOS\Siebwalde\TrackController3.X\I2c2\i2c2puts.c
                 s_digits   0x002ee2    program     static E:\3.46\pic18-lt\cxx-framework\src\traditional\stdclib\vfprintf.c
            s_put_n_chars   0x000074    program     static E:\3.46\pic18-lt\cxx-framework\src\traditional\stdclib\vfprintf.c
                   strlen   0x002ab4    program     extern E:\3.46\pic18-lt\cxx-framework\src\traditional\stdclib\strlen.asm
                strlenpgm   0x002ad0    program     extern E:\3.46\pic18-lt\cxx-framework\src\traditional\stdclib\slenpgm.asm
                     test   0x002406    program     static                          
                 vfprintf   0x0000a0    program     extern E:\3.46\pic18-lt\cxx-framework\src\traditional\stdclib\vfprintf.c
               zero_block   0x002dc6    program     static E:\3.46\pic18-lt\cxx-framework\src\traditional\proc\p18f97j60.asm
                   ADCON0   0x000fc2       data     extern E:\3.46\pic18-lt\cxx-framework\src\traditional\proc\p18f97j60.asm
               ADCON0bits   0x000fc2       data     extern E:\3.46\pic18-lt\cxx-framework\src\traditional\proc\p18f97j60.asm
                   ADCON1   0x000fc1       data     extern E:\3.46\pic18-lt\cxx-framework\src\traditional\proc\p18f97j60.asm
               ADCON1bits   0x000fc1       data     extern E:\3.46\pic18-lt\cxx-framework\src\traditional\proc\p18f97j60.asm
                   ADCON2   0x000fc0       data     extern E:\3.46\pic18-lt\cxx-framework\src\traditional\proc\p18f97j60.asm
               ADCON2bits   0x000fc0       data     extern E:\3.46\pic18-lt\cxx-framework\src\traditional\proc\p18f97j60.asm
                    ADRES   0x000fc3       data     extern E:\3.46\pic18-lt\cxx-framework\src\traditional\proc\p18f97j60.asm
                   ADRESH   0x000fc4       data     extern E:\3.46\pic18-lt\cxx-framework\src\traditional\proc\p18f97j60.asm
                   ADRESL   0x000fc3       data     extern E:\3.46\pic18-lt\cxx-framework\src\traditional\proc\p18f97j60.asm
                  Address   0x000f58       data     static C:\GIT-REPOS\Siebwalde\TrackController3.X\modbus\PetitModbus.c
                  BAUDCON   0x000f7e       data     extern E:\3.46\pic18-lt\cxx-framework\src\traditional\proc\p18f97j60.asm
                 BAUDCON1   0x000f7e       data     extern E:\3.46\pic18-lt\cxx-framework\src\traditional\proc\p18f97j60.asm
             BAUDCON1bits   0x000f7e       data     extern E:\3.46\pic18-lt\cxx-framework\src\traditional\proc\p18f97j60.asm
                 BAUDCON2   0x000f7c       data     extern E:\3.46\pic18-lt\cxx-framework\src\traditional\proc\p18f97j60.asm
             BAUDCON2bits   0x000f7c       data     extern E:\3.46\pic18-lt\cxx-framework\src\traditional\proc\p18f97j60.asm
              BAUDCONbits   0x000f7e       data     extern E:\3.46\pic18-lt\cxx-framework\src\traditional\proc\p18f97j60.asm
                  BAUDCTL   0x000f7e       data     extern E:\3.46\pic18-lt\cxx-framework\src\traditional\proc\p18f97j60.asm
                 BAUDCTL1   0x000f7e       data     extern E:\3.46\pic18-lt\cxx-framework\src\traditional\proc\p18f97j60.asm
             BAUDCTL1bits   0x000f7e       data     extern E:\3.46\pic18-lt\cxx-framework\src\traditional\proc\p18f97j60.asm
                 BAUDCTL2   0x000f7c       data     extern E:\3.46\pic18-lt\cxx-framework\src\traditional\proc\p18f97j60.asm
             BAUDCTL2bits   0x000f7c       data     extern E:\3.46\pic18-lt\cxx-framework\src\traditional\proc\p18f97j60.asm
              BAUDCTLbits   0x000f7e       data     extern E:\3.46\pic18-lt\cxx-framework\src\traditional\proc\p18f97j60.asm
                      BSR   0x000fe0       data     extern E:\3.46\pic18-lt\cxx-framework\src\traditional\proc\p18f97j60.asm
             BufReadIndex   0x000e21       data     static C:\GIT-REPOS\Siebwalde\TrackController3.X\modbus\PetitModbus.c
                  CCP1CON   0x000fbd       data     extern E:\3.46\pic18-lt\cxx-framework\src\traditional\proc\p18f97j60.asm
              CCP1CONbits   0x000fbd       data     extern E:\3.46\pic18-lt\cxx-framework\src\traditional\proc\p18f97j60.asm
                  CCP2CON   0x000fba       data     extern E:\3.46\pic18-lt\cxx-framework\src\traditional\proc\p18f97j60.asm
              CCP2CONbits   0x000fba       data     extern E:\3.46\pic18-lt\cxx-framework\src\traditional\proc\p18f97j60.asm
                  CCP3CON   0x000fb7       data     extern E:\3.46\pic18-lt\cxx-framework\src\traditional\proc\p18f97j60.asm
              CCP3CONbits   0x000fb7       data     extern E:\3.46\pic18-lt\cxx-framework\src\traditional\proc\p18f97j60.asm
                  CCP4CON   0x000f73       data     extern E:\3.46\pic18-lt\cxx-framework\src\traditional\proc\p18f97j60.asm
              CCP4CONbits   0x000f73       data     extern E:\3.46\pic18-lt\cxx-framework\src\traditional\proc\p18f97j60.asm
                  CCP5CON   0x000f70       data     extern E:\3.46\pic18-lt\cxx-framework\src\traditional\proc\p18f97j60.asm
              CCP5CONbits   0x000f70       data     extern E:\3.46\pic18-lt\cxx-framework\src\traditional\proc\p18f97j60.asm
                    CCPR1   0x000fbe       data     extern E:\3.46\pic18-lt\cxx-framework\src\traditional\proc\p18f97j60.asm
                   CCPR1H   0x000fbf       data     extern E:\3.46\pic18-lt\cxx-framework\src\traditional\proc\p18f97j60.asm
                   CCPR1L   0x000fbe       data     extern E:\3.46\pic18-lt\cxx-framework\src\traditional\proc\p18f97j60.asm
                    CCPR2   0x000fbb       data     extern E:\3.46\pic18-lt\cxx-framework\src\traditional\proc\p18f97j60.asm
                   CCPR2H   0x000fbc       data     extern E:\3.46\pic18-lt\cxx-framework\src\traditional\proc\p18f97j60.asm
                   CCPR2L   0x000fbb       data     extern E:\3.46\pic18-lt\cxx-framework\src\traditional\proc\p18f97j60.asm
                    CCPR3   0x000fb8       data     extern E:\3.46\pic18-lt\cxx-framework\src\traditional\proc\p18f97j60.asm
                   CCPR3H   0x000fb9       data     extern E:\3.46\pic18-lt\cxx-framework\src\traditional\proc\p18f97j60.asm
                   CCPR3L   0x000fb8       data     extern E:\3.46\pic18-lt\cxx-framework\src\traditional\proc\p18f97j60.asm
                    CCPR4   0x000f74       data     extern E:\3.46\pic18-lt\cxx-framework\src\traditional\proc\p18f97j60.asm
                   CCPR4H   0x000f75       data     extern E:\3.46\pic18-lt\cxx-framework\src\traditional\proc\p18f97j60.asm
                   CCPR4L   0x000f74       data     extern E:\3.46\pic18-lt\cxx-framework\src\traditional\proc\p18f97j60.asm
                    CCPR5   0x000f71       data     extern E:\3.46\pic18-lt\cxx-framework\src\traditional\proc\p18f97j60.asm
                   CCPR5H   0x000f72       data     extern E:\3.46\pic18-lt\cxx-framework\src\traditional\proc\p18f97j60.asm
                   CCPR5L   0x000f71       data     extern E:\3.46\pic18-lt\cxx-framework\src\traditional\proc\p18f97j60.asm
                    CMCON   0x000fb4       data     extern E:\3.46\pic18-lt\cxx-framework\src\traditional\proc\p18f97j60.asm
                CMCONbits   0x000fb4       data     extern E:\3.46\pic18-lt\cxx-framework\src\traditional\proc\p18f97j60.asm
                      CRC   0x000f51       data     static C:\GIT-REPOS\Siebwalde\TrackController3.X\modbus\PetitModbus.c
                   CVRCON   0x000fb5       data     extern E:\3.46\pic18-lt\cxx-framework\src\traditional\proc\p18f97j60.asm
               CVRCONbits   0x000fb5       data     extern E:\3.46\pic18-lt\cxx-framework\src\traditional\proc\p18f97j60.asm
                     DDRA   0x000f92       data     extern E:\3.46\pic18-lt\cxx-framework\src\traditional\proc\p18f97j60.asm
                 DDRAbits   0x000f92       data     extern E:\3.46\pic18-lt\cxx-framework\src\traditional\proc\p18f97j60.asm
                     DDRB   0x000f93       data     extern E:\3.46\pic18-lt\cxx-framework\src\traditional\proc\p18f97j60.asm
                 DDRBbits   0x000f93       data     extern E:\3.46\pic18-lt\cxx-framework\src\traditional\proc\p18f97j60.asm
                     DDRC   0x000f94       data     extern E:\3.46\pic18-lt\cxx-framework\src\traditional\proc\p18f97j60.asm
                 DDRCbits   0x000f94       data     extern E:\3.46\pic18-lt\cxx-framework\src\traditional\proc\p18f97j60.asm
                     DDRD   0x000f95       data     extern E:\3.46\pic18-lt\cxx-framework\src\traditional\proc\p18f97j60.asm
                 DDRDbits   0x000f95       data     extern E:\3.46\pic18-lt\cxx-framework\src\traditional\proc\p18f97j60.asm
                     DDRE   0x000f96       data     extern E:\3.46\pic18-lt\cxx-framework\src\traditional\proc\p18f97j60.asm
                 DDREbits   0x000f96       data     extern E:\3.46\pic18-lt\cxx-framework\src\traditional\proc\p18f97j60.asm
                     DDRF   0x000f97       data     extern E:\3.46\pic18-lt\cxx-framework\src\traditional\proc\p18f97j60.asm
                 DDRFbits   0x000f97       data     extern E:\3.46\pic18-lt\cxx-framework\src\traditional\proc\p18f97j60.asm
                     DDRG   0x000f98       data     extern E:\3.46\pic18-lt\cxx-framework\src\traditional\proc\p18f97j60.asm
                 DDRGbits   0x000f98       data     extern E:\3.46\pic18-lt\cxx-framework\src\traditional\proc\p18f97j60.asm
                     DDRH   0x000f99       data     extern E:\3.46\pic18-lt\cxx-framework\src\traditional\proc\p18f97j60.asm
                 DDRHbits   0x000f99       data     extern E:\3.46\pic18-lt\cxx-framework\src\traditional\proc\p18f97j60.asm
                     DDRJ   0x000f9a       data     extern E:\3.46\pic18-lt\cxx-framework\src\traditional\proc\p18f97j60.asm
                 DDRJbits   0x000f9a       data     extern E:\3.46\pic18-lt\cxx-framework\src\traditional\proc\p18f97j60.asm
                     Data   0x000e48       data     static C:\GIT-REPOS\Siebwalde\TrackController3.X\modbus\PetitModbusPort.c
                     Data   0x000f50       data     static C:\GIT-REPOS\Siebwalde\TrackController3.X\modbus\PetitModbus.c
                  DataBuf   0x000f5a       data     static C:\GIT-REPOS\Siebwalde\TrackController3.X\modbus\PetitModbus.c
                  DataLen   0x000f5c       data     static C:\GIT-REPOS\Siebwalde\TrackController3.X\modbus\PetitModbus.c
             DummyCounter   0x000e46       data     static C:\GIT-REPOS\Siebwalde\TrackController3.X\modbus\PetitModbusPort.c
                  ECCP1AS   0x000fb6       data     extern E:\3.46\pic18-lt\cxx-framework\src\traditional\proc\p18f97j60.asm
              ECCP1ASbits   0x000fb6       data     extern E:\3.46\pic18-lt\cxx-framework\src\traditional\proc\p18f97j60.asm
                 ECCP1CON   0x000fbd       data     extern E:\3.46\pic18-lt\cxx-framework\src\traditional\proc\p18f97j60.asm
             ECCP1CONbits   0x000fbd       data     extern E:\3.46\pic18-lt\cxx-framework\src\traditional\proc\p18f97j60.asm
                 ECCP1DEL   0x000f79       data     extern E:\3.46\pic18-lt\cxx-framework\src\traditional\proc\p18f97j60.asm
             ECCP1DELbits   0x000f79       data     extern E:\3.46\pic18-lt\cxx-framework\src\traditional\proc\p18f97j60.asm
                  ECCP2AS   0x000f68       data     extern E:\3.46\pic18-lt\cxx-framework\src\traditional\proc\p18f97j60.asm
              ECCP2ASbits   0x000f68       data     extern E:\3.46\pic18-lt\cxx-framework\src\traditional\proc\p18f97j60.asm
                 ECCP2CON   0x000fba       data     extern E:\3.46\pic18-lt\cxx-framework\src\traditional\proc\p18f97j60.asm
             ECCP2CONbits   0x000fba       data     extern E:\3.46\pic18-lt\cxx-framework\src\traditional\proc\p18f97j60.asm
                 ECCP2DEL   0x000f67       data     extern E:\3.46\pic18-lt\cxx-framework\src\traditional\proc\p18f97j60.asm
             ECCP2DELbits   0x000f67       data     extern E:\3.46\pic18-lt\cxx-framework\src\traditional\proc\p18f97j60.asm
                  ECCP3AS   0x000f6a       data     extern E:\3.46\pic18-lt\cxx-framework\src\traditional\proc\p18f97j60.asm
              ECCP3ASbits   0x000f6a       data     extern E:\3.46\pic18-lt\cxx-framework\src\traditional\proc\p18f97j60.asm
                 ECCP3CON   0x000fb7       data     extern E:\3.46\pic18-lt\cxx-framework\src\traditional\proc\p18f97j60.asm
             ECCP3CONbits   0x000fb7       data     extern E:\3.46\pic18-lt\cxx-framework\src\traditional\proc\p18f97j60.asm
                 ECCP3DEL   0x000f69       data     extern E:\3.46\pic18-lt\cxx-framework\src\traditional\proc\p18f97j60.asm
             ECCP3DELbits   0x000f69       data     extern E:\3.46\pic18-lt\cxx-framework\src\traditional\proc\p18f97j60.asm
                    ECON1   0x000fd2       data     extern E:\3.46\pic18-lt\cxx-framework\src\traditional\proc\p18f97j60.asm
                ECON1bits   0x000fd2       data     extern E:\3.46\pic18-lt\cxx-framework\src\traditional\proc\p18f97j60.asm
                    ECON2   0x000efe       data     extern E:\3.46\pic18-lt\cxx-framework\src\traditional\proc\p18f97j60.asm
                ECON2bits   0x000efe       data     extern E:\3.46\pic18-lt\cxx-framework\src\traditional\proc\p18f97j60.asm
                    EDATA   0x000f61       data     extern E:\3.46\pic18-lt\cxx-framework\src\traditional\proc\p18f97j60.asm
                EDATAbits   0x000f61       data     extern E:\3.46\pic18-lt\cxx-framework\src\traditional\proc\p18f97j60.asm
                   EDMACS   0x000ef6       data     extern E:\3.46\pic18-lt\cxx-framework\src\traditional\proc\p18f97j60.asm
                  EDMACSH   0x000ef7       data     extern E:\3.46\pic18-lt\cxx-framework\src\traditional\proc\p18f97j60.asm
                  EDMACSL   0x000ef6       data     extern E:\3.46\pic18-lt\cxx-framework\src\traditional\proc\p18f97j60.asm
                  EDMADST   0x000ef4       data     extern E:\3.46\pic18-lt\cxx-framework\src\traditional\proc\p18f97j60.asm
                 EDMADSTH   0x000ef5       data     extern E:\3.46\pic18-lt\cxx-framework\src\traditional\proc\p18f97j60.asm
                 EDMADSTL   0x000ef4       data     extern E:\3.46\pic18-lt\cxx-framework\src\traditional\proc\p18f97j60.asm
                   EDMAND   0x000ef2       data     extern E:\3.46\pic18-lt\cxx-framework\src\traditional\proc\p18f97j60.asm
                  EDMANDH   0x000ef3       data     extern E:\3.46\pic18-lt\cxx-framework\src\traditional\proc\p18f97j60.asm
                  EDMANDL   0x000ef2       data     extern E:\3.46\pic18-lt\cxx-framework\src\traditional\proc\p18f97j60.asm
                   EDMAST   0x000ef0       data     extern E:\3.46\pic18-lt\cxx-framework\src\traditional\proc\p18f97j60.asm
                  EDMASTH   0x000ef1       data     extern E:\3.46\pic18-lt\cxx-framework\src\traditional\proc\p18f97j60.asm
                  EDMASTL   0x000ef0       data     extern E:\3.46\pic18-lt\cxx-framework\src\traditional\proc\p18f97j60.asm
                   EECON1   0x000fa6       data     extern E:\3.46\pic18-lt\cxx-framework\src\traditional\proc\p18f97j60.asm
               EECON1bits   0x000fa6       data     extern E:\3.46\pic18-lt\cxx-framework\src\traditional\proc\p18f97j60.asm
                   EECON2   0x000fa7       data     extern E:\3.46\pic18-lt\cxx-framework\src\traditional\proc\p18f97j60.asm
                  EFLOCON   0x000e97       data     extern E:\3.46\pic18-lt\cxx-framework\src\traditional\proc\p18f97j60.asm
              EFLOCONbits   0x000e97       data     extern E:\3.46\pic18-lt\cxx-framework\src\traditional\proc\p18f97j60.asm
                     EHT0   0x000ec0       data     extern E:\3.46\pic18-lt\cxx-framework\src\traditional\proc\p18f97j60.asm
                     EHT1   0x000ec1       data     extern E:\3.46\pic18-lt\cxx-framework\src\traditional\proc\p18f97j60.asm
                     EHT2   0x000ec2       data     extern E:\3.46\pic18-lt\cxx-framework\src\traditional\proc\p18f97j60.asm
                     EHT3   0x000ec3       data     extern E:\3.46\pic18-lt\cxx-framework\src\traditional\proc\p18f97j60.asm
                     EHT4   0x000ec4       data     extern E:\3.46\pic18-lt\cxx-framework\src\traditional\proc\p18f97j60.asm
                     EHT5   0x000ec5       data     extern E:\3.46\pic18-lt\cxx-framework\src\traditional\proc\p18f97j60.asm
                     EHT6   0x000ec6       data     extern E:\3.46\pic18-lt\cxx-framework\src\traditional\proc\p18f97j60.asm
                     EHT7   0x000ec7       data     extern E:\3.46\pic18-lt\cxx-framework\src\traditional\proc\p18f97j60.asm
                      EIE   0x000efb       data     extern E:\3.46\pic18-lt\cxx-framework\src\traditional\proc\p18f97j60.asm
                  EIEbits   0x000efb       data     extern E:\3.46\pic18-lt\cxx-framework\src\traditional\proc\p18f97j60.asm
                      EIR   0x000f60       data     extern E:\3.46\pic18-lt\cxx-framework\src\traditional\proc\p18f97j60.asm
                  EIRbits   0x000f60       data     extern E:\3.46\pic18-lt\cxx-framework\src\traditional\proc\p18f97j60.asm
                    EPAUS   0x000e98       data     extern E:\3.46\pic18-lt\cxx-framework\src\traditional\proc\p18f97j60.asm
                   EPAUSH   0x000e99       data     extern E:\3.46\pic18-lt\cxx-framework\src\traditional\proc\p18f97j60.asm
                   EPAUSL   0x000e98       data     extern E:\3.46\pic18-lt\cxx-framework\src\traditional\proc\p18f97j60.asm
                  EPKTCNT   0x000ed9       data     extern E:\3.46\pic18-lt\cxx-framework\src\traditional\proc\p18f97j60.asm
                    EPMCS   0x000ed0       data     extern E:\3.46\pic18-lt\cxx-framework\src\traditional\proc\p18f97j60.asm
                   EPMCSH   0x000ed1       data     extern E:\3.46\pic18-lt\cxx-framework\src\traditional\proc\p18f97j60.asm
                   EPMCSL   0x000ed0       data     extern E:\3.46\pic18-lt\cxx-framework\src\traditional\proc\p18f97j60.asm
                    EPMM0   0x000ec8       data     extern E:\3.46\pic18-lt\cxx-framework\src\traditional\proc\p18f97j60.asm
                    EPMM1   0x000ec9       data     extern E:\3.46\pic18-lt\cxx-framework\src\traditional\proc\p18f97j60.asm
                    EPMM2   0x000eca       data     extern E:\3.46\pic18-lt\cxx-framework\src\traditional\proc\p18f97j60.asm
                    EPMM3   0x000ecb       data     extern E:\3.46\pic18-lt\cxx-framework\src\traditional\proc\p18f97j60.asm
                    EPMM4   0x000ecc       data     extern E:\3.46\pic18-lt\cxx-framework\src\traditional\proc\p18f97j60.asm
                    EPMM5   0x000ecd       data     extern E:\3.46\pic18-lt\cxx-framework\src\traditional\proc\p18f97j60.asm
                    EPMM6   0x000ece       data     extern E:\3.46\pic18-lt\cxx-framework\src\traditional\proc\p18f97j60.asm
                    EPMM7   0x000ecf       data     extern E:\3.46\pic18-lt\cxx-framework\src\traditional\proc\p18f97j60.asm
                     EPMO   0x000ed4       data     extern E:\3.46\pic18-lt\cxx-framework\src\traditional\proc\p18f97j60.asm
                    EPMOH   0x000ed5       data     extern E:\3.46\pic18-lt\cxx-framework\src\traditional\proc\p18f97j60.asm
                    EPMOL   0x000ed4       data     extern E:\3.46\pic18-lt\cxx-framework\src\traditional\proc\p18f97j60.asm
                    ERDPT   0x000f7a       data     extern E:\3.46\pic18-lt\cxx-framework\src\traditional\proc\p18f97j60.asm
                   ERDPTH   0x000f7b       data     extern E:\3.46\pic18-lt\cxx-framework\src\traditional\proc\p18f97j60.asm
                   ERDPTL   0x000f7a       data     extern E:\3.46\pic18-lt\cxx-framework\src\traditional\proc\p18f97j60.asm
                  ERXFCON   0x000ed8       data     extern E:\3.46\pic18-lt\cxx-framework\src\traditional\proc\p18f97j60.asm
              ERXFCONbits   0x000ed8       data     extern E:\3.46\pic18-lt\cxx-framework\src\traditional\proc\p18f97j60.asm
                    ERXND   0x000eea       data     extern E:\3.46\pic18-lt\cxx-framework\src\traditional\proc\p18f97j60.asm
                   ERXNDH   0x000eeb       data     extern E:\3.46\pic18-lt\cxx-framework\src\traditional\proc\p18f97j60.asm
                   ERXNDL   0x000eea       data     extern E:\3.46\pic18-lt\cxx-framework\src\traditional\proc\p18f97j60.asm
                  ERXRDPT   0x000eec       data     extern E:\3.46\pic18-lt\cxx-framework\src\traditional\proc\p18f97j60.asm
                 ERXRDPTH   0x000eed       data     extern E:\3.46\pic18-lt\cxx-framework\src\traditional\proc\p18f97j60.asm
                 ERXRDPTL   0x000eec       data     extern E:\3.46\pic18-lt\cxx-framework\src\traditional\proc\p18f97j60.asm
                    ERXST   0x000ee8       data     extern E:\3.46\pic18-lt\cxx-framework\src\traditional\proc\p18f97j60.asm
                   ERXSTH   0x000ee9       data     extern E:\3.46\pic18-lt\cxx-framework\src\traditional\proc\p18f97j60.asm
                   ERXSTL   0x000ee8       data     extern E:\3.46\pic18-lt\cxx-framework\src\traditional\proc\p18f97j60.asm
                  ERXWRPT   0x000eee       data     extern E:\3.46\pic18-lt\cxx-framework\src\traditional\proc\p18f97j60.asm
                 ERXWRPTH   0x000eef       data     extern E:\3.46\pic18-lt\cxx-framework\src\traditional\proc\p18f97j60.asm
                 ERXWRPTL   0x000eee       data     extern E:\3.46\pic18-lt\cxx-framework\src\traditional\proc\p18f97j60.asm
                    ESTAT   0x000efd       data     extern E:\3.46\pic18-lt\cxx-framework\src\traditional\proc\p18f97j60.asm
                ESTATbits   0x000efd       data     extern E:\3.46\pic18-lt\cxx-framework\src\traditional\proc\p18f97j60.asm
                    ETXND   0x000ee6       data     extern E:\3.46\pic18-lt\cxx-framework\src\traditional\proc\p18f97j60.asm
                   ETXNDH   0x000ee7       data     extern E:\3.46\pic18-lt\cxx-framework\src\traditional\proc\p18f97j60.asm
                   ETXNDL   0x000ee6       data     extern E:\3.46\pic18-lt\cxx-framework\src\traditional\proc\p18f97j60.asm
                    ETXST   0x000ee4       data     extern E:\3.46\pic18-lt\cxx-framework\src\traditional\proc\p18f97j60.asm
                   ETXSTH   0x000ee5       data     extern E:\3.46\pic18-lt\cxx-framework\src\traditional\proc\p18f97j60.asm
                   ETXSTL   0x000ee4       data     extern E:\3.46\pic18-lt\cxx-framework\src\traditional\proc\p18f97j60.asm
                    EWRPT   0x000ee2       data     extern E:\3.46\pic18-lt\cxx-framework\src\traditional\proc\p18f97j60.asm
                   EWRPTH   0x000ee3       data     extern E:\3.46\pic18-lt\cxx-framework\src\traditional\proc\p18f97j60.asm
                   EWRPTL   0x000ee2       data     extern E:\3.46\pic18-lt\cxx-framework\src\traditional\proc\p18f97j60.asm
Enable_State_Machine_Update   0x0001e5       data     extern C:\GIT-REPOS\Siebwalde\TrackController3.X\FiddleYard.c
                     FSR0   0x000fe9       data     extern E:\3.46\pic18-lt\cxx-framework\src\traditional\proc\p18f97j60.asm
                    FSR0H   0x000fea       data     extern E:\3.46\pic18-lt\cxx-framework\src\traditional\proc\p18f97j60.asm
                    FSR0L   0x000fe9       data     extern E:\3.46\pic18-lt\cxx-framework\src\traditional\proc\p18f97j60.asm
                     FSR1   0x000fe1       data     extern E:\3.46\pic18-lt\cxx-framework\src\traditional\proc\p18f97j60.asm
                    FSR1H   0x000fe2       data     extern E:\3.46\pic18-lt\cxx-framework\src\traditional\proc\p18f97j60.asm
                    FSR1L   0x000fe1       data     extern E:\3.46\pic18-lt\cxx-framework\src\traditional\proc\p18f97j60.asm
                     FSR2   0x000fd9       data     extern E:\3.46\pic18-lt\cxx-framework\src\traditional\proc\p18f97j60.asm
                    FSR2H   0x000fda       data     extern E:\3.46\pic18-lt\cxx-framework\src\traditional\proc\p18f97j60.asm
                    FSR2L   0x000fd9       data     extern E:\3.46\pic18-lt\cxx-framework\src\traditional\proc\p18f97j60.asm
                 Function   0x000f59       data     static C:\GIT-REPOS\Siebwalde\TrackController3.X\modbus\PetitModbus.c
                    INDF0   0x000fef       data     extern E:\3.46\pic18-lt\cxx-framework\src\traditional\proc\p18f97j60.asm
                    INDF1   0x000fe7       data     extern E:\3.46\pic18-lt\cxx-framework\src\traditional\proc\p18f97j60.asm
                    INDF2   0x000fdf       data     extern E:\3.46\pic18-lt\cxx-framework\src\traditional\proc\p18f97j60.asm
                   INTCON   0x000ff2       data     extern E:\3.46\pic18-lt\cxx-framework\src\traditional\proc\p18f97j60.asm
                  INTCON2   0x000ff1       data     extern E:\3.46\pic18-lt\cxx-framework\src\traditional\proc\p18f97j60.asm
              INTCON2bits   0x000ff1       data     extern E:\3.46\pic18-lt\cxx-framework\src\traditional\proc\p18f97j60.asm
                  INTCON3   0x000ff0       data     extern E:\3.46\pic18-lt\cxx-framework\src\traditional\proc\p18f97j60.asm
              INTCON3bits   0x000ff0       data     extern E:\3.46\pic18-lt\cxx-framework\src\traditional\proc\p18f97j60.asm
               INTCONbits   0x000ff2       data     extern E:\3.46\pic18-lt\cxx-framework\src\traditional\proc\p18f97j60.asm
                     IPR1   0x000f9f       data     extern E:\3.46\pic18-lt\cxx-framework\src\traditional\proc\p18f97j60.asm
                 IPR1bits   0x000f9f       data     extern E:\3.46\pic18-lt\cxx-framework\src\traditional\proc\p18f97j60.asm
                     IPR2   0x000fa2       data     extern E:\3.46\pic18-lt\cxx-framework\src\traditional\proc\p18f97j60.asm
                 IPR2bits   0x000fa2       data     extern E:\3.46\pic18-lt\cxx-framework\src\traditional\proc\p18f97j60.asm
                     IPR3   0x000fa5       data     extern E:\3.46\pic18-lt\cxx-framework\src\traditional\proc\p18f97j60.asm
                 IPR3bits   0x000fa5       data     extern E:\3.46\pic18-lt\cxx-framework\src\traditional\proc\p18f97j60.asm
                     LATA   0x000f89       data     extern E:\3.46\pic18-lt\cxx-framework\src\traditional\proc\p18f97j60.asm
                 LATAbits   0x000f89       data     extern E:\3.46\pic18-lt\cxx-framework\src\traditional\proc\p18f97j60.asm
                     LATB   0x000f8a       data     extern E:\3.46\pic18-lt\cxx-framework\src\traditional\proc\p18f97j60.asm
                 LATBbits   0x000f8a       data     extern E:\3.46\pic18-lt\cxx-framework\src\traditional\proc\p18f97j60.asm
                     LATC   0x000f8b       data     extern E:\3.46\pic18-lt\cxx-framework\src\traditional\proc\p18f97j60.asm
                 LATCbits   0x000f8b       data     extern E:\3.46\pic18-lt\cxx-framework\src\traditional\proc\p18f97j60.asm
                     LATD   0x000f8c       data     extern E:\3.46\pic18-lt\cxx-framework\src\traditional\proc\p18f97j60.asm
                 LATDbits   0x000f8c       data     extern E:\3.46\pic18-lt\cxx-framework\src\traditional\proc\p18f97j60.asm
                     LATE   0x000f8d       data     extern E:\3.46\pic18-lt\cxx-framework\src\traditional\proc\p18f97j60.asm
                 LATEbits   0x000f8d       data     extern E:\3.46\pic18-lt\cxx-framework\src\traditional\proc\p18f97j60.asm
                     LATF   0x000f8e       data     extern E:\3.46\pic18-lt\cxx-framework\src\traditional\proc\p18f97j60.asm
                 LATFbits   0x000f8e       data     extern E:\3.46\pic18-lt\cxx-framework\src\traditional\proc\p18f97j60.asm
                     LATG   0x000f8f       data     extern E:\3.46\pic18-lt\cxx-framework\src\traditional\proc\p18f97j60.asm
                 LATGbits   0x000f8f       data     extern E:\3.46\pic18-lt\cxx-framework\src\traditional\proc\p18f97j60.asm
                     LATH   0x000f90       data     extern E:\3.46\pic18-lt\cxx-framework\src\traditional\proc\p18f97j60.asm
                 LATHbits   0x000f90       data     extern E:\3.46\pic18-lt\cxx-framework\src\traditional\proc\p18f97j60.asm
                     LATJ   0x000f91       data     extern E:\3.46\pic18-lt\cxx-framework\src\traditional\proc\p18f97j60.asm
                 LATJbits   0x000f91       data     extern E:\3.46\pic18-lt\cxx-framework\src\traditional\proc\p18f97j60.asm
                   Length   0x000e44       data     static C:\GIT-REPOS\Siebwalde\TrackController3.X\modbus\PetitModbusPort.c
                   MAADR1   0x000e84       data     extern E:\3.46\pic18-lt\cxx-framework\src\traditional\proc\p18f97j60.asm
                   MAADR2   0x000e85       data     extern E:\3.46\pic18-lt\cxx-framework\src\traditional\proc\p18f97j60.asm
                   MAADR3   0x000e82       data     extern E:\3.46\pic18-lt\cxx-framework\src\traditional\proc\p18f97j60.asm
                   MAADR4   0x000e83       data     extern E:\3.46\pic18-lt\cxx-framework\src\traditional\proc\p18f97j60.asm
                   MAADR5   0x000e80       data     extern E:\3.46\pic18-lt\cxx-framework\src\traditional\proc\p18f97j60.asm
                   MAADR6   0x000e81       data     extern E:\3.46\pic18-lt\cxx-framework\src\traditional\proc\p18f97j60.asm
                  MABBIPG   0x000ea4       data     extern E:\3.46\pic18-lt\cxx-framework\src\traditional\proc\p18f97j60.asm
              MABBIPGbits   0x000ea4       data     extern E:\3.46\pic18-lt\cxx-framework\src\traditional\proc\p18f97j60.asm
                   MACON1   0x000ea0       data     extern E:\3.46\pic18-lt\cxx-framework\src\traditional\proc\p18f97j60.asm
               MACON1bits   0x000ea0       data     extern E:\3.46\pic18-lt\cxx-framework\src\traditional\proc\p18f97j60.asm
                   MACON3   0x000ea2       data     extern E:\3.46\pic18-lt\cxx-framework\src\traditional\proc\p18f97j60.asm
               MACON3bits   0x000ea2       data     extern E:\3.46\pic18-lt\cxx-framework\src\traditional\proc\p18f97j60.asm
                   MACON4   0x000ea3       data     extern E:\3.46\pic18-lt\cxx-framework\src\traditional\proc\p18f97j60.asm
               MACON4bits   0x000ea3       data     extern E:\3.46\pic18-lt\cxx-framework\src\traditional\proc\p18f97j60.asm
                    MAIPG   0x000ea6       data     extern E:\3.46\pic18-lt\cxx-framework\src\traditional\proc\p18f97j60.asm
                   MAIPGH   0x000ea7       data     extern E:\3.46\pic18-lt\cxx-framework\src\traditional\proc\p18f97j60.asm
                   MAIPGL   0x000ea6       data     extern E:\3.46\pic18-lt\cxx-framework\src\traditional\proc\p18f97j60.asm
                   MAMXFL   0x000eaa       data     extern E:\3.46\pic18-lt\cxx-framework\src\traditional\proc\p18f97j60.asm
                  MAMXFLH   0x000eab       data     extern E:\3.46\pic18-lt\cxx-framework\src\traditional\proc\p18f97j60.asm
                  MAMXFLL   0x000eaa       data     extern E:\3.46\pic18-lt\cxx-framework\src\traditional\proc\p18f97j60.asm
        MASTER_SLAVE_DATA   0x000e00       data     static C:\GIT-REPOS\Siebwalde\TrackController3.X\modbus\PetitModbus.c
                   MEMCON   0x000f9c       data     extern E:\3.46\pic18-lt\cxx-framework\src\traditional\proc\p18f97j60.asm
               MEMCONbits   0x000f9c       data     extern E:\3.46\pic18-lt\cxx-framework\src\traditional\proc\p18f97j60.asm
                    MICMD   0x000eb2       data     extern E:\3.46\pic18-lt\cxx-framework\src\traditional\proc\p18f97j60.asm
                MICMDbits   0x000eb2       data     extern E:\3.46\pic18-lt\cxx-framework\src\traditional\proc\p18f97j60.asm
                     MIRD   0x000eb8       data     extern E:\3.46\pic18-lt\cxx-framework\src\traditional\proc\p18f97j60.asm
                    MIRDH   0x000eb9       data     extern E:\3.46\pic18-lt\cxx-framework\src\traditional\proc\p18f97j60.asm
                    MIRDL   0x000eb8       data     extern E:\3.46\pic18-lt\cxx-framework\src\traditional\proc\p18f97j60.asm
                 MIREGADR   0x000eb4       data     extern E:\3.46\pic18-lt\cxx-framework\src\traditional\proc\p18f97j60.asm
                   MISTAT   0x000e8a       data     extern E:\3.46\pic18-lt\cxx-framework\src\traditional\proc\p18f97j60.asm
               MISTATbits   0x000e8a       data     extern E:\3.46\pic18-lt\cxx-framework\src\traditional\proc\p18f97j60.asm
                     MIWR   0x000eb6       data     extern E:\3.46\pic18-lt\cxx-framework\src\traditional\proc\p18f97j60.asm
                    MIWRH   0x000eb7       data     extern E:\3.46\pic18-lt\cxx-framework\src\traditional\proc\p18f97j60.asm
                    MIWRL   0x000eb6       data     extern E:\3.46\pic18-lt\cxx-framework\src\traditional\proc\p18f97j60.asm
                   OSCCON   0x000fd3       data     extern E:\3.46\pic18-lt\cxx-framework\src\traditional\proc\p18f97j60.asm
               OSCCONbits   0x000fd3       data     extern E:\3.46\pic18-lt\cxx-framework\src\traditional\proc\p18f97j60.asm
                  OSCTUNE   0x000f9b       data     extern E:\3.46\pic18-lt\cxx-framework\src\traditional\proc\p18f97j60.asm
              OSCTUNEbits   0x000f9b       data     extern E:\3.46\pic18-lt\cxx-framework\src\traditional\proc\p18f97j60.asm
                       PC   0x000ff9       data     extern E:\3.46\pic18-lt\cxx-framework\src\traditional\proc\p18f97j60.asm
                      PCL   0x000ff9       data     extern E:\3.46\pic18-lt\cxx-framework\src\traditional\proc\p18f97j60.asm
                   PCLATH   0x000ffa       data     extern E:\3.46\pic18-lt\cxx-framework\src\traditional\proc\p18f97j60.asm
                   PCLATU   0x000ffb       data     extern E:\3.46\pic18-lt\cxx-framework\src\traditional\proc\p18f97j60.asm
                     PIE1   0x000f9d       data     extern E:\3.46\pic18-lt\cxx-framework\src\traditional\proc\p18f97j60.asm
                 PIE1bits   0x000f9d       data     extern E:\3.46\pic18-lt\cxx-framework\src\traditional\proc\p18f97j60.asm
                     PIE2   0x000fa0       data     extern E:\3.46\pic18-lt\cxx-framework\src\traditional\proc\p18f97j60.asm
                 PIE2bits   0x000fa0       data     extern E:\3.46\pic18-lt\cxx-framework\src\traditional\proc\p18f97j60.asm
                     PIE3   0x000fa3       data     extern E:\3.46\pic18-lt\cxx-framework\src\traditional\proc\p18f97j60.asm
                 PIE3bits   0x000fa3       data     extern E:\3.46\pic18-lt\cxx-framework\src\traditional\proc\p18f97j60.asm
                     PIR1   0x000f9e       data     extern E:\3.46\pic18-lt\cxx-framework\src\traditional\proc\p18f97j60.asm
                 PIR1bits   0x000f9e       data     extern E:\3.46\pic18-lt\cxx-framework\src\traditional\proc\p18f97j60.asm
                     PIR2   0x000fa1       data     extern E:\3.46\pic18-lt\cxx-framework\src\traditional\proc\p18f97j60.asm
                 PIR2bits   0x000fa1       data     extern E:\3.46\pic18-lt\cxx-framework\src\traditional\proc\p18f97j60.asm
                     PIR3   0x000fa4       data     extern E:\3.46\pic18-lt\cxx-framework\src\traditional\proc\p18f97j60.asm
                 PIR3bits   0x000fa4       data     extern E:\3.46\pic18-lt\cxx-framework\src\traditional\proc\p18f97j60.asm
                   PLUSW0   0x000feb       data     extern E:\3.46\pic18-lt\cxx-framework\src\traditional\proc\p18f97j60.asm
                   PLUSW1   0x000fe3       data     extern E:\3.46\pic18-lt\cxx-framework\src\traditional\proc\p18f97j60.asm
                   PLUSW2   0x000fdb       data     extern E:\3.46\pic18-lt\cxx-framework\src\traditional\proc\p18f97j60.asm
                    PORTA   0x000f80       data     extern E:\3.46\pic18-lt\cxx-framework\src\traditional\proc\p18f97j60.asm
                PORTAbits   0x000f80       data     extern E:\3.46\pic18-lt\cxx-framework\src\traditional\proc\p18f97j60.asm
                    PORTB   0x000f81       data     extern E:\3.46\pic18-lt\cxx-framework\src\traditional\proc\p18f97j60.asm
                PORTBbits   0x000f81       data     extern E:\3.46\pic18-lt\cxx-framework\src\traditional\proc\p18f97j60.asm
                    PORTC   0x000f82       data     extern E:\3.46\pic18-lt\cxx-framework\src\traditional\proc\p18f97j60.asm
                PORTCbits   0x000f82       data     extern E:\3.46\pic18-lt\cxx-framework\src\traditional\proc\p18f97j60.asm
                    PORTD   0x000f83       data     extern E:\3.46\pic18-lt\cxx-framework\src\traditional\proc\p18f97j60.asm
                PORTDbits   0x000f83       data     extern E:\3.46\pic18-lt\cxx-framework\src\traditional\proc\p18f97j60.asm
                    PORTE   0x000f84       data     extern E:\3.46\pic18-lt\cxx-framework\src\traditional\proc\p18f97j60.asm
                PORTEbits   0x000f84       data     extern E:\3.46\pic18-lt\cxx-framework\src\traditional\proc\p18f97j60.asm
                    PORTF   0x000f85       data     extern E:\3.46\pic18-lt\cxx-framework\src\traditional\proc\p18f97j60.asm
                PORTFbits   0x000f85       data     extern E:\3.46\pic18-lt\cxx-framework\src\traditional\proc\p18f97j60.asm
                    PORTG   0x000f86       data     extern E:\3.46\pic18-lt\cxx-framework\src\traditional\proc\p18f97j60.asm
                PORTGbits   0x000f86       data     extern E:\3.46\pic18-lt\cxx-framework\src\traditional\proc\p18f97j60.asm
                    PORTH   0x000f87       data     extern E:\3.46\pic18-lt\cxx-framework\src\traditional\proc\p18f97j60.asm
                PORTHbits   0x000f87       data     extern E:\3.46\pic18-lt\cxx-framework\src\traditional\proc\p18f97j60.asm
                    PORTJ   0x000f88       data     extern E:\3.46\pic18-lt\cxx-framework\src\traditional\proc\p18f97j60.asm
                PORTJbits   0x000f88       data     extern E:\3.46\pic18-lt\cxx-framework\src\traditional\proc\p18f97j60.asm
                 POSTDEC0   0x000fed       data     extern E:\3.46\pic18-lt\cxx-framework\src\traditional\proc\p18f97j60.asm
                 POSTDEC1   0x000fe5       data     extern E:\3.46\pic18-lt\cxx-framework\src\traditional\proc\p18f97j60.asm
                 POSTDEC2   0x000fdd       data     extern E:\3.46\pic18-lt\cxx-framework\src\traditional\proc\p18f97j60.asm
                 POSTINC0   0x000fee       data     extern E:\3.46\pic18-lt\cxx-framework\src\traditional\proc\p18f97j60.asm
                 POSTINC1   0x000fe6       data     extern E:\3.46\pic18-lt\cxx-framework\src\traditional\proc\p18f97j60.asm
                 POSTINC2   0x000fde       data     extern E:\3.46\pic18-lt\cxx-framework\src\traditional\proc\p18f97j60.asm
                      PR2   0x000fcb       data     extern E:\3.46\pic18-lt\cxx-framework\src\traditional\proc\p18f97j60.asm
                      PR4   0x000f77       data     extern E:\3.46\pic18-lt\cxx-framework\src\traditional\proc\p18f97j60.asm
                  PREINC0   0x000fec       data     extern E:\3.46\pic18-lt\cxx-framework\src\traditional\proc\p18f97j60.asm
                  PREINC1   0x000fe4       data     extern E:\3.46\pic18-lt\cxx-framework\src\traditional\proc\p18f97j60.asm
                  PREINC2   0x000fdc       data     extern E:\3.46\pic18-lt\cxx-framework\src\traditional\proc\p18f97j60.asm
                     PROD   0x000ff3       data     extern E:\3.46\pic18-lt\cxx-framework\src\traditional\proc\p18f97j60.asm
                    PRODH   0x000ff4       data     extern E:\3.46\pic18-lt\cxx-framework\src\traditional\proc\p18f97j60.asm
                    PRODL   0x000ff3       data     extern E:\3.46\pic18-lt\cxx-framework\src\traditional\proc\p18f97j60.asm
                   PSPCON   0x000fb0       data     extern E:\3.46\pic18-lt\cxx-framework\src\traditional\proc\p18f97j60.asm
               PSPCONbits   0x000fb0       data     extern E:\3.46\pic18-lt\cxx-framework\src\traditional\proc\p18f97j60.asm
PetitExpectedReceiveCount   0x000e15       data     static C:\GIT-REPOS\Siebwalde\TrackController3.X\modbus\PetitModbus.c
    PetitModbusTimerValue   0x000e0d       data     extern C:\GIT-REPOS\Siebwalde\TrackController3.X\modbus\PetitModbus.c
       PetitReceiveBuffer   0x000e29       data     extern C:\GIT-REPOS\Siebwalde\TrackController3.X\modbus\PetitModbusPort.c
      PetitReceiveCounter   0x000e7a       data     extern C:\GIT-REPOS\Siebwalde\TrackController3.X\modbus\PetitModbusPort.c
  Petit_NumberOfRegisters   0x000e27       data     static C:\GIT-REPOS\Siebwalde\TrackController3.X\modbus\PetitModbus.c
  Petit_NumberOfRegisters   0x000e1d       data     static C:\GIT-REPOS\Siebwalde\TrackController3.X\modbus\PetitModbus.c
Petit_NumberOfRegistersBytes   0x000e1b       data     static C:\GIT-REPOS\Siebwalde\TrackController3.X\modbus\PetitModbus.c
Petit_ReceiveBufferControl   0x000e17       data     static C:\GIT-REPOS\Siebwalde\TrackController3.X\modbus\PetitModbus.c
           Petit_Rx_CRC16   0x000e09       data     extern C:\GIT-REPOS\Siebwalde\TrackController3.X\modbus\PetitModbus.c
            Petit_Rx_Data   0x000f34       data     extern C:\GIT-REPOS\Siebwalde\TrackController3.X\modbus\PetitModbus.c
  Petit_Rx_Data_Available   0x000e0c       data     extern C:\GIT-REPOS\Siebwalde\TrackController3.X\modbus\PetitModbus.c
           Petit_Rx_State   0x000e0b       data     extern C:\GIT-REPOS\Siebwalde\TrackController3.X\modbus\PetitModbus.c
       Petit_StartAddress   0x000e25       data     static C:\GIT-REPOS\Siebwalde\TrackController3.X\modbus\PetitModbus.c
       Petit_StartAddress   0x000e19       data     static C:\GIT-REPOS\Siebwalde\TrackController3.X\modbus\PetitModbus.c
             Petit_Tx_Buf   0x000f1c       data     extern C:\GIT-REPOS\Siebwalde\TrackController3.X\modbus\PetitModbus.c
        Petit_Tx_Buf_Size   0x000e07       data     extern C:\GIT-REPOS\Siebwalde\TrackController3.X\modbus\PetitModbus.c
           Petit_Tx_CRC16   0x000e04       data     extern C:\GIT-REPOS\Siebwalde\TrackController3.X\modbus\PetitModbus.c
         Petit_Tx_Current   0x000e02       data     extern C:\GIT-REPOS\Siebwalde\TrackController3.X\modbus\PetitModbus.c
            Petit_Tx_Data   0x000f00       data     extern C:\GIT-REPOS\Siebwalde\TrackController3.X\modbus\PetitModbus.c
           Petit_Tx_State   0x000e06       data     extern C:\GIT-REPOS\Siebwalde\TrackController3.X\modbus\PetitModbus.c
                  Petit_i   0x000e1f       data     static C:\GIT-REPOS\Siebwalde\TrackController3.X\modbus\PetitModbus.c
                  Petit_i   0x000f55       data     static C:\GIT-REPOS\Siebwalde\TrackController3.X\modbus\PetitModbus.c
                     RCON   0x000fd0       data     extern E:\3.46\pic18-lt\cxx-framework\src\traditional\proc\p18f97j60.asm
                 RCONbits   0x000fd0       data     extern E:\3.46\pic18-lt\cxx-framework\src\traditional\proc\p18f97j60.asm
                    RCREG   0x000fae       data     extern E:\3.46\pic18-lt\cxx-framework\src\traditional\proc\p18f97j60.asm
                   RCREG1   0x000fae       data     extern E:\3.46\pic18-lt\cxx-framework\src\traditional\proc\p18f97j60.asm
                   RCREG2   0x000f6e       data     extern E:\3.46\pic18-lt\cxx-framework\src\traditional\proc\p18f97j60.asm
                    RCSTA   0x000fab       data     extern E:\3.46\pic18-lt\cxx-framework\src\traditional\proc\p18f97j60.asm
                   RCSTA1   0x000fab       data     extern E:\3.46\pic18-lt\cxx-framework\src\traditional\proc\p18f97j60.asm
               RCSTA1bits   0x000fab       data     extern E:\3.46\pic18-lt\cxx-framework\src\traditional\proc\p18f97j60.asm
                   RCSTA2   0x000f6b       data     extern E:\3.46\pic18-lt\cxx-framework\src\traditional\proc\p18f97j60.asm
               RCSTA2bits   0x000f6b       data     extern E:\3.46\pic18-lt\cxx-framework\src\traditional\proc\p18f97j60.asm
                RCSTAbits   0x000fab       data     extern E:\3.46\pic18-lt\cxx-framework\src\traditional\proc\p18f97j60.asm
                  RegData   0x000e23       data     static C:\GIT-REPOS\Siebwalde\TrackController3.X\modbus\PetitModbus.c
                   Result   0x000f54       data     static C:\GIT-REPOS\Siebwalde\TrackController3.X\modbus\PetitModbus.c
                     SIGN   0x000000       data     extern E:\3.46\pic18-lt\cxx-framework\src\traditional\math\cmath18.asm
                    SPBRG   0x000faf       data     extern E:\3.46\pic18-lt\cxx-framework\src\traditional\proc\p18f97j60.asm
                   SPBRG1   0x000faf       data     extern E:\3.46\pic18-lt\cxx-framework\src\traditional\proc\p18f97j60.asm
                   SPBRG2   0x000f6f       data     extern E:\3.46\pic18-lt\cxx-framework\src\traditional\proc\p18f97j60.asm
                   SPBRGH   0x000f7f       data     extern E:\3.46\pic18-lt\cxx-framework\src\traditional\proc\p18f97j60.asm
                  SPBRGH1   0x000f7f       data     extern E:\3.46\pic18-lt\cxx-framework\src\traditional\proc\p18f97j60.asm
                  SPBRGH2   0x000f7d       data     extern E:\3.46\pic18-lt\cxx-framework\src\traditional\proc\p18f97j60.asm
                  SSP1ADD   0x000fc8       data     extern E:\3.46\pic18-lt\cxx-framework\src\traditional\proc\p18f97j60.asm
                  SSP1BUF   0x000fc9       data     extern E:\3.46\pic18-lt\cxx-framework\src\traditional\proc\p18f97j60.asm
                 SSP1CON1   0x000fc6       data     extern E:\3.46\pic18-lt\cxx-framework\src\traditional\proc\p18f97j60.asm
             SSP1CON1bits   0x000fc6       data     extern E:\3.46\pic18-lt\cxx-framework\src\traditional\proc\p18f97j60.asm
                 SSP1CON2   0x000fc5       data     extern E:\3.46\pic18-lt\cxx-framework\src\traditional\proc\p18f97j60.asm
             SSP1CON2bits   0x000fc5       data     extern E:\3.46\pic18-lt\cxx-framework\src\traditional\proc\p18f97j60.asm
                 SSP1STAT   0x000fc7       data     extern E:\3.46\pic18-lt\cxx-framework\src\traditional\proc\p18f97j60.asm
             SSP1STATbits   0x000fc7       data     extern E:\3.46\pic18-lt\cxx-framework\src\traditional\proc\p18f97j60.asm
                  SSP2ADD   0x000f65       data     extern E:\3.46\pic18-lt\cxx-framework\src\traditional\proc\p18f97j60.asm
                  SSP2BUF   0x000f66       data     extern E:\3.46\pic18-lt\cxx-framework\src\traditional\proc\p18f97j60.asm
                 SSP2CON1   0x000f63       data     extern E:\3.46\pic18-lt\cxx-framework\src\traditional\proc\p18f97j60.asm
             SSP2CON1bits   0x000f63       data     extern E:\3.46\pic18-lt\cxx-framework\src\traditional\proc\p18f97j60.asm
                 SSP2CON2   0x000f62       data     extern E:\3.46\pic18-lt\cxx-framework\src\traditional\proc\p18f97j60.asm
             SSP2CON2bits   0x000f62       data     extern E:\3.46\pic18-lt\cxx-framework\src\traditional\proc\p18f97j60.asm
                 SSP2STAT   0x000f64       data     extern E:\3.46\pic18-lt\cxx-framework\src\traditional\proc\p18f97j60.asm
             SSP2STATbits   0x000f64       data     extern E:\3.46\pic18-lt\cxx-framework\src\traditional\proc\p18f97j60.asm
                   SSPADD   0x000fc8       data     extern E:\3.46\pic18-lt\cxx-framework\src\traditional\proc\p18f97j60.asm
                   SSPBUF   0x000fc9       data     extern E:\3.46\pic18-lt\cxx-framework\src\traditional\proc\p18f97j60.asm
                  SSPCON1   0x000fc6       data     extern E:\3.46\pic18-lt\cxx-framework\src\traditional\proc\p18f97j60.asm
              SSPCON1bits   0x000fc6       data     extern E:\3.46\pic18-lt\cxx-framework\src\traditional\proc\p18f97j60.asm
                  SSPCON2   0x000fc5       data     extern E:\3.46\pic18-lt\cxx-framework\src\traditional\proc\p18f97j60.asm
              SSPCON2bits   0x000fc5       data     extern E:\3.46\pic18-lt\cxx-framework\src\traditional\proc\p18f97j60.asm
                  SSPSTAT   0x000fc7       data     extern E:\3.46\pic18-lt\cxx-framework\src\traditional\proc\p18f97j60.asm
              SSPSTATbits   0x000fc7       data     extern E:\3.46\pic18-lt\cxx-framework\src\traditional\proc\p18f97j60.asm
                   STATUS   0x000fd8       data     extern E:\3.46\pic18-lt\cxx-framework\src\traditional\proc\p18f97j60.asm
               STATUSbits   0x000fd8       data     extern E:\3.46\pic18-lt\cxx-framework\src\traditional\proc\p18f97j60.asm
                   STKPTR   0x000ffc       data     extern E:\3.46\pic18-lt\cxx-framework\src\traditional\proc\p18f97j60.asm
               STKPTRbits   0x000ffc       data     extern E:\3.46\pic18-lt\cxx-framework\src\traditional\proc\p18f97j60.asm
SlaveAnswerTimeoutCounter   0x000e0f       data     extern C:\GIT-REPOS\Siebwalde\TrackController3.X\modbus\PetitModbus.c
                SlaveInfo   0x000195       data     static C:\GIT-REPOS\Siebwalde\TrackController3.X\FiddleYard.c
State_Machine_Update_Counter   0x0001e6       data     extern C:\GIT-REPOS\Siebwalde\TrackController3.X\FiddleYard.c
                    T0CON   0x000fd5       data     extern E:\3.46\pic18-lt\cxx-framework\src\traditional\proc\p18f97j60.asm
                T0CONbits   0x000fd5       data     extern E:\3.46\pic18-lt\cxx-framework\src\traditional\proc\p18f97j60.asm
                    T1CON   0x000fcd       data     extern E:\3.46\pic18-lt\cxx-framework\src\traditional\proc\p18f97j60.asm
                T1CONbits   0x000fcd       data     extern E:\3.46\pic18-lt\cxx-framework\src\traditional\proc\p18f97j60.asm
                    T2CON   0x000fca       data     extern E:\3.46\pic18-lt\cxx-framework\src\traditional\proc\p18f97j60.asm
                T2CONbits   0x000fca       data     extern E:\3.46\pic18-lt\cxx-framework\src\traditional\proc\p18f97j60.asm
                    T3CON   0x000fb1       data     extern E:\3.46\pic18-lt\cxx-framework\src\traditional\proc\p18f97j60.asm
                T3CONbits   0x000fb1       data     extern E:\3.46\pic18-lt\cxx-framework\src\traditional\proc\p18f97j60.asm
                    T4CON   0x000f76       data     extern E:\3.46\pic18-lt\cxx-framework\src\traditional\proc\p18f97j60.asm
                T4CONbits   0x000f76       data     extern E:\3.46\pic18-lt\cxx-framework\src\traditional\proc\p18f97j60.asm
                   TABLAT   0x000ff5       data     extern E:\3.46\pic18-lt\cxx-framework\src\traditional\proc\p18f97j60.asm
                   TBLPTR   0x000ff6       data     extern E:\3.46\pic18-lt\cxx-framework\src\traditional\proc\p18f97j60.asm
                  TBLPTRH   0x000ff7       data     extern E:\3.46\pic18-lt\cxx-framework\src\traditional\proc\p18f97j60.asm
                  TBLPTRL   0x000ff6       data     extern E:\3.46\pic18-lt\cxx-framework\src\traditional\proc\p18f97j60.asm
                  TBLPTRU   0x000ff8       data     extern E:\3.46\pic18-lt\cxx-framework\src\traditional\proc\p18f97j60.asm
                    TMR0H   0x000fd7       data     extern E:\3.46\pic18-lt\cxx-framework\src\traditional\proc\p18f97j60.asm
                    TMR0L   0x000fd6       data     extern E:\3.46\pic18-lt\cxx-framework\src\traditional\proc\p18f97j60.asm
                    TMR1H   0x000fcf       data     extern E:\3.46\pic18-lt\cxx-framework\src\traditional\proc\p18f97j60.asm
                    TMR1L   0x000fce       data     extern E:\3.46\pic18-lt\cxx-framework\src\traditional\proc\p18f97j60.asm
                     TMR2   0x000fcc       data     extern E:\3.46\pic18-lt\cxx-framework\src\traditional\proc\p18f97j60.asm
                    TMR3H   0x000fb3       data     extern E:\3.46\pic18-lt\cxx-framework\src\traditional\proc\p18f97j60.asm
                    TMR3L   0x000fb2       data     extern E:\3.46\pic18-lt\cxx-framework\src\traditional\proc\p18f97j60.asm
                     TMR4   0x000f78       data     extern E:\3.46\pic18-lt\cxx-framework\src\traditional\proc\p18f97j60.asm
                      TOS   0x000ffd       data     extern E:\3.46\pic18-lt\cxx-framework\src\traditional\proc\p18f97j60.asm
                     TOSH   0x000ffe       data     extern E:\3.46\pic18-lt\cxx-framework\src\traditional\proc\p18f97j60.asm
                     TOSL   0x000ffd       data     extern E:\3.46\pic18-lt\cxx-framework\src\traditional\proc\p18f97j60.asm
                     TOSU   0x000fff       data     extern E:\3.46\pic18-lt\cxx-framework\src\traditional\proc\p18f97j60.asm
                    TRISA   0x000f92       data     extern E:\3.46\pic18-lt\cxx-framework\src\traditional\proc\p18f97j60.asm
                TRISAbits   0x000f92       data     extern E:\3.46\pic18-lt\cxx-framework\src\traditional\proc\p18f97j60.asm
                    TRISB   0x000f93       data     extern E:\3.46\pic18-lt\cxx-framework\src\traditional\proc\p18f97j60.asm
                TRISBbits   0x000f93       data     extern E:\3.46\pic18-lt\cxx-framework\src\traditional\proc\p18f97j60.asm
                    TRISC   0x000f94       data     extern E:\3.46\pic18-lt\cxx-framework\src\traditional\proc\p18f97j60.asm
                TRISCbits   0x000f94       data     extern E:\3.46\pic18-lt\cxx-framework\src\traditional\proc\p18f97j60.asm
                    TRISD   0x000f95       data     extern E:\3.46\pic18-lt\cxx-framework\src\traditional\proc\p18f97j60.asm
                TRISDbits   0x000f95       data     extern E:\3.46\pic18-lt\cxx-framework\src\traditional\proc\p18f97j60.asm
                    TRISE   0x000f96       data     extern E:\3.46\pic18-lt\cxx-framework\src\traditional\proc\p18f97j60.asm
                TRISEbits   0x000f96       data     extern E:\3.46\pic18-lt\cxx-framework\src\traditional\proc\p18f97j60.asm
                    TRISF   0x000f97       data     extern E:\3.46\pic18-lt\cxx-framework\src\traditional\proc\p18f97j60.asm
                TRISFbits   0x000f97       data     extern E:\3.46\pic18-lt\cxx-framework\src\traditional\proc\p18f97j60.asm
                    TRISG   0x000f98       data     extern E:\3.46\pic18-lt\cxx-framework\src\traditional\proc\p18f97j60.asm
                TRISGbits   0x000f98       data     extern E:\3.46\pic18-lt\cxx-framework\src\traditional\proc\p18f97j60.asm
                    TRISH   0x000f99       data     extern E:\3.46\pic18-lt\cxx-framework\src\traditional\proc\p18f97j60.asm
                TRISHbits   0x000f99       data     extern E:\3.46\pic18-lt\cxx-framework\src\traditional\proc\p18f97j60.asm
                    TRISJ   0x000f9a       data     extern E:\3.46\pic18-lt\cxx-framework\src\traditional\proc\p18f97j60.asm
                TRISJbits   0x000f9a       data     extern E:\3.46\pic18-lt\cxx-framework\src\traditional\proc\p18f97j60.asm
                    TXREG   0x000fad       data     extern E:\3.46\pic18-lt\cxx-framework\src\traditional\proc\p18f97j60.asm
                   TXREG1   0x000fad       data     extern E:\3.46\pic18-lt\cxx-framework\src\traditional\proc\p18f97j60.asm
                   TXREG2   0x000f6d       data     extern E:\3.46\pic18-lt\cxx-framework\src\traditional\proc\p18f97j60.asm
                    TXSTA   0x000fac       data     extern E:\3.46\pic18-lt\cxx-framework\src\traditional\proc\p18f97j60.asm
                   TXSTA1   0x000fac       data     extern E:\3.46\pic18-lt\cxx-framework\src\traditional\proc\p18f97j60.asm
               TXSTA1bits   0x000fac       data     extern E:\3.46\pic18-lt\cxx-framework\src\traditional\proc\p18f97j60.asm
                   TXSTA2   0x000f6c       data     extern E:\3.46\pic18-lt\cxx-framework\src\traditional\proc\p18f97j60.asm
               TXSTA2bits   0x000f6c       data     extern E:\3.46\pic18-lt\cxx-framework\src\traditional\proc\p18f97j60.asm
                TXSTAbits   0x000fac       data     extern E:\3.46\pic18-lt\cxx-framework\src\traditional\proc\p18f97j60.asm
      Timer1_Tick_Counter   0x000e70       data     extern C:\GIT-REPOS\Siebwalde\TrackController3.X\modbus\General.c
                   WDTCON   0x000fd1       data     extern E:\3.46\pic18-lt\cxx-framework\src\traditional\proc\p18f97j60.asm
               WDTCONbits   0x000fd1       data     extern E:\3.46\pic18-lt\cxx-framework\src\traditional\proc\p18f97j60.asm
                     WREG   0x000fe8       data     extern E:\3.46\pic18-lt\cxx-framework\src\traditional\proc\p18f97j60.asm
                 __AARGB0   0x000009       data     extern E:\3.46\pic18-lt\cxx-framework\src\traditional\math\aarg.asm
                 __AARGB1   0x000008       data     extern E:\3.46\pic18-lt\cxx-framework\src\traditional\math\aarg.asm
                 __AARGB2   0x000007       data     extern E:\3.46\pic18-lt\cxx-framework\src\traditional\math\aarg.asm
                 __AARGB3   0x000006       data     extern E:\3.46\pic18-lt\cxx-framework\src\traditional\math\aarg.asm
                 __AARGB4   0x000005       data     extern E:\3.46\pic18-lt\cxx-framework\src\traditional\math\aarg.asm
                 __AARGB5   0x000004       data     extern E:\3.46\pic18-lt\cxx-framework\src\traditional\math\aarg.asm
                 __AARGB6   0x000003       data     extern E:\3.46\pic18-lt\cxx-framework\src\traditional\math\aarg.asm
                 __AARGB7   0x000002       data     extern E:\3.46\pic18-lt\cxx-framework\src\traditional\math\aarg.asm
                   __AEXP   0x00000a       data     extern E:\3.46\pic18-lt\cxx-framework\src\traditional\math\aarg.asm
                 __BARGB0   0x00000e       data     extern E:\3.46\pic18-lt\cxx-framework\src\traditional\math\barg.asm
                 __BARGB1   0x00000d       data     extern E:\3.46\pic18-lt\cxx-framework\src\traditional\math\barg.asm
                 __BARGB2   0x00000c       data     extern E:\3.46\pic18-lt\cxx-framework\src\traditional\math\barg.asm
                 __BARGB3   0x00000b       data     extern E:\3.46\pic18-lt\cxx-framework\src\traditional\math\barg.asm
                   __BEXP   0x00000f       data     extern E:\3.46\pic18-lt\cxx-framework\src\traditional\math\barg.asm
        __EEAckPolling1:0   0x000e79       data     extern C:\GIT-REPOS\Siebwalde\TrackController3.X\I2c2\i2c1eeap.c
        __EEAckPolling2:0   0x000e76       data     extern C:\GIT-REPOS\Siebwalde\TrackController3.X\I2c2\i2c2eeap.c
         __EEByteWrite1:0   0x000e67       data     extern C:\GIT-REPOS\Siebwalde\TrackController3.X\I2c2\i2c1eebw.c
         __EEByteWrite1:1   0x000e68       data     extern C:\GIT-REPOS\Siebwalde\TrackController3.X\I2c2\i2c1eebw.c
         __EEByteWrite1:2   0x000e69       data     extern C:\GIT-REPOS\Siebwalde\TrackController3.X\I2c2\i2c1eebw.c
         __EEByteWrite2:0   0x000e5e       data     extern C:\GIT-REPOS\Siebwalde\TrackController3.X\I2c2\i2c2eebw.c
         __EEByteWrite2:1   0x000e5f       data     extern C:\GIT-REPOS\Siebwalde\TrackController3.X\I2c2\i2c2eebw.c
         __EEByteWrite2:2   0x000e60       data     extern C:\GIT-REPOS\Siebwalde\TrackController3.X\I2c2\i2c2eebw.c
    __EECurrentAddRead1:0   0x000e78       data     extern C:\GIT-REPOS\Siebwalde\TrackController3.X\I2c2\i2c1eecr.c
    __EECurrentAddRead2:0   0x000e75       data     extern C:\GIT-REPOS\Siebwalde\TrackController3.X\I2c2\i2c2eecr.c
         __EEPageWrite1:0   0x000e57       data     extern C:\GIT-REPOS\Siebwalde\TrackController3.X\I2c2\i2c1eepw.c
         __EEPageWrite1:1   0x000e58       data     extern C:\GIT-REPOS\Siebwalde\TrackController3.X\I2c2\i2c1eepw.c
         __EEPageWrite1:2   0x000e59       data     extern C:\GIT-REPOS\Siebwalde\TrackController3.X\I2c2\i2c1eepw.c
         __EEPageWrite2:0   0x000e53       data     extern C:\GIT-REPOS\Siebwalde\TrackController3.X\I2c2\i2c2eepw.c
         __EEPageWrite2:1   0x000e54       data     extern C:\GIT-REPOS\Siebwalde\TrackController3.X\I2c2\i2c2eepw.c
         __EEPageWrite2:2   0x000e55       data     extern C:\GIT-REPOS\Siebwalde\TrackController3.X\I2c2\i2c2eepw.c
        __EERandomRead1:0   0x000e6e       data     extern C:\GIT-REPOS\Siebwalde\TrackController3.X\I2c2\i2c1eerr.c
        __EERandomRead1:1   0x000e6f       data     extern C:\GIT-REPOS\Siebwalde\TrackController3.X\I2c2\i2c1eerr.c
        __EERandomRead2:0   0x000e6a       data     extern C:\GIT-REPOS\Siebwalde\TrackController3.X\I2c2\i2c2eerr.c
        __EERandomRead2:1   0x000e6b       data     extern C:\GIT-REPOS\Siebwalde\TrackController3.X\I2c2\i2c2eerr.c
    __EESequentialRead1:0   0x0001f8       data     extern C:\GIT-REPOS\Siebwalde\TrackController3.X\I2c2\i2c1eesr.c
    __EESequentialRead1:1   0x0001f9       data     extern C:\GIT-REPOS\Siebwalde\TrackController3.X\I2c2\i2c1eesr.c
    __EESequentialRead1:2   0x0001fa       data     extern C:\GIT-REPOS\Siebwalde\TrackController3.X\I2c2\i2c1eesr.c
    __EESequentialRead1:3   0x0001fc       data     extern C:\GIT-REPOS\Siebwalde\TrackController3.X\I2c2\i2c1eesr.c
    __EESequentialRead2:0   0x0001f3       data     extern C:\GIT-REPOS\Siebwalde\TrackController3.X\I2c2\i2c2eesr.c
    __EESequentialRead2:1   0x0001f4       data     extern C:\GIT-REPOS\Siebwalde\TrackController3.X\I2c2\i2c2eesr.c
    __EESequentialRead2:2   0x0001f5       data     extern C:\GIT-REPOS\Siebwalde\TrackController3.X\I2c2\i2c2eesr.c
    __EESequentialRead2:3   0x0001f7       data     extern C:\GIT-REPOS\Siebwalde\TrackController3.X\I2c2\i2c2eesr.c
        __EUSART1_Write:0   0x0000f4       data     extern C:\GIT-REPOS\Siebwalde\TrackController3.X\eusart1.c
        __EUSART2_Write:0   0x000194       data     extern C:\GIT-REPOS\Siebwalde\TrackController3.X\eusart2.c
                __FPFLAGS   0x000001       data     extern E:\3.46\pic18-lt\cxx-framework\src\traditional\math\cmath18.asm
            __FPFLAGSbits   0x000001       data     extern E:\3.46\pic18-lt\cxx-framework\src\traditional\math\cmath18.asm
      __InitPetitModbus:0   0x000f56       data     extern C:\GIT-REPOS\Siebwalde\TrackController3.X\modbus\PetitModbus.c
             __OpenI2C1:0   0x000e6c       data     extern C:\GIT-REPOS\Siebwalde\TrackController3.X\I2c2\i2c1open.c
             __OpenI2C1:1   0x000e6d       data     extern C:\GIT-REPOS\Siebwalde\TrackController3.X\I2c2\i2c1open.c
             __OpenI2C2:0   0x000f5e       data     extern C:\GIT-REPOS\Siebwalde\TrackController3.X\I2c2\i2c2open.c
             __OpenI2C2:1   0x000f5f       data     extern C:\GIT-REPOS\Siebwalde\TrackController3.X\I2c2\i2c2open.c
__PetitModBus_UART_Putch:0   0x000e41       data     extern C:\GIT-REPOS\Siebwalde\TrackController3.X\modbus\PetitModbusPort.c
__PetitModBus_UART_String:0   0x000e42       data     extern C:\GIT-REPOS\Siebwalde\TrackController3.X\modbus\PetitModbusPort.c
__PetitModBus_UART_String:1   0x000e44       data     extern C:\GIT-REPOS\Siebwalde\TrackController3.X\modbus\PetitModbusPort.c
          __Petit_CRC16:0   0x000f50       data     extern C:\GIT-REPOS\Siebwalde\TrackController3.X\modbus\PetitModbus.c
          __Petit_CRC16:1   0x000f51       data     extern C:\GIT-REPOS\Siebwalde\TrackController3.X\modbus\PetitModbus.c
                  __REMB0   0x000005       data     extern E:\3.46\pic18-lt\cxx-framework\src\traditional\math\aarg.asm
                  __REMB1   0x000004       data     extern E:\3.46\pic18-lt\cxx-framework\src\traditional\math\aarg.asm
                  __REMB2   0x000003       data     extern E:\3.46\pic18-lt\cxx-framework\src\traditional\math\aarg.asm
                  __REMB3   0x000002       data     extern E:\3.46\pic18-lt\cxx-framework\src\traditional\math\aarg.asm
     __ReceiveInterrupt:0   0x000e48       data     extern C:\GIT-REPOS\Siebwalde\TrackController3.X\modbus\PetitModbusPort.c
      __SendPetitModbus:0   0x000f58       data     extern C:\GIT-REPOS\Siebwalde\TrackController3.X\modbus\PetitModbus.c
      __SendPetitModbus:1   0x000f59       data     extern C:\GIT-REPOS\Siebwalde\TrackController3.X\modbus\PetitModbus.c
      __SendPetitModbus:2   0x000f5a       data     extern C:\GIT-REPOS\Siebwalde\TrackController3.X\modbus\PetitModbus.c
      __SendPetitModbus:3   0x000f5c       data     extern C:\GIT-REPOS\Siebwalde\TrackController3.X\modbus\PetitModbus.c
                   __TEMP   0x000013       data     extern E:\3.46\pic18-lt\cxx-framework\src\traditional\math\temparg.asm
                 __TEMPB0   0x000013       data     extern E:\3.46\pic18-lt\cxx-framework\src\traditional\math\temparg.asm
                 __TEMPB1   0x000012       data     extern E:\3.46\pic18-lt\cxx-framework\src\traditional\math\temparg.asm
                 __TEMPB2   0x000011       data     extern E:\3.46\pic18-lt\cxx-framework\src\traditional\math\temparg.asm
                 __TEMPB3   0x000010       data     extern E:\3.46\pic18-lt\cxx-framework\src\traditional\math\temparg.asm
            __WriteI2C1:0   0x000e77       data     extern C:\GIT-REPOS\Siebwalde\TrackController3.X\I2c2\i2c1writ.c
            __WriteI2C2:0   0x000e74       data     extern C:\GIT-REPOS\Siebwalde\TrackController3.X\I2c2\i2c2writ.c
           ___user_putc:0   0x0000f5       data     extern C:\GIT-REPOS\Siebwalde\TrackController3.X\eusart1.c
             __getsI2C1:0   0x000e64       data     extern C:\GIT-REPOS\Siebwalde\TrackController3.X\I2c2\i2c1gets.c
             __getsI2C1:1   0x000e66       data     extern C:\GIT-REPOS\Siebwalde\TrackController3.X\I2c2\i2c1gets.c
             __getsI2C2:0   0x000e5b       data     extern C:\GIT-REPOS\Siebwalde\TrackController3.X\I2c2\i2c2gets.c
             __getsI2C2:1   0x000e5d       data     extern C:\GIT-REPOS\Siebwalde\TrackController3.X\I2c2\i2c2gets.c
             __putsI2C1:0   0x000e61       data     extern C:\GIT-REPOS\Siebwalde\TrackController3.X\I2c2\i2c1puts.c
             __putsI2C2:0   0x0001fd       data     extern C:\GIT-REPOS\Siebwalde\TrackController3.X\I2c2\i2c2puts.c
                  __tmp_0   0x000014       data     static E:\3.46\pic18-lt\cxx-framework\src\traditional\stdclib\printf.c
                  __tmp_0   0x000014       data     static E:\3.46\pic18-lt\cxx-framework\src\traditional\stdclib\vfprintf.c
                  __tmp_0   0x000014       data     static E:\3.46\pic18-lt\cxx-framework\src\traditional\stdclib\putc.c
                  __tmp_0   0x000014       data     static C:\GIT-REPOS\Siebwalde\TrackController3.X\modbus\PetitModbus.c
                  __tmp_0   0x000014       data     static C:\GIT-REPOS\Siebwalde\TrackController3.X\I2c2\i2c2writ.c
                  __tmp_0   0x000014       data     static C:\GIT-REPOS\Siebwalde\TrackController3.X\I2c2\i2c2read.c
                  __tmp_0   0x000014       data     static C:\GIT-REPOS\Siebwalde\TrackController3.X\I2c2\i2c2idle.c
                  __tmp_0   0x000014       data     static C:\GIT-REPOS\Siebwalde\TrackController3.X\I2c2\i2c2eesr.c
                  __tmp_0   0x000014       data     static C:\GIT-REPOS\Siebwalde\TrackController3.X\I2c2\i2c2eerr.c
                  __tmp_0   0x000014       data     static C:\GIT-REPOS\Siebwalde\TrackController3.X\I2c2\i2c2eepw.c
                  __tmp_0   0x000014       data     static C:\GIT-REPOS\Siebwalde\TrackController3.X\I2c2\i2c2eecr.c
                  __tmp_0   0x000014       data     static C:\GIT-REPOS\Siebwalde\TrackController3.X\I2c2\i2c2eebw.c
                  __tmp_0   0x000014       data     static C:\GIT-REPOS\Siebwalde\TrackController3.X\I2c2\i2c2eeap.c
                  __tmp_0   0x000014       data     static C:\GIT-REPOS\Siebwalde\TrackController3.X\I2c2\i2c1writ.c
                  __tmp_0   0x000014       data     static C:\GIT-REPOS\Siebwalde\TrackController3.X\I2c2\i2c1read.c
                  __tmp_0   0x000014       data     static C:\GIT-REPOS\Siebwalde\TrackController3.X\I2c2\i2c1idle.c
                  __tmp_0   0x000014       data     static C:\GIT-REPOS\Siebwalde\TrackController3.X\I2c2\i2c1eesr.c
                  __tmp_0   0x000014       data     static C:\GIT-REPOS\Siebwalde\TrackController3.X\I2c2\i2c1eerr.c
                  __tmp_0   0x000014       data     static C:\GIT-REPOS\Siebwalde\TrackController3.X\I2c2\i2c1eepw.c
                  __tmp_0   0x000014       data     static C:\GIT-REPOS\Siebwalde\TrackController3.X\I2c2\i2c1eecr.c
                  __tmp_0   0x000014       data     static C:\GIT-REPOS\Siebwalde\TrackController3.X\I2c2\i2c1eebw.c
                  __tmp_0   0x000014       data     static C:\GIT-REPOS\Siebwalde\TrackController3.X\I2c2\i2c1eeap.c
                  __tmp_0   0x000014       data     static C:\GIT-REPOS\Siebwalde\TrackController3.X\eusart1.c
                  __tmp_0   0x000014       data     static C:\GIT-REPOS\Siebwalde\TrackController3.X\eusart2.c
                  _return   0x0001f1       data     extern C:\GIT-REPOS\Siebwalde\TrackController3.X\I2c2\i2c2read.c
                  address   0x000e58       data     static C:\GIT-REPOS\Siebwalde\TrackController3.X\I2c2\i2c1eepw.c
                  address   0x000e68       data     static C:\GIT-REPOS\Siebwalde\TrackController3.X\I2c2\i2c1eebw.c
                  address   0x000e6f       data     static C:\GIT-REPOS\Siebwalde\TrackController3.X\I2c2\i2c1eerr.c
                  address   0x000e54       data     static C:\GIT-REPOS\Siebwalde\TrackController3.X\I2c2\i2c2eepw.c
                  address   0x0001f9       data     static C:\GIT-REPOS\Siebwalde\TrackController3.X\I2c2\i2c1eesr.c
                  address   0x0001f4       data     static C:\GIT-REPOS\Siebwalde\TrackController3.X\I2c2\i2c2eesr.c
                  address   0x000e5f       data     static C:\GIT-REPOS\Siebwalde\TrackController3.X\I2c2\i2c2eebw.c
                  address   0x000e6b       data     static C:\GIT-REPOS\Siebwalde\TrackController3.X\I2c2\i2c2eerr.c
                        c   0x000e41       data     static C:\GIT-REPOS\Siebwalde\TrackController3.X\modbus\PetitModbusPort.c
                        c   0x0000f5       data     static C:\GIT-REPOS\Siebwalde\TrackController3.X\eusart1.c
                  control   0x0001f8       data     static C:\GIT-REPOS\Siebwalde\TrackController3.X\I2c2\i2c1eesr.c
                  control   0x0001f3       data     static C:\GIT-REPOS\Siebwalde\TrackController3.X\I2c2\i2c2eesr.c
                  control   0x000e53       data     static C:\GIT-REPOS\Siebwalde\TrackController3.X\I2c2\i2c2eepw.c
                  control   0x000e6e       data     static C:\GIT-REPOS\Siebwalde\TrackController3.X\I2c2\i2c1eerr.c
                  control   0x000e6a       data     static C:\GIT-REPOS\Siebwalde\TrackController3.X\I2c2\i2c2eerr.c
                  control   0x000e57       data     static C:\GIT-REPOS\Siebwalde\TrackController3.X\I2c2\i2c1eepw.c
                  control   0x000e78       data     static C:\GIT-REPOS\Siebwalde\TrackController3.X\I2c2\i2c1eecr.c
                  control   0x000e75       data     static C:\GIT-REPOS\Siebwalde\TrackController3.X\I2c2\i2c2eecr.c
                  control   0x000e67       data     static C:\GIT-REPOS\Siebwalde\TrackController3.X\I2c2\i2c1eebw.c
                  control   0x000e79       data     static C:\GIT-REPOS\Siebwalde\TrackController3.X\I2c2\i2c1eeap.c
                  control   0x000e5e       data     static C:\GIT-REPOS\Siebwalde\TrackController3.X\I2c2\i2c2eebw.c
                  control   0x000e76       data     static C:\GIT-REPOS\Siebwalde\TrackController3.X\I2c2\i2c2eeap.c
                curr_byte   0x0000f9       data     static E:\3.46\pic18-lt\cxx-framework\src\traditional\startup\c018i.c
               curr_entry   0x0000fb       data     static E:\3.46\pic18-lt\cxx-framework\src\traditional\startup\c018i.c
                     data   0x000e69       data     static C:\GIT-REPOS\Siebwalde\TrackController3.X\I2c2\i2c1eebw.c
                     data   0x000e60       data     static C:\GIT-REPOS\Siebwalde\TrackController3.X\I2c2\i2c2eebw.c
                 data_out   0x000e74       data     static C:\GIT-REPOS\Siebwalde\TrackController3.X\I2c2\i2c2writ.c
                 data_out   0x000e77       data     static C:\GIT-REPOS\Siebwalde\TrackController3.X\I2c2\i2c1writ.c
                 data_ptr   0x0000fd       data     static E:\3.46\pic18-lt\cxx-framework\src\traditional\startup\c018i.c
          eusart1RxBuffer   0x000075       data     static C:\GIT-REPOS\Siebwalde\TrackController3.X\eusart1.c
           eusart1RxCount   0x0000f3       data     extern C:\GIT-REPOS\Siebwalde\TrackController3.X\eusart1.c
            eusart1RxHead   0x000e50       data     static C:\GIT-REPOS\Siebwalde\TrackController3.X\eusart1.c
            eusart1RxTail   0x000e51       data     static C:\GIT-REPOS\Siebwalde\TrackController3.X\eusart1.c
          eusart1TxBuffer   0x000060       data     static C:\GIT-REPOS\Siebwalde\TrackController3.X\eusart1.c
 eusart1TxBufferRemaining   0x000074       data     extern C:\GIT-REPOS\Siebwalde\TrackController3.X\eusart1.c
            eusart1TxHead   0x000e4e       data     static C:\GIT-REPOS\Siebwalde\TrackController3.X\eusart1.c
            eusart1TxTail   0x000e4f       data     static C:\GIT-REPOS\Siebwalde\TrackController3.X\eusart1.c
          eusart2RxBuffer   0x000115       data     static C:\GIT-REPOS\Siebwalde\TrackController3.X\eusart2.c
           eusart2RxCount   0x000193       data     extern C:\GIT-REPOS\Siebwalde\TrackController3.X\eusart2.c
            eusart2RxHead   0x000e4b       data     static C:\GIT-REPOS\Siebwalde\TrackController3.X\eusart2.c
            eusart2RxTail   0x000e4c       data     static C:\GIT-REPOS\Siebwalde\TrackController3.X\eusart2.c
          eusart2TxBuffer   0x000100       data     static C:\GIT-REPOS\Siebwalde\TrackController3.X\eusart2.c
 eusart2TxBufferRemaining   0x000114       data     extern C:\GIT-REPOS\Siebwalde\TrackController3.X\eusart2.c
            eusart2TxHead   0x000e49       data     static C:\GIT-REPOS\Siebwalde\TrackController3.X\eusart2.c
            eusart2TxTail   0x000e4a       data     static C:\GIT-REPOS\Siebwalde\TrackController3.X\eusart2.c
                   length   0x000e5d       data     static C:\GIT-REPOS\Siebwalde\TrackController3.X\I2c2\i2c2gets.c
                   length   0x0001f7       data     static C:\GIT-REPOS\Siebwalde\TrackController3.X\I2c2\i2c2eesr.c
                   length   0x0001fc       data     static C:\GIT-REPOS\Siebwalde\TrackController3.X\I2c2\i2c1eesr.c
                   length   0x000e66       data     static C:\GIT-REPOS\Siebwalde\TrackController3.X\I2c2\i2c1gets.c
                 location   0x000f56       data     static C:\GIT-REPOS\Siebwalde\TrackController3.X\modbus\PetitModbus.c
                     prom   0x0000f6       data     static E:\3.46\pic18-lt\cxx-framework\src\traditional\startup\c018i.c
                    rdptr   0x000e64       data     static C:\GIT-REPOS\Siebwalde\TrackController3.X\I2c2\i2c1gets.c
                    rdptr   0x0001f5       data     static C:\GIT-REPOS\Siebwalde\TrackController3.X\I2c2\i2c2eesr.c
                    rdptr   0x0001fa       data     static C:\GIT-REPOS\Siebwalde\TrackController3.X\I2c2\i2c1eesr.c
                    rdptr   0x000e5b       data     static C:\GIT-REPOS\Siebwalde\TrackController3.X\I2c2\i2c2gets.c
                readValue   0x000e52       data     static C:\GIT-REPOS\Siebwalde\TrackController3.X\eusart1.c
                readValue   0x000e4d       data     static C:\GIT-REPOS\Siebwalde\TrackController3.X\eusart2.c
               return_val   0x000e18       data     static C:\GIT-REPOS\Siebwalde\TrackController3.X\modbus\PetitModbus.c
                        s   0x000e42       data     static C:\GIT-REPOS\Siebwalde\TrackController3.X\modbus\PetitModbusPort.c
                    slave   0x0001e8       data     extern C:\GIT-REPOS\Siebwalde\TrackController3.X\FiddleYard.c
                     slew   0x000e6d       data     static C:\GIT-REPOS\Siebwalde\TrackController3.X\I2c2\i2c1open.c
                     slew   0x000f5f       data     static C:\GIT-REPOS\Siebwalde\TrackController3.X\I2c2\i2c2open.c
                   stdout   0x000e72       data     extern E:\3.46\pic18-lt\cxx-framework\src\traditional\stdclib\stdout.c
                sync_mode   0x000e6c       data     static C:\GIT-REPOS\Siebwalde\TrackController3.X\I2c2\i2c1open.c
                sync_mode   0x000f5e       data     static C:\GIT-REPOS\Siebwalde\TrackController3.X\I2c2\i2c2open.c
                     temp   0x000e63       data     static C:\GIT-REPOS\Siebwalde\TrackController3.X\I2c2\i2c1puts.c
                     temp   0x0001ff       data     static C:\GIT-REPOS\Siebwalde\TrackController3.X\I2c2\i2c2puts.c
                    temp3   0x0001e9       data     extern C:\GIT-REPOS\Siebwalde\TrackController3.X\FiddleYard.c
                  timeout   0x0001ed       data     extern C:\GIT-REPOS\Siebwalde\TrackController3.X\I2c2\i2c2read.c
                   txData   0x000194       data     static C:\GIT-REPOS\Siebwalde\TrackController3.X\eusart2.c
                   txData   0x0000f4       data     static C:\GIT-REPOS\Siebwalde\TrackController3.X\eusart1.c
                   uIndex   0x000f53       data     static C:\GIT-REPOS\Siebwalde\TrackController3.X\modbus\PetitModbus.c
                 uchCRCHi   0x000e11       data     static C:\GIT-REPOS\Siebwalde\TrackController3.X\modbus\PetitModbus.c
                 uchCRCLo   0x000e13       data     static C:\GIT-REPOS\Siebwalde\TrackController3.X\modbus\PetitModbus.c
                    wrptr   0x0001fd       data     static C:\GIT-REPOS\Siebwalde\TrackController3.X\I2c2\i2c2puts.c
                    wrptr   0x000e59       data     static C:\GIT-REPOS\Siebwalde\TrackController3.X\I2c2\i2c1eepw.c
                    wrptr   0x000e61       data     static C:\GIT-REPOS\Siebwalde\TrackController3.X\I2c2\i2c1puts.c
                    wrptr   0x000e55       data     static C:\GIT-REPOS\Siebwalde\TrackController3.X\I2c2\i2c2eepw.c



                              Symbols - Sorted by Address
                     Name    Address   Location    Storage File                     
                ---------  ---------  ---------  --------- ---------                
                   _entry   0x000000    program     extern E:\3.46\pic18-lt\cxx-framework\src\traditional\startup\c018i.c
       ___return_lbl00000   0x000004    program     static                          
                   __init   0x000006    program     extern E:\3.46\pic18-lt\cxx-framework\src\traditional\stdclib\__init.c
 interrupt_at_high_vector   0x000008    program     extern C:\GIT-REPOS\Siebwalde\TrackController3.X\FiddleYard.c
       ___return_lbl00015   0x00000c    program     static                          
               NotAckI2C2   0x00000e    program     extern C:\GIT-REPOS\Siebwalde\TrackController3.X\I2c2\i2c2nack.c
                StartI2C2   0x000014    program     extern C:\GIT-REPOS\Siebwalde\TrackController3.X\I2c2\i2c2strt.c
  interrupt_at_low_vector   0x000018    program     extern C:\GIT-REPOS\Siebwalde\TrackController3.X\FiddleYard.c
       ___return_lbl00017   0x00001c    program     static                          
            s_put_n_chars   0x000074    program     static E:\3.46\pic18-lt\cxx-framework\src\traditional\stdclib\vfprintf.c
                 vfprintf   0x0000a0    program     extern E:\3.46\pic18-lt\cxx-framework\src\traditional\stdclib\vfprintf.c
              __tmplbl_85   0x0000ca    program     static                          
              __tmplbl_44   0x000978    program     static                          
              __tmplbl_43   0x000992    program     static                          
                   __pa_0   0x0009b4    program     static E:\3.46\pic18-lt\cxx-framework\src\traditional\stdclib\vfprintf.c
                   __pa_1   0x0009bc    program     static E:\3.46\pic18-lt\cxx-framework\src\traditional\stdclib\vfprintf.c
                   __pa_2   0x0009c6    program     static E:\3.46\pic18-lt\cxx-framework\src\traditional\stdclib\vfprintf.c
                   __pa_3   0x0009d0    program     static E:\3.46\pic18-lt\cxx-framework\src\traditional\stdclib\vfprintf.c
                   __pa_4   0x0009e8    program     static E:\3.46\pic18-lt\cxx-framework\src\traditional\stdclib\vfprintf.c
                   __pa_5   0x0009fc    program     static E:\3.46\pic18-lt\cxx-framework\src\traditional\stdclib\vfprintf.c
                   __pa_6   0x000a18    program     static E:\3.46\pic18-lt\cxx-framework\src\traditional\stdclib\vfprintf.c
                   __pa_7   0x000a22    program     static E:\3.46\pic18-lt\cxx-framework\src\traditional\stdclib\vfprintf.c
                   __pa_8   0x000a2e    program     static E:\3.46\pic18-lt\cxx-framework\src\traditional\stdclib\vfprintf.c
                   __pa_9   0x000a50    program     static E:\3.46\pic18-lt\cxx-framework\src\traditional\stdclib\vfprintf.c
                  __pa_10   0x000a70    program     static E:\3.46\pic18-lt\cxx-framework\src\traditional\stdclib\vfprintf.c
                  __pa_11   0x000a7e    program     static E:\3.46\pic18-lt\cxx-framework\src\traditional\stdclib\vfprintf.c
                  __pa_12   0x000a94    program     static E:\3.46\pic18-lt\cxx-framework\src\traditional\stdclib\vfprintf.c
                  __pa_13   0x000aae    program     static E:\3.46\pic18-lt\cxx-framework\src\traditional\stdclib\vfprintf.c
                  __pa_14   0x000ac6    program     static E:\3.46\pic18-lt\cxx-framework\src\traditional\stdclib\vfprintf.c
                  __pa_15   0x000ad6    program     static E:\3.46\pic18-lt\cxx-framework\src\traditional\stdclib\vfprintf.c
                  __pa_16   0x000aec    program     static E:\3.46\pic18-lt\cxx-framework\src\traditional\stdclib\vfprintf.c
                  __pa_17   0x000afe    program     static E:\3.46\pic18-lt\cxx-framework\src\traditional\stdclib\vfprintf.c
                  __pa_18   0x000b10    program     static E:\3.46\pic18-lt\cxx-framework\src\traditional\stdclib\vfprintf.c
                  __pa_19   0x000b1a    program     static E:\3.46\pic18-lt\cxx-framework\src\traditional\stdclib\vfprintf.c
                  __pa_20   0x000b2a    program     static E:\3.46\pic18-lt\cxx-framework\src\traditional\stdclib\vfprintf.c
                  __pa_21   0x000b3a    program     static E:\3.46\pic18-lt\cxx-framework\src\traditional\stdclib\vfprintf.c
                  __pa_22   0x000b4a    program     static E:\3.46\pic18-lt\cxx-framework\src\traditional\stdclib\vfprintf.c
              __tmplbl_42   0x000b4a    program     static                          
                  __pa_23   0x000b56    program     static E:\3.46\pic18-lt\cxx-framework\src\traditional\stdclib\vfprintf.c
                  __pa_24   0x000b64    program     static E:\3.46\pic18-lt\cxx-framework\src\traditional\stdclib\vfprintf.c
                  __pa_25   0x000b6c    program     static E:\3.46\pic18-lt\cxx-framework\src\traditional\stdclib\vfprintf.c
                  __pa_26   0x000b76    program     static E:\3.46\pic18-lt\cxx-framework\src\traditional\stdclib\vfprintf.c
                  __pa_27   0x000b80    program     static E:\3.46\pic18-lt\cxx-framework\src\traditional\stdclib\vfprintf.c
                  __pa_28   0x000b88    program     static E:\3.46\pic18-lt\cxx-framework\src\traditional\stdclib\vfprintf.c
                  __pa_29   0x000b96    program     static E:\3.46\pic18-lt\cxx-framework\src\traditional\stdclib\vfprintf.c
                  __pa_30   0x000bb2    program     static E:\3.46\pic18-lt\cxx-framework\src\traditional\stdclib\vfprintf.c
                  __pa_31   0x000bcc    program     static E:\3.46\pic18-lt\cxx-framework\src\traditional\stdclib\vfprintf.c
                  __pa_32   0x000be6    program     static E:\3.46\pic18-lt\cxx-framework\src\traditional\stdclib\vfprintf.c
                  __pa_33   0x000bfe    program     static E:\3.46\pic18-lt\cxx-framework\src\traditional\stdclib\vfprintf.c
                  __pa_34   0x000c08    program     static E:\3.46\pic18-lt\cxx-framework\src\traditional\stdclib\vfprintf.c
                  __pa_35   0x000c16    program     static E:\3.46\pic18-lt\cxx-framework\src\traditional\stdclib\vfprintf.c
                  __pa_36   0x000c1e    program     static E:\3.46\pic18-lt\cxx-framework\src\traditional\stdclib\vfprintf.c
                  __pa_37   0x000c28    program     static E:\3.46\pic18-lt\cxx-framework\src\traditional\stdclib\vfprintf.c
                  __pa_38   0x000c38    program     static E:\3.46\pic18-lt\cxx-framework\src\traditional\stdclib\vfprintf.c
                  __pa_39   0x000c46    program     static E:\3.46\pic18-lt\cxx-framework\src\traditional\stdclib\vfprintf.c
                  __pa_40   0x000c52    program     static E:\3.46\pic18-lt\cxx-framework\src\traditional\stdclib\vfprintf.c
                  __pa_41   0x000c5e    program     static E:\3.46\pic18-lt\cxx-framework\src\traditional\stdclib\vfprintf.c
                  __pa_42   0x000c66    program     static E:\3.46\pic18-lt\cxx-framework\src\traditional\stdclib\vfprintf.c
                  __pa_43   0x000c70    program     static E:\3.46\pic18-lt\cxx-framework\src\traditional\stdclib\vfprintf.c
                  __pa_44   0x000c76    program     static E:\3.46\pic18-lt\cxx-framework\src\traditional\stdclib\vfprintf.c
                  __pa_45   0x000c80    program     static E:\3.46\pic18-lt\cxx-framework\src\traditional\stdclib\vfprintf.c
                  __pa_46   0x000c8c    program     static E:\3.46\pic18-lt\cxx-framework\src\traditional\stdclib\vfprintf.c
              Petit_CRC16   0x000c96    program     extern C:\GIT-REPOS\Siebwalde\TrackController3.X\modbus\PetitModbus.c
          Petit_DoSlaveTX   0x000d7c    program     extern C:\GIT-REPOS\Siebwalde\TrackController3.X\modbus\PetitModbus.c
         PetitSendMessage   0x000d9e    program     extern C:\GIT-REPOS\Siebwalde\TrackController3.X\modbus\PetitModbus.c
    Petit_RxDataAvailable   0x000dbc    program     extern C:\GIT-REPOS\Siebwalde\TrackController3.X\modbus\PetitModbus.c
     Petit_CheckRxTimeout   0x000dcc    program     extern C:\GIT-REPOS\Siebwalde\TrackController3.X\modbus\PetitModbus.c
CheckPetitModbusBufferComplete   0x000dec    program     extern C:\GIT-REPOS\Siebwalde\TrackController3.X\modbus\PetitModbus.c
              Petit_RxRTU   0x000e64    program     extern C:\GIT-REPOS\Siebwalde\TrackController3.X\modbus\PetitModbus.c
              Petit_TxRTU   0x000fa8    program     extern C:\GIT-REPOS\Siebwalde\TrackController3.X\modbus\PetitModbus.c
       ProcessPetitModbus   0x0010fc    program     extern C:\GIT-REPOS\Siebwalde\TrackController3.X\modbus\PetitModbus.c
          InitPetitModbus   0x00117a    program     extern C:\GIT-REPOS\Siebwalde\TrackController3.X\modbus\PetitModbus.c
          SendPetitModbus   0x00118c    program     extern C:\GIT-REPOS\Siebwalde\TrackController3.X\modbus\PetitModbus.c
HandlePetitModbusWriteSingleRegisterSlaveReadback   0x001252    program     extern C:\GIT-REPOS\Siebwalde\TrackController3.X\modbus\PetitModbus.c
HandlePetitModbusReadHoldingRegistersSlaveReadback   0x00130a    program     extern C:\GIT-REPOS\Siebwalde\TrackController3.X\modbus\PetitModbus.c
HandleMPetitodbusWriteMultipleRegistersSlaveReadback   0x0014c2    program     extern C:\GIT-REPOS\Siebwalde\TrackController3.X\modbus\PetitModbus.c
HandleMPetitodbusMbExceptionCodesSlaveReadback   0x0015cc    program     extern C:\GIT-REPOS\Siebwalde\TrackController3.X\modbus\PetitModbus.c
                     main   0x001656    program     extern C:\GIT-REPOS\Siebwalde\TrackController3.X\FiddleYard.c
                 high_isr   0x0017ba    program     extern C:\GIT-REPOS\Siebwalde\TrackController3.X\FiddleYard.c
                  low_isr   0x0017cc    program     extern C:\GIT-REPOS\Siebwalde\TrackController3.X\FiddleYard.c
              Init_Timers   0x0018aa    program     static C:\GIT-REPOS\Siebwalde\TrackController3.X\FiddleYard.c
                 Init_Pwm   0x0018d8    program     static C:\GIT-REPOS\Siebwalde\TrackController3.X\FiddleYard.c
       EUSART1_Initialize   0x0018ea    program     extern C:\GIT-REPOS\Siebwalde\TrackController3.X\eusart1.c
             EUSART1_Read   0x001924    program     extern C:\GIT-REPOS\Siebwalde\TrackController3.X\eusart1.c
            EUSART1_Write   0x001966    program     extern C:\GIT-REPOS\Siebwalde\TrackController3.X\eusart1.c
               _user_putc   0x0019ac    program     extern C:\GIT-REPOS\Siebwalde\TrackController3.X\eusart1.c
     EUSART1_Transmit_ISR   0x0019b4    program     extern C:\GIT-REPOS\Siebwalde\TrackController3.X\eusart1.c
      EUSART1_Receive_ISR   0x0019fa    program     extern C:\GIT-REPOS\Siebwalde\TrackController3.X\eusart1.c
       EUSART2_Initialize   0x001a3e    program     extern C:\GIT-REPOS\Siebwalde\TrackController3.X\eusart2.c
             EUSART2_Read   0x001a74    program     extern C:\GIT-REPOS\Siebwalde\TrackController3.X\eusart2.c
            EUSART2_Write   0x001ab6    program     extern C:\GIT-REPOS\Siebwalde\TrackController3.X\eusart2.c
     EUSART2_Transmit_ISR   0x001afc    program     extern C:\GIT-REPOS\Siebwalde\TrackController3.X\eusart2.c
      EUSART2_Receive_ISR   0x001b42    program     extern C:\GIT-REPOS\Siebwalde\TrackController3.X\eusart2.c
            EERandomRead2   0x001b86    program     extern C:\GIT-REPOS\Siebwalde\TrackController3.X\I2c2\i2c2eerr.c
            EERandomRead1   0x001c8a    program     extern C:\GIT-REPOS\Siebwalde\TrackController3.X\I2c2\i2c1eerr.c
                auchCRCLo   0x001d8e    program     extern C:\GIT-REPOS\Siebwalde\TrackController3.X\modbus\PetitModbus.c
                auchCRCHi   0x001e8e    program     extern C:\GIT-REPOS\Siebwalde\TrackController3.X\modbus\PetitModbus.c
        EESequentialRead2   0x001f8e    program     extern C:\GIT-REPOS\Siebwalde\TrackController3.X\I2c2\i2c2eesr.c
        EESequentialRead1   0x002078    program     extern C:\GIT-REPOS\Siebwalde\TrackController3.X\I2c2\i2c1eesr.c
             EEPageWrite2   0x00215c    program     extern C:\GIT-REPOS\Siebwalde\TrackController3.X\I2c2\i2c2eepw.c
             EEPageWrite1   0x002202    program     extern C:\GIT-REPOS\Siebwalde\TrackController3.X\I2c2\i2c1eepw.c
             EEByteWrite2   0x0022a8    program     extern C:\GIT-REPOS\Siebwalde\TrackController3.X\I2c2\i2c2eebw.c
             EEByteWrite1   0x00234a    program     extern C:\GIT-REPOS\Siebwalde\TrackController3.X\I2c2\i2c1eebw.c
                _do_cinit   0x0023ec    program     extern E:\3.46\pic18-lt\cxx-framework\src\traditional\startup\c018i.c
                     test   0x002406    program     static                          
                copy_loop   0x00245e    program     static                          
            copy_one_byte   0x002464    program     static                          
             done_copying   0x002472    program     static                          
                     done   0x002488    program     static                          
       ___return_lbl00002   0x002488    program     static                          
                   printf   0x00248a    program     extern E:\3.46\pic18-lt\cxx-framework\src\traditional\stdclib\printf.c
                 FXM1616U   0x002522    program     extern E:\3.46\pic18-lt\cxx-framework\src\traditional\math\fxm1616u.asm
                 FXM1616S   0x00255e    program     extern E:\3.46\pic18-lt\cxx-framework\src\traditional\math\fxm1616s.asm
               TSIGN1616A   0x0025aa    program     static E:\3.46\pic18-lt\cxx-framework\src\traditional\math\fxm1616s.asm
PetitModBus_UART_Initialise   0x0025b8    program     extern C:\GIT-REPOS\Siebwalde\TrackController3.X\modbus\PetitModbusPort.c
PetitModBus_TIMER_Initialise   0x0025be    program     extern C:\GIT-REPOS\Siebwalde\TrackController3.X\modbus\PetitModbusPort.c
   PetitModBus_UART_Putch   0x0025c4    program     extern C:\GIT-REPOS\Siebwalde\TrackController3.X\modbus\PetitModbusPort.c
  PetitModBus_UART_String   0x0025ce    program     extern C:\GIT-REPOS\Siebwalde\TrackController3.X\modbus\PetitModbusPort.c
         ReceiveInterrupt   0x002614    program     extern C:\GIT-REPOS\Siebwalde\TrackController3.X\modbus\PetitModbusPort.c
  PetitModBus_TimerValues   0x002644    program     extern C:\GIT-REPOS\Siebwalde\TrackController3.X\modbus\PetitModbusPort.c
        EECurrentAddRead2   0x00264e    program     extern C:\GIT-REPOS\Siebwalde\TrackController3.X\I2c2\i2c2eecr.c
        EECurrentAddRead1   0x0026de    program     extern C:\GIT-REPOS\Siebwalde\TrackController3.X\I2c2\i2c1eecr.c
                     putc   0x00276e    program     extern E:\3.46\pic18-lt\cxx-framework\src\traditional\stdclib\putc.c
            EEAckPolling2   0x0027f2    program     extern C:\GIT-REPOS\Siebwalde\TrackController3.X\I2c2\i2c2eeap.c
            EEAckPolling1   0x002876    program     extern C:\GIT-REPOS\Siebwalde\TrackController3.X\I2c2\i2c1eeap.c
                WriteI2C1   0x0028fa    program     extern C:\GIT-REPOS\Siebwalde\TrackController3.X\I2c2\i2c1writ.c
                  FXM3232   0x00296e    program     extern E:\3.46\pic18-lt\cxx-framework\src\traditional\math\fxm3232.c
       ___return_lbl00000   0x0029dc    program     static                          
                WriteI2C2   0x0029de    program     extern C:\GIT-REPOS\Siebwalde\TrackController3.X\I2c2\i2c2writ.c
                 ReadI2C2   0x002a4c    program     extern C:\GIT-REPOS\Siebwalde\TrackController3.X\I2c2\i2c2read.c
                   strlen   0x002ab4    program     extern E:\3.46\pic18-lt\cxx-framework\src\traditional\stdclib\strlen.asm
                    jLoop   0x002ac4    program     static E:\3.46\pic18-lt\cxx-framework\src\traditional\stdclib\strlen.asm
                     jEnd   0x002ace    program     static E:\3.46\pic18-lt\cxx-framework\src\traditional\stdclib\strlen.asm
                strlenpgm   0x002ad0    program     extern E:\3.46\pic18-lt\cxx-framework\src\traditional\stdclib\slenpgm.asm
                    jLoop   0x002aee    program     static E:\3.46\pic18-lt\cxx-framework\src\traditional\stdclib\slenpgm.asm
                   _2jEnd   0x002b04    program     static E:\3.46\pic18-lt\cxx-framework\src\traditional\stdclib\slenpgm.asm
                     jEnd   0x002b06    program     static E:\3.46\pic18-lt\cxx-framework\src\traditional\stdclib\slenpgm.asm
                 putsI2C2   0x002b1a    program     extern C:\GIT-REPOS\Siebwalde\TrackController3.X\I2c2\i2c2puts.c
                 putsI2C1   0x002b80    program     extern C:\GIT-REPOS\Siebwalde\TrackController3.X\I2c2\i2c1puts.c
    PetitModbusIntHandler   0x002be6    program     extern C:\GIT-REPOS\Siebwalde\TrackController3.X\modbus\Interrupts.c
                 InitUART   0x002c4c    program     extern C:\GIT-REPOS\Siebwalde\TrackController3.X\modbus\Init.c
                  InitTMR   0x002c7a    program     extern C:\GIT-REPOS\Siebwalde\TrackController3.X\modbus\Init.c
                 getsI2C2   0x002cb0    program     extern C:\GIT-REPOS\Siebwalde\TrackController3.X\I2c2\i2c2gets.c
                 getsI2C1   0x002d0a    program     extern C:\GIT-REPOS\Siebwalde\TrackController3.X\I2c2\i2c1gets.c
                 FXD3232U   0x002d64    program     extern E:\3.46\pic18-lt\cxx-framework\src\traditional\math\fxd3232u.c
                     loop   0x002d72    program     static                          
                   _false   0x002da6    program     static                          
       ___return_lbl00000   0x002daa    program     static                          
            __zero_memory   0x002dac    program     extern E:\3.46\pic18-lt\cxx-framework\src\traditional\proc\p18f97j60.asm
                   loop_h   0x002dc6    program     static E:\3.46\pic18-lt\cxx-framework\src\traditional\proc\p18f97j60.asm
               zero_block   0x002dc6    program     static E:\3.46\pic18-lt\cxx-framework\src\traditional\proc\p18f97j60.asm
                compare_l   0x002dce    program     static E:\3.46\pic18-lt\cxx-framework\src\traditional\proc\p18f97j60.asm
                   loop_l   0x002dd0    program     static E:\3.46\pic18-lt\cxx-framework\src\traditional\proc\p18f97j60.asm
                 ReadI2C1   0x002dd8    program     extern C:\GIT-REPOS\Siebwalde\TrackController3.X\I2c2\i2c1read.c
                  isdigit   0x002e00    program     extern E:\3.46\pic18-lt\cxx-framework\src\traditional\stdclib\isdigit.asm
                   jMatch   0x002e20    program     static E:\3.46\pic18-lt\cxx-framework\src\traditional\stdclib\isdigit.asm
                 jNoMatch   0x002e22    program     static E:\3.46\pic18-lt\cxx-framework\src\traditional\stdclib\isdigit.asm
               __string_1   0x002e24    program     static C:\GIT-REPOS\Siebwalde\TrackController3.X\FiddleYard.c
               __string_0   0x002e26    program     static C:\GIT-REPOS\Siebwalde\TrackController3.X\FiddleYard.c
                 _startup   0x002e42    program     extern E:\3.46\pic18-lt\cxx-framework\src\traditional\startup\c018i.c
                     loop   0x002e52    program     static                          
       ___return_lbl00001   0x002e5c    program     static                          
              _usart_putc   0x002e5e    program     extern E:\3.46\pic18-lt\cxx-framework\src\pmc_common\USART\_usartpc.asm
                     loop   0x002e6e    program     static E:\3.46\pic18-lt\cxx-framework\src\pmc_common\USART\_usartpc.asm
                 OpenI2C2   0x002e7a    program     extern C:\GIT-REPOS\Siebwalde\TrackController3.X\I2c2\i2c2open.c
                 OpenI2C1   0x002e96    program     extern C:\GIT-REPOS\Siebwalde\TrackController3.X\I2c2\i2c1open.c
                 IdleI2C2   0x002eb2    program     extern C:\GIT-REPOS\Siebwalde\TrackController3.X\I2c2\i2c2idle.c
                 IdleI2C1   0x002eca    program     extern C:\GIT-REPOS\Siebwalde\TrackController3.X\I2c2\i2c1idle.c
                 s_digits   0x002ee2    program     static E:\3.46\pic18-lt\cxx-framework\src\traditional\stdclib\vfprintf.c
              DataRdyI2C2   0x002ef4    program     extern C:\GIT-REPOS\Siebwalde\TrackController3.X\I2c2\i2c2dtrd.c
              DataRdyI2C1   0x002f04    program     extern C:\GIT-REPOS\Siebwalde\TrackController3.X\I2c2\i2c1dtrd.c
                  AckI2C2   0x002f14    program     extern C:\GIT-REPOS\Siebwalde\TrackController3.X\I2c2\i2c2ack.c
               NotAckI2C1   0x002f1a    program     extern C:\GIT-REPOS\Siebwalde\TrackController3.X\I2c2\i2c1nack.c
                  AckI2C1   0x002f20    program     extern C:\GIT-REPOS\Siebwalde\TrackController3.X\I2c2\i2c1ack.c
                 StopI2C2   0x002f26    program     extern C:\GIT-REPOS\Siebwalde\TrackController3.X\I2c2\i2c2stop.c
              RestartI2C2   0x002f2a    program     extern C:\GIT-REPOS\Siebwalde\TrackController3.X\I2c2\i2c2rstr.c
                CloseI2C2   0x002f2e    program     extern C:\GIT-REPOS\Siebwalde\TrackController3.X\I2c2\i2c2clos.c
                StartI2C1   0x002f32    program     extern C:\GIT-REPOS\Siebwalde\TrackController3.X\I2c2\i2c1strt.c
                 StopI2C1   0x002f36    program     extern C:\GIT-REPOS\Siebwalde\TrackController3.X\I2c2\i2c1stop.c
              RestartI2C1   0x002f3a    program     extern C:\GIT-REPOS\Siebwalde\TrackController3.X\I2c2\i2c1rstr.c
                CloseI2C1   0x002f3e    program     extern C:\GIT-REPOS\Siebwalde\TrackController3.X\I2c2\i2c1clos.c
       StatexMachinexInit   0x002f42    program     extern C:\GIT-REPOS\Siebwalde\TrackController3.X\State_Machine.c
               __config_0   0x01fff8    program     static C:\GIT-REPOS\Siebwalde\TrackController3.X\FiddleYard.c
               __config_1   0x01fff9    program     static C:\GIT-REPOS\Siebwalde\TrackController3.X\FiddleYard.c
               __config_2   0x01fffa    program     static C:\GIT-REPOS\Siebwalde\TrackController3.X\FiddleYard.c
               __config_3   0x01fffb    program     static C:\GIT-REPOS\Siebwalde\TrackController3.X\FiddleYard.c
               __config_4   0x01fffc    program     static C:\GIT-REPOS\Siebwalde\TrackController3.X\FiddleYard.c
               __config_5   0x01fffd    program     static C:\GIT-REPOS\Siebwalde\TrackController3.X\FiddleYard.c
                     SIGN   0x000000       data     extern E:\3.46\pic18-lt\cxx-framework\src\traditional\math\cmath18.asm
                __FPFLAGS   0x000001       data     extern E:\3.46\pic18-lt\cxx-framework\src\traditional\math\cmath18.asm
            __FPFLAGSbits   0x000001       data     extern E:\3.46\pic18-lt\cxx-framework\src\traditional\math\cmath18.asm
                  __REMB3   0x000002       data     extern E:\3.46\pic18-lt\cxx-framework\src\traditional\math\aarg.asm
                 __AARGB7   0x000002       data     extern E:\3.46\pic18-lt\cxx-framework\src\traditional\math\aarg.asm
                  __REMB2   0x000003       data     extern E:\3.46\pic18-lt\cxx-framework\src\traditional\math\aarg.asm
                 __AARGB6   0x000003       data     extern E:\3.46\pic18-lt\cxx-framework\src\traditional\math\aarg.asm
                  __REMB1   0x000004       data     extern E:\3.46\pic18-lt\cxx-framework\src\traditional\math\aarg.asm
                 __AARGB5   0x000004       data     extern E:\3.46\pic18-lt\cxx-framework\src\traditional\math\aarg.asm
                 __AARGB4   0x000005       data     extern E:\3.46\pic18-lt\cxx-framework\src\traditional\math\aarg.asm
                  __REMB0   0x000005       data     extern E:\3.46\pic18-lt\cxx-framework\src\traditional\math\aarg.asm
                 __AARGB3   0x000006       data     extern E:\3.46\pic18-lt\cxx-framework\src\traditional\math\aarg.asm
                 __AARGB2   0x000007       data     extern E:\3.46\pic18-lt\cxx-framework\src\traditional\math\aarg.asm
                 __AARGB1   0x000008       data     extern E:\3.46\pic18-lt\cxx-framework\src\traditional\math\aarg.asm
                 __AARGB0   0x000009       data     extern E:\3.46\pic18-lt\cxx-framework\src\traditional\math\aarg.asm
                   __AEXP   0x00000a       data     extern E:\3.46\pic18-lt\cxx-framework\src\traditional\math\aarg.asm
                 __BARGB3   0x00000b       data     extern E:\3.46\pic18-lt\cxx-framework\src\traditional\math\barg.asm
                 __BARGB2   0x00000c       data     extern E:\3.46\pic18-lt\cxx-framework\src\traditional\math\barg.asm
                 __BARGB1   0x00000d       data     extern E:\3.46\pic18-lt\cxx-framework\src\traditional\math\barg.asm
                 __BARGB0   0x00000e       data     extern E:\3.46\pic18-lt\cxx-framework\src\traditional\math\barg.asm
                   __BEXP   0x00000f       data     extern E:\3.46\pic18-lt\cxx-framework\src\traditional\math\barg.asm
                 __TEMPB3   0x000010       data     extern E:\3.46\pic18-lt\cxx-framework\src\traditional\math\temparg.asm
                 __TEMPB2   0x000011       data     extern E:\3.46\pic18-lt\cxx-framework\src\traditional\math\temparg.asm
                 __TEMPB1   0x000012       data     extern E:\3.46\pic18-lt\cxx-framework\src\traditional\math\temparg.asm
                 __TEMPB0   0x000013       data     extern E:\3.46\pic18-lt\cxx-framework\src\traditional\math\temparg.asm
                   __TEMP   0x000013       data     extern E:\3.46\pic18-lt\cxx-framework\src\traditional\math\temparg.asm
                  __tmp_0   0x000014       data     static C:\GIT-REPOS\Siebwalde\TrackController3.X\I2c2\i2c1eerr.c
                  __tmp_0   0x000014       data     static C:\GIT-REPOS\Siebwalde\TrackController3.X\I2c2\i2c1eesr.c
                  __tmp_0   0x000014       data     static C:\GIT-REPOS\Siebwalde\TrackController3.X\I2c2\i2c1eepw.c
                  __tmp_0   0x000014       data     static C:\GIT-REPOS\Siebwalde\TrackController3.X\I2c2\i2c1eecr.c
                  __tmp_0   0x000014       data     static E:\3.46\pic18-lt\cxx-framework\src\traditional\stdclib\printf.c
                  __tmp_0   0x000014       data     static E:\3.46\pic18-lt\cxx-framework\src\traditional\stdclib\vfprintf.c
                  __tmp_0   0x000014       data     static C:\GIT-REPOS\Siebwalde\TrackController3.X\eusart2.c
                  __tmp_0   0x000014       data     static C:\GIT-REPOS\Siebwalde\TrackController3.X\eusart1.c
                  __tmp_0   0x000014       data     static C:\GIT-REPOS\Siebwalde\TrackController3.X\I2c2\i2c1eeap.c
                  __tmp_0   0x000014       data     static C:\GIT-REPOS\Siebwalde\TrackController3.X\I2c2\i2c1eebw.c
                  __tmp_0   0x000014       data     static C:\GIT-REPOS\Siebwalde\TrackController3.X\I2c2\i2c1idle.c
                  __tmp_0   0x000014       data     static C:\GIT-REPOS\Siebwalde\TrackController3.X\I2c2\i2c1read.c
                  __tmp_0   0x000014       data     static C:\GIT-REPOS\Siebwalde\TrackController3.X\I2c2\i2c1writ.c
                  __tmp_0   0x000014       data     static C:\GIT-REPOS\Siebwalde\TrackController3.X\I2c2\i2c2eeap.c
                  __tmp_0   0x000014       data     static C:\GIT-REPOS\Siebwalde\TrackController3.X\I2c2\i2c2eebw.c
                  __tmp_0   0x000014       data     static C:\GIT-REPOS\Siebwalde\TrackController3.X\I2c2\i2c2eecr.c
                  __tmp_0   0x000014       data     static C:\GIT-REPOS\Siebwalde\TrackController3.X\I2c2\i2c2eepw.c
                  __tmp_0   0x000014       data     static C:\GIT-REPOS\Siebwalde\TrackController3.X\I2c2\i2c2eerr.c
                  __tmp_0   0x000014       data     static C:\GIT-REPOS\Siebwalde\TrackController3.X\I2c2\i2c2eesr.c
                  __tmp_0   0x000014       data     static C:\GIT-REPOS\Siebwalde\TrackController3.X\I2c2\i2c2idle.c
                  __tmp_0   0x000014       data     static C:\GIT-REPOS\Siebwalde\TrackController3.X\I2c2\i2c2read.c
                  __tmp_0   0x000014       data     static C:\GIT-REPOS\Siebwalde\TrackController3.X\I2c2\i2c2writ.c
                  __tmp_0   0x000014       data     static C:\GIT-REPOS\Siebwalde\TrackController3.X\modbus\PetitModbus.c
                  __tmp_0   0x000014       data     static E:\3.46\pic18-lt\cxx-framework\src\traditional\stdclib\putc.c
          eusart1TxBuffer   0x000060       data     static C:\GIT-REPOS\Siebwalde\TrackController3.X\eusart1.c
 eusart1TxBufferRemaining   0x000074       data     extern C:\GIT-REPOS\Siebwalde\TrackController3.X\eusart1.c
          eusart1RxBuffer   0x000075       data     static C:\GIT-REPOS\Siebwalde\TrackController3.X\eusart1.c
           eusart1RxCount   0x0000f3       data     extern C:\GIT-REPOS\Siebwalde\TrackController3.X\eusart1.c
                   txData   0x0000f4       data     static C:\GIT-REPOS\Siebwalde\TrackController3.X\eusart1.c
        __EUSART1_Write:0   0x0000f4       data     extern C:\GIT-REPOS\Siebwalde\TrackController3.X\eusart1.c
           ___user_putc:0   0x0000f5       data     extern C:\GIT-REPOS\Siebwalde\TrackController3.X\eusart1.c
                        c   0x0000f5       data     static C:\GIT-REPOS\Siebwalde\TrackController3.X\eusart1.c
                     prom   0x0000f6       data     static E:\3.46\pic18-lt\cxx-framework\src\traditional\startup\c018i.c
                curr_byte   0x0000f9       data     static E:\3.46\pic18-lt\cxx-framework\src\traditional\startup\c018i.c
               curr_entry   0x0000fb       data     static E:\3.46\pic18-lt\cxx-framework\src\traditional\startup\c018i.c
                 data_ptr   0x0000fd       data     static E:\3.46\pic18-lt\cxx-framework\src\traditional\startup\c018i.c
          eusart2TxBuffer   0x000100       data     static C:\GIT-REPOS\Siebwalde\TrackController3.X\eusart2.c
 eusart2TxBufferRemaining   0x000114       data     extern C:\GIT-REPOS\Siebwalde\TrackController3.X\eusart2.c
          eusart2RxBuffer   0x000115       data     static C:\GIT-REPOS\Siebwalde\TrackController3.X\eusart2.c
           eusart2RxCount   0x000193       data     extern C:\GIT-REPOS\Siebwalde\TrackController3.X\eusart2.c
                   txData   0x000194       data     static C:\GIT-REPOS\Siebwalde\TrackController3.X\eusart2.c
        __EUSART2_Write:0   0x000194       data     extern C:\GIT-REPOS\Siebwalde\TrackController3.X\eusart2.c
                SlaveInfo   0x000195       data     static C:\GIT-REPOS\Siebwalde\TrackController3.X\FiddleYard.c
Enable_State_Machine_Update   0x0001e5       data     extern C:\GIT-REPOS\Siebwalde\TrackController3.X\FiddleYard.c
State_Machine_Update_Counter   0x0001e6       data     extern C:\GIT-REPOS\Siebwalde\TrackController3.X\FiddleYard.c
                    slave   0x0001e8       data     extern C:\GIT-REPOS\Siebwalde\TrackController3.X\FiddleYard.c
                    temp3   0x0001e9       data     extern C:\GIT-REPOS\Siebwalde\TrackController3.X\FiddleYard.c
                  timeout   0x0001ed       data     extern C:\GIT-REPOS\Siebwalde\TrackController3.X\I2c2\i2c2read.c
                  _return   0x0001f1       data     extern C:\GIT-REPOS\Siebwalde\TrackController3.X\I2c2\i2c2read.c
    __EESequentialRead2:0   0x0001f3       data     extern C:\GIT-REPOS\Siebwalde\TrackController3.X\I2c2\i2c2eesr.c
                  control   0x0001f3       data     static C:\GIT-REPOS\Siebwalde\TrackController3.X\I2c2\i2c2eesr.c
                  address   0x0001f4       data     static C:\GIT-REPOS\Siebwalde\TrackController3.X\I2c2\i2c2eesr.c
    __EESequentialRead2:1   0x0001f4       data     extern C:\GIT-REPOS\Siebwalde\TrackController3.X\I2c2\i2c2eesr.c
    __EESequentialRead2:2   0x0001f5       data     extern C:\GIT-REPOS\Siebwalde\TrackController3.X\I2c2\i2c2eesr.c
                    rdptr   0x0001f5       data     static C:\GIT-REPOS\Siebwalde\TrackController3.X\I2c2\i2c2eesr.c
                   length   0x0001f7       data     static C:\GIT-REPOS\Siebwalde\TrackController3.X\I2c2\i2c2eesr.c
    __EESequentialRead2:3   0x0001f7       data     extern C:\GIT-REPOS\Siebwalde\TrackController3.X\I2c2\i2c2eesr.c
    __EESequentialRead1:0   0x0001f8       data     extern C:\GIT-REPOS\Siebwalde\TrackController3.X\I2c2\i2c1eesr.c
                  control   0x0001f8       data     static C:\GIT-REPOS\Siebwalde\TrackController3.X\I2c2\i2c1eesr.c
    __EESequentialRead1:1   0x0001f9       data     extern C:\GIT-REPOS\Siebwalde\TrackController3.X\I2c2\i2c1eesr.c
                  address   0x0001f9       data     static C:\GIT-REPOS\Siebwalde\TrackController3.X\I2c2\i2c1eesr.c
    __EESequentialRead1:2   0x0001fa       data     extern C:\GIT-REPOS\Siebwalde\TrackController3.X\I2c2\i2c1eesr.c
                    rdptr   0x0001fa       data     static C:\GIT-REPOS\Siebwalde\TrackController3.X\I2c2\i2c1eesr.c
                   length   0x0001fc       data     static C:\GIT-REPOS\Siebwalde\TrackController3.X\I2c2\i2c1eesr.c
    __EESequentialRead1:3   0x0001fc       data     extern C:\GIT-REPOS\Siebwalde\TrackController3.X\I2c2\i2c1eesr.c
             __putsI2C2:0   0x0001fd       data     extern C:\GIT-REPOS\Siebwalde\TrackController3.X\I2c2\i2c2puts.c
                    wrptr   0x0001fd       data     static C:\GIT-REPOS\Siebwalde\TrackController3.X\I2c2\i2c2puts.c
                     temp   0x0001ff       data     static C:\GIT-REPOS\Siebwalde\TrackController3.X\I2c2\i2c2puts.c
        MASTER_SLAVE_DATA   0x000e00       data     static C:\GIT-REPOS\Siebwalde\TrackController3.X\modbus\PetitModbus.c
         Petit_Tx_Current   0x000e02       data     extern C:\GIT-REPOS\Siebwalde\TrackController3.X\modbus\PetitModbus.c
           Petit_Tx_CRC16   0x000e04       data     extern C:\GIT-REPOS\Siebwalde\TrackController3.X\modbus\PetitModbus.c
           Petit_Tx_State   0x000e06       data     extern C:\GIT-REPOS\Siebwalde\TrackController3.X\modbus\PetitModbus.c
        Petit_Tx_Buf_Size   0x000e07       data     extern C:\GIT-REPOS\Siebwalde\TrackController3.X\modbus\PetitModbus.c
           Petit_Rx_CRC16   0x000e09       data     extern C:\GIT-REPOS\Siebwalde\TrackController3.X\modbus\PetitModbus.c
           Petit_Rx_State   0x000e0b       data     extern C:\GIT-REPOS\Siebwalde\TrackController3.X\modbus\PetitModbus.c
  Petit_Rx_Data_Available   0x000e0c       data     extern C:\GIT-REPOS\Siebwalde\TrackController3.X\modbus\PetitModbus.c
    PetitModbusTimerValue   0x000e0d       data     extern C:\GIT-REPOS\Siebwalde\TrackController3.X\modbus\PetitModbus.c
SlaveAnswerTimeoutCounter   0x000e0f       data     extern C:\GIT-REPOS\Siebwalde\TrackController3.X\modbus\PetitModbus.c
                 uchCRCHi   0x000e11       data     static C:\GIT-REPOS\Siebwalde\TrackController3.X\modbus\PetitModbus.c
                 uchCRCLo   0x000e13       data     static C:\GIT-REPOS\Siebwalde\TrackController3.X\modbus\PetitModbus.c
PetitExpectedReceiveCount   0x000e15       data     static C:\GIT-REPOS\Siebwalde\TrackController3.X\modbus\PetitModbus.c
Petit_ReceiveBufferControl   0x000e17       data     static C:\GIT-REPOS\Siebwalde\TrackController3.X\modbus\PetitModbus.c
               return_val   0x000e18       data     static C:\GIT-REPOS\Siebwalde\TrackController3.X\modbus\PetitModbus.c
       Petit_StartAddress   0x000e19       data     static C:\GIT-REPOS\Siebwalde\TrackController3.X\modbus\PetitModbus.c
Petit_NumberOfRegistersBytes   0x000e1b       data     static C:\GIT-REPOS\Siebwalde\TrackController3.X\modbus\PetitModbus.c
  Petit_NumberOfRegisters   0x000e1d       data     static C:\GIT-REPOS\Siebwalde\TrackController3.X\modbus\PetitModbus.c
                  Petit_i   0x000e1f       data     static C:\GIT-REPOS\Siebwalde\TrackController3.X\modbus\PetitModbus.c
             BufReadIndex   0x000e21       data     static C:\GIT-REPOS\Siebwalde\TrackController3.X\modbus\PetitModbus.c
                  RegData   0x000e23       data     static C:\GIT-REPOS\Siebwalde\TrackController3.X\modbus\PetitModbus.c
       Petit_StartAddress   0x000e25       data     static C:\GIT-REPOS\Siebwalde\TrackController3.X\modbus\PetitModbus.c
  Petit_NumberOfRegisters   0x000e27       data     static C:\GIT-REPOS\Siebwalde\TrackController3.X\modbus\PetitModbus.c
       PetitReceiveBuffer   0x000e29       data     extern C:\GIT-REPOS\Siebwalde\TrackController3.X\modbus\PetitModbusPort.c
__PetitModBus_UART_Putch:0   0x000e41       data     extern C:\GIT-REPOS\Siebwalde\TrackController3.X\modbus\PetitModbusPort.c
                        c   0x000e41       data     static C:\GIT-REPOS\Siebwalde\TrackController3.X\modbus\PetitModbusPort.c
                        s   0x000e42       data     static C:\GIT-REPOS\Siebwalde\TrackController3.X\modbus\PetitModbusPort.c
__PetitModBus_UART_String:0   0x000e42       data     extern C:\GIT-REPOS\Siebwalde\TrackController3.X\modbus\PetitModbusPort.c
__PetitModBus_UART_String:1   0x000e44       data     extern C:\GIT-REPOS\Siebwalde\TrackController3.X\modbus\PetitModbusPort.c
                   Length   0x000e44       data     static C:\GIT-REPOS\Siebwalde\TrackController3.X\modbus\PetitModbusPort.c
             DummyCounter   0x000e46       data     static C:\GIT-REPOS\Siebwalde\TrackController3.X\modbus\PetitModbusPort.c
     __ReceiveInterrupt:0   0x000e48       data     extern C:\GIT-REPOS\Siebwalde\TrackController3.X\modbus\PetitModbusPort.c
                     Data   0x000e48       data     static C:\GIT-REPOS\Siebwalde\TrackController3.X\modbus\PetitModbusPort.c
            eusart2TxHead   0x000e49       data     static C:\GIT-REPOS\Siebwalde\TrackController3.X\eusart2.c
            eusart2TxTail   0x000e4a       data     static C:\GIT-REPOS\Siebwalde\TrackController3.X\eusart2.c
            eusart2RxHead   0x000e4b       data     static C:\GIT-REPOS\Siebwalde\TrackController3.X\eusart2.c
            eusart2RxTail   0x000e4c       data     static C:\GIT-REPOS\Siebwalde\TrackController3.X\eusart2.c
                readValue   0x000e4d       data     static C:\GIT-REPOS\Siebwalde\TrackController3.X\eusart2.c
            eusart1TxHead   0x000e4e       data     static C:\GIT-REPOS\Siebwalde\TrackController3.X\eusart1.c
            eusart1TxTail   0x000e4f       data     static C:\GIT-REPOS\Siebwalde\TrackController3.X\eusart1.c
            eusart1RxHead   0x000e50       data     static C:\GIT-REPOS\Siebwalde\TrackController3.X\eusart1.c
            eusart1RxTail   0x000e51       data     static C:\GIT-REPOS\Siebwalde\TrackController3.X\eusart1.c
                readValue   0x000e52       data     static C:\GIT-REPOS\Siebwalde\TrackController3.X\eusart1.c
         __EEPageWrite2:0   0x000e53       data     extern C:\GIT-REPOS\Siebwalde\TrackController3.X\I2c2\i2c2eepw.c
                  control   0x000e53       data     static C:\GIT-REPOS\Siebwalde\TrackController3.X\I2c2\i2c2eepw.c
         __EEPageWrite2:1   0x000e54       data     extern C:\GIT-REPOS\Siebwalde\TrackController3.X\I2c2\i2c2eepw.c
                  address   0x000e54       data     static C:\GIT-REPOS\Siebwalde\TrackController3.X\I2c2\i2c2eepw.c
         __EEPageWrite2:2   0x000e55       data     extern C:\GIT-REPOS\Siebwalde\TrackController3.X\I2c2\i2c2eepw.c
                    wrptr   0x000e55       data     static C:\GIT-REPOS\Siebwalde\TrackController3.X\I2c2\i2c2eepw.c
         __EEPageWrite1:0   0x000e57       data     extern C:\GIT-REPOS\Siebwalde\TrackController3.X\I2c2\i2c1eepw.c
                  control   0x000e57       data     static C:\GIT-REPOS\Siebwalde\TrackController3.X\I2c2\i2c1eepw.c
         __EEPageWrite1:1   0x000e58       data     extern C:\GIT-REPOS\Siebwalde\TrackController3.X\I2c2\i2c1eepw.c
                  address   0x000e58       data     static C:\GIT-REPOS\Siebwalde\TrackController3.X\I2c2\i2c1eepw.c
                    wrptr   0x000e59       data     static C:\GIT-REPOS\Siebwalde\TrackController3.X\I2c2\i2c1eepw.c
         __EEPageWrite1:2   0x000e59       data     extern C:\GIT-REPOS\Siebwalde\TrackController3.X\I2c2\i2c1eepw.c
                    rdptr   0x000e5b       data     static C:\GIT-REPOS\Siebwalde\TrackController3.X\I2c2\i2c2gets.c
             __getsI2C2:0   0x000e5b       data     extern C:\GIT-REPOS\Siebwalde\TrackController3.X\I2c2\i2c2gets.c
                   length   0x000e5d       data     static C:\GIT-REPOS\Siebwalde\TrackController3.X\I2c2\i2c2gets.c
             __getsI2C2:1   0x000e5d       data     extern C:\GIT-REPOS\Siebwalde\TrackController3.X\I2c2\i2c2gets.c
         __EEByteWrite2:0   0x000e5e       data     extern C:\GIT-REPOS\Siebwalde\TrackController3.X\I2c2\i2c2eebw.c
                  control   0x000e5e       data     static C:\GIT-REPOS\Siebwalde\TrackController3.X\I2c2\i2c2eebw.c
         __EEByteWrite2:1   0x000e5f       data     extern C:\GIT-REPOS\Siebwalde\TrackController3.X\I2c2\i2c2eebw.c
                  address   0x000e5f       data     static C:\GIT-REPOS\Siebwalde\TrackController3.X\I2c2\i2c2eebw.c
         __EEByteWrite2:2   0x000e60       data     extern C:\GIT-REPOS\Siebwalde\TrackController3.X\I2c2\i2c2eebw.c
                     data   0x000e60       data     static C:\GIT-REPOS\Siebwalde\TrackController3.X\I2c2\i2c2eebw.c
                    wrptr   0x000e61       data     static C:\GIT-REPOS\Siebwalde\TrackController3.X\I2c2\i2c1puts.c
             __putsI2C1:0   0x000e61       data     extern C:\GIT-REPOS\Siebwalde\TrackController3.X\I2c2\i2c1puts.c
                     temp   0x000e63       data     static C:\GIT-REPOS\Siebwalde\TrackController3.X\I2c2\i2c1puts.c
                    rdptr   0x000e64       data     static C:\GIT-REPOS\Siebwalde\TrackController3.X\I2c2\i2c1gets.c
             __getsI2C1:0   0x000e64       data     extern C:\GIT-REPOS\Siebwalde\TrackController3.X\I2c2\i2c1gets.c
             __getsI2C1:1   0x000e66       data     extern C:\GIT-REPOS\Siebwalde\TrackController3.X\I2c2\i2c1gets.c
                   length   0x000e66       data     static C:\GIT-REPOS\Siebwalde\TrackController3.X\I2c2\i2c1gets.c
         __EEByteWrite1:0   0x000e67       data     extern C:\GIT-REPOS\Siebwalde\TrackController3.X\I2c2\i2c1eebw.c
                  control   0x000e67       data     static C:\GIT-REPOS\Siebwalde\TrackController3.X\I2c2\i2c1eebw.c
                  address   0x000e68       data     static C:\GIT-REPOS\Siebwalde\TrackController3.X\I2c2\i2c1eebw.c
         __EEByteWrite1:1   0x000e68       data     extern C:\GIT-REPOS\Siebwalde\TrackController3.X\I2c2\i2c1eebw.c
         __EEByteWrite1:2   0x000e69       data     extern C:\GIT-REPOS\Siebwalde\TrackController3.X\I2c2\i2c1eebw.c
                     data   0x000e69       data     static C:\GIT-REPOS\Siebwalde\TrackController3.X\I2c2\i2c1eebw.c
        __EERandomRead2:0   0x000e6a       data     extern C:\GIT-REPOS\Siebwalde\TrackController3.X\I2c2\i2c2eerr.c
                  control   0x000e6a       data     static C:\GIT-REPOS\Siebwalde\TrackController3.X\I2c2\i2c2eerr.c
        __EERandomRead2:1   0x000e6b       data     extern C:\GIT-REPOS\Siebwalde\TrackController3.X\I2c2\i2c2eerr.c
                  address   0x000e6b       data     static C:\GIT-REPOS\Siebwalde\TrackController3.X\I2c2\i2c2eerr.c
             __OpenI2C1:0   0x000e6c       data     extern C:\GIT-REPOS\Siebwalde\TrackController3.X\I2c2\i2c1open.c
                sync_mode   0x000e6c       data     static C:\GIT-REPOS\Siebwalde\TrackController3.X\I2c2\i2c1open.c
             __OpenI2C1:1   0x000e6d       data     extern C:\GIT-REPOS\Siebwalde\TrackController3.X\I2c2\i2c1open.c
                     slew   0x000e6d       data     static C:\GIT-REPOS\Siebwalde\TrackController3.X\I2c2\i2c1open.c
                  control   0x000e6e       data     static C:\GIT-REPOS\Siebwalde\TrackController3.X\I2c2\i2c1eerr.c
        __EERandomRead1:0   0x000e6e       data     extern C:\GIT-REPOS\Siebwalde\TrackController3.X\I2c2\i2c1eerr.c
                  address   0x000e6f       data     static C:\GIT-REPOS\Siebwalde\TrackController3.X\I2c2\i2c1eerr.c
        __EERandomRead1:1   0x000e6f       data     extern C:\GIT-REPOS\Siebwalde\TrackController3.X\I2c2\i2c1eerr.c
      Timer1_Tick_Counter   0x000e70       data     extern C:\GIT-REPOS\Siebwalde\TrackController3.X\modbus\General.c
                   stdout   0x000e72       data     extern E:\3.46\pic18-lt\cxx-framework\src\traditional\stdclib\stdout.c
            __WriteI2C2:0   0x000e74       data     extern C:\GIT-REPOS\Siebwalde\TrackController3.X\I2c2\i2c2writ.c
                 data_out   0x000e74       data     static C:\GIT-REPOS\Siebwalde\TrackController3.X\I2c2\i2c2writ.c
                  control   0x000e75       data     static C:\GIT-REPOS\Siebwalde\TrackController3.X\I2c2\i2c2eecr.c
    __EECurrentAddRead2:0   0x000e75       data     extern C:\GIT-REPOS\Siebwalde\TrackController3.X\I2c2\i2c2eecr.c
        __EEAckPolling2:0   0x000e76       data     extern C:\GIT-REPOS\Siebwalde\TrackController3.X\I2c2\i2c2eeap.c
                  control   0x000e76       data     static C:\GIT-REPOS\Siebwalde\TrackController3.X\I2c2\i2c2eeap.c
            __WriteI2C1:0   0x000e77       data     extern C:\GIT-REPOS\Siebwalde\TrackController3.X\I2c2\i2c1writ.c
                 data_out   0x000e77       data     static C:\GIT-REPOS\Siebwalde\TrackController3.X\I2c2\i2c1writ.c
    __EECurrentAddRead1:0   0x000e78       data     extern C:\GIT-REPOS\Siebwalde\TrackController3.X\I2c2\i2c1eecr.c
                  control   0x000e78       data     static C:\GIT-REPOS\Siebwalde\TrackController3.X\I2c2\i2c1eecr.c
                  control   0x000e79       data     static C:\GIT-REPOS\Siebwalde\TrackController3.X\I2c2\i2c1eeap.c
        __EEAckPolling1:0   0x000e79       data     extern C:\GIT-REPOS\Siebwalde\TrackController3.X\I2c2\i2c1eeap.c
      PetitReceiveCounter   0x000e7a       data     extern C:\GIT-REPOS\Siebwalde\TrackController3.X\modbus\PetitModbusPort.c
                   MAADR5   0x000e80       data     extern E:\3.46\pic18-lt\cxx-framework\src\traditional\proc\p18f97j60.asm
                   MAADR6   0x000e81       data     extern E:\3.46\pic18-lt\cxx-framework\src\traditional\proc\p18f97j60.asm
                   MAADR3   0x000e82       data     extern E:\3.46\pic18-lt\cxx-framework\src\traditional\proc\p18f97j60.asm
                   MAADR4   0x000e83       data     extern E:\3.46\pic18-lt\cxx-framework\src\traditional\proc\p18f97j60.asm
                   MAADR1   0x000e84       data     extern E:\3.46\pic18-lt\cxx-framework\src\traditional\proc\p18f97j60.asm
                   MAADR2   0x000e85       data     extern E:\3.46\pic18-lt\cxx-framework\src\traditional\proc\p18f97j60.asm
               MISTATbits   0x000e8a       data     extern E:\3.46\pic18-lt\cxx-framework\src\traditional\proc\p18f97j60.asm
                   MISTAT   0x000e8a       data     extern E:\3.46\pic18-lt\cxx-framework\src\traditional\proc\p18f97j60.asm
                  EFLOCON   0x000e97       data     extern E:\3.46\pic18-lt\cxx-framework\src\traditional\proc\p18f97j60.asm
              EFLOCONbits   0x000e97       data     extern E:\3.46\pic18-lt\cxx-framework\src\traditional\proc\p18f97j60.asm
                    EPAUS   0x000e98       data     extern E:\3.46\pic18-lt\cxx-framework\src\traditional\proc\p18f97j60.asm
                   EPAUSL   0x000e98       data     extern E:\3.46\pic18-lt\cxx-framework\src\traditional\proc\p18f97j60.asm
                   EPAUSH   0x000e99       data     extern E:\3.46\pic18-lt\cxx-framework\src\traditional\proc\p18f97j60.asm
                   MACON1   0x000ea0       data     extern E:\3.46\pic18-lt\cxx-framework\src\traditional\proc\p18f97j60.asm
               MACON1bits   0x000ea0       data     extern E:\3.46\pic18-lt\cxx-framework\src\traditional\proc\p18f97j60.asm
                   MACON3   0x000ea2       data     extern E:\3.46\pic18-lt\cxx-framework\src\traditional\proc\p18f97j60.asm
               MACON3bits   0x000ea2       data     extern E:\3.46\pic18-lt\cxx-framework\src\traditional\proc\p18f97j60.asm
                   MACON4   0x000ea3       data     extern E:\3.46\pic18-lt\cxx-framework\src\traditional\proc\p18f97j60.asm
               MACON4bits   0x000ea3       data     extern E:\3.46\pic18-lt\cxx-framework\src\traditional\proc\p18f97j60.asm
                  MABBIPG   0x000ea4       data     extern E:\3.46\pic18-lt\cxx-framework\src\traditional\proc\p18f97j60.asm
              MABBIPGbits   0x000ea4       data     extern E:\3.46\pic18-lt\cxx-framework\src\traditional\proc\p18f97j60.asm
                    MAIPG   0x000ea6       data     extern E:\3.46\pic18-lt\cxx-framework\src\traditional\proc\p18f97j60.asm
                   MAIPGL   0x000ea6       data     extern E:\3.46\pic18-lt\cxx-framework\src\traditional\proc\p18f97j60.asm
                   MAIPGH   0x000ea7       data     extern E:\3.46\pic18-lt\cxx-framework\src\traditional\proc\p18f97j60.asm
                   MAMXFL   0x000eaa       data     extern E:\3.46\pic18-lt\cxx-framework\src\traditional\proc\p18f97j60.asm
                  MAMXFLL   0x000eaa       data     extern E:\3.46\pic18-lt\cxx-framework\src\traditional\proc\p18f97j60.asm
                  MAMXFLH   0x000eab       data     extern E:\3.46\pic18-lt\cxx-framework\src\traditional\proc\p18f97j60.asm
                    MICMD   0x000eb2       data     extern E:\3.46\pic18-lt\cxx-framework\src\traditional\proc\p18f97j60.asm
                MICMDbits   0x000eb2       data     extern E:\3.46\pic18-lt\cxx-framework\src\traditional\proc\p18f97j60.asm
                 MIREGADR   0x000eb4       data     extern E:\3.46\pic18-lt\cxx-framework\src\traditional\proc\p18f97j60.asm
                     MIWR   0x000eb6       data     extern E:\3.46\pic18-lt\cxx-framework\src\traditional\proc\p18f97j60.asm
                    MIWRL   0x000eb6       data     extern E:\3.46\pic18-lt\cxx-framework\src\traditional\proc\p18f97j60.asm
                    MIWRH   0x000eb7       data     extern E:\3.46\pic18-lt\cxx-framework\src\traditional\proc\p18f97j60.asm
                    MIRDL   0x000eb8       data     extern E:\3.46\pic18-lt\cxx-framework\src\traditional\proc\p18f97j60.asm
                     MIRD   0x000eb8       data     extern E:\3.46\pic18-lt\cxx-framework\src\traditional\proc\p18f97j60.asm
                    MIRDH   0x000eb9       data     extern E:\3.46\pic18-lt\cxx-framework\src\traditional\proc\p18f97j60.asm
                     EHT0   0x000ec0       data     extern E:\3.46\pic18-lt\cxx-framework\src\traditional\proc\p18f97j60.asm
                     EHT1   0x000ec1       data     extern E:\3.46\pic18-lt\cxx-framework\src\traditional\proc\p18f97j60.asm
                     EHT2   0x000ec2       data     extern E:\3.46\pic18-lt\cxx-framework\src\traditional\proc\p18f97j60.asm
                     EHT3   0x000ec3       data     extern E:\3.46\pic18-lt\cxx-framework\src\traditional\proc\p18f97j60.asm
                     EHT4   0x000ec4       data     extern E:\3.46\pic18-lt\cxx-framework\src\traditional\proc\p18f97j60.asm
                     EHT5   0x000ec5       data     extern E:\3.46\pic18-lt\cxx-framework\src\traditional\proc\p18f97j60.asm
                     EHT6   0x000ec6       data     extern E:\3.46\pic18-lt\cxx-framework\src\traditional\proc\p18f97j60.asm
                     EHT7   0x000ec7       data     extern E:\3.46\pic18-lt\cxx-framework\src\traditional\proc\p18f97j60.asm
                    EPMM0   0x000ec8       data     extern E:\3.46\pic18-lt\cxx-framework\src\traditional\proc\p18f97j60.asm
                    EPMM1   0x000ec9       data     extern E:\3.46\pic18-lt\cxx-framework\src\traditional\proc\p18f97j60.asm
                    EPMM2   0x000eca       data     extern E:\3.46\pic18-lt\cxx-framework\src\traditional\proc\p18f97j60.asm
                    EPMM3   0x000ecb       data     extern E:\3.46\pic18-lt\cxx-framework\src\traditional\proc\p18f97j60.asm
                    EPMM4   0x000ecc       data     extern E:\3.46\pic18-lt\cxx-framework\src\traditional\proc\p18f97j60.asm
                    EPMM5   0x000ecd       data     extern E:\3.46\pic18-lt\cxx-framework\src\traditional\proc\p18f97j60.asm
                    EPMM6   0x000ece       data     extern E:\3.46\pic18-lt\cxx-framework\src\traditional\proc\p18f97j60.asm
                    EPMM7   0x000ecf       data     extern E:\3.46\pic18-lt\cxx-framework\src\traditional\proc\p18f97j60.asm
                   EPMCSL   0x000ed0       data     extern E:\3.46\pic18-lt\cxx-framework\src\traditional\proc\p18f97j60.asm
                    EPMCS   0x000ed0       data     extern E:\3.46\pic18-lt\cxx-framework\src\traditional\proc\p18f97j60.asm
                   EPMCSH   0x000ed1       data     extern E:\3.46\pic18-lt\cxx-framework\src\traditional\proc\p18f97j60.asm
                     EPMO   0x000ed4       data     extern E:\3.46\pic18-lt\cxx-framework\src\traditional\proc\p18f97j60.asm
                    EPMOL   0x000ed4       data     extern E:\3.46\pic18-lt\cxx-framework\src\traditional\proc\p18f97j60.asm
                    EPMOH   0x000ed5       data     extern E:\3.46\pic18-lt\cxx-framework\src\traditional\proc\p18f97j60.asm
                  ERXFCON   0x000ed8       data     extern E:\3.46\pic18-lt\cxx-framework\src\traditional\proc\p18f97j60.asm
              ERXFCONbits   0x000ed8       data     extern E:\3.46\pic18-lt\cxx-framework\src\traditional\proc\p18f97j60.asm
                  EPKTCNT   0x000ed9       data     extern E:\3.46\pic18-lt\cxx-framework\src\traditional\proc\p18f97j60.asm
                    EWRPT   0x000ee2       data     extern E:\3.46\pic18-lt\cxx-framework\src\traditional\proc\p18f97j60.asm
                   EWRPTL   0x000ee2       data     extern E:\3.46\pic18-lt\cxx-framework\src\traditional\proc\p18f97j60.asm
                   EWRPTH   0x000ee3       data     extern E:\3.46\pic18-lt\cxx-framework\src\traditional\proc\p18f97j60.asm
                    ETXST   0x000ee4       data     extern E:\3.46\pic18-lt\cxx-framework\src\traditional\proc\p18f97j60.asm
                   ETXSTL   0x000ee4       data     extern E:\3.46\pic18-lt\cxx-framework\src\traditional\proc\p18f97j60.asm
                   ETXSTH   0x000ee5       data     extern E:\3.46\pic18-lt\cxx-framework\src\traditional\proc\p18f97j60.asm
                    ETXND   0x000ee6       data     extern E:\3.46\pic18-lt\cxx-framework\src\traditional\proc\p18f97j60.asm
                   ETXNDL   0x000ee6       data     extern E:\3.46\pic18-lt\cxx-framework\src\traditional\proc\p18f97j60.asm
                   ETXNDH   0x000ee7       data     extern E:\3.46\pic18-lt\cxx-framework\src\traditional\proc\p18f97j60.asm
                   ERXSTL   0x000ee8       data     extern E:\3.46\pic18-lt\cxx-framework\src\traditional\proc\p18f97j60.asm
                    ERXST   0x000ee8       data     extern E:\3.46\pic18-lt\cxx-framework\src\traditional\proc\p18f97j60.asm
                   ERXSTH   0x000ee9       data     extern E:\3.46\pic18-lt\cxx-framework\src\traditional\proc\p18f97j60.asm
                   ERXNDL   0x000eea       data     extern E:\3.46\pic18-lt\cxx-framework\src\traditional\proc\p18f97j60.asm
                    ERXND   0x000eea       data     extern E:\3.46\pic18-lt\cxx-framework\src\traditional\proc\p18f97j60.asm
                   ERXNDH   0x000eeb       data     extern E:\3.46\pic18-lt\cxx-framework\src\traditional\proc\p18f97j60.asm
                 ERXRDPTL   0x000eec       data     extern E:\3.46\pic18-lt\cxx-framework\src\traditional\proc\p18f97j60.asm
                  ERXRDPT   0x000eec       data     extern E:\3.46\pic18-lt\cxx-framework\src\traditional\proc\p18f97j60.asm
                 ERXRDPTH   0x000eed       data     extern E:\3.46\pic18-lt\cxx-framework\src\traditional\proc\p18f97j60.asm
                  ERXWRPT   0x000eee       data     extern E:\3.46\pic18-lt\cxx-framework\src\traditional\proc\p18f97j60.asm
                 ERXWRPTL   0x000eee       data     extern E:\3.46\pic18-lt\cxx-framework\src\traditional\proc\p18f97j60.asm
                 ERXWRPTH   0x000eef       data     extern E:\3.46\pic18-lt\cxx-framework\src\traditional\proc\p18f97j60.asm
                   EDMAST   0x000ef0       data     extern E:\3.46\pic18-lt\cxx-framework\src\traditional\proc\p18f97j60.asm
                  EDMASTL   0x000ef0       data     extern E:\3.46\pic18-lt\cxx-framework\src\traditional\proc\p18f97j60.asm
                  EDMASTH   0x000ef1       data     extern E:\3.46\pic18-lt\cxx-framework\src\traditional\proc\p18f97j60.asm
                  EDMANDL   0x000ef2       data     extern E:\3.46\pic18-lt\cxx-framework\src\traditional\proc\p18f97j60.asm
                   EDMAND   0x000ef2       data     extern E:\3.46\pic18-lt\cxx-framework\src\traditional\proc\p18f97j60.asm
                  EDMANDH   0x000ef3       data     extern E:\3.46\pic18-lt\cxx-framework\src\traditional\proc\p18f97j60.asm
                  EDMADST   0x000ef4       data     extern E:\3.46\pic18-lt\cxx-framework\src\traditional\proc\p18f97j60.asm
                 EDMADSTL   0x000ef4       data     extern E:\3.46\pic18-lt\cxx-framework\src\traditional\proc\p18f97j60.asm
                 EDMADSTH   0x000ef5       data     extern E:\3.46\pic18-lt\cxx-framework\src\traditional\proc\p18f97j60.asm
                   EDMACS   0x000ef6       data     extern E:\3.46\pic18-lt\cxx-framework\src\traditional\proc\p18f97j60.asm
                  EDMACSL   0x000ef6       data     extern E:\3.46\pic18-lt\cxx-framework\src\traditional\proc\p18f97j60.asm
                  EDMACSH   0x000ef7       data     extern E:\3.46\pic18-lt\cxx-framework\src\traditional\proc\p18f97j60.asm
                      EIE   0x000efb       data     extern E:\3.46\pic18-lt\cxx-framework\src\traditional\proc\p18f97j60.asm
                  EIEbits   0x000efb       data     extern E:\3.46\pic18-lt\cxx-framework\src\traditional\proc\p18f97j60.asm
                ESTATbits   0x000efd       data     extern E:\3.46\pic18-lt\cxx-framework\src\traditional\proc\p18f97j60.asm
                    ESTAT   0x000efd       data     extern E:\3.46\pic18-lt\cxx-framework\src\traditional\proc\p18f97j60.asm
                    ECON2   0x000efe       data     extern E:\3.46\pic18-lt\cxx-framework\src\traditional\proc\p18f97j60.asm
                ECON2bits   0x000efe       data     extern E:\3.46\pic18-lt\cxx-framework\src\traditional\proc\p18f97j60.asm
            Petit_Tx_Data   0x000f00       data     extern C:\GIT-REPOS\Siebwalde\TrackController3.X\modbus\PetitModbus.c
             Petit_Tx_Buf   0x000f1c       data     extern C:\GIT-REPOS\Siebwalde\TrackController3.X\modbus\PetitModbus.c
            Petit_Rx_Data   0x000f34       data     extern C:\GIT-REPOS\Siebwalde\TrackController3.X\modbus\PetitModbus.c
                     Data   0x000f50       data     static C:\GIT-REPOS\Siebwalde\TrackController3.X\modbus\PetitModbus.c
          __Petit_CRC16:0   0x000f50       data     extern C:\GIT-REPOS\Siebwalde\TrackController3.X\modbus\PetitModbus.c
                      CRC   0x000f51       data     static C:\GIT-REPOS\Siebwalde\TrackController3.X\modbus\PetitModbus.c
          __Petit_CRC16:1   0x000f51       data     extern C:\GIT-REPOS\Siebwalde\TrackController3.X\modbus\PetitModbus.c
                   uIndex   0x000f53       data     static C:\GIT-REPOS\Siebwalde\TrackController3.X\modbus\PetitModbus.c
                   Result   0x000f54       data     static C:\GIT-REPOS\Siebwalde\TrackController3.X\modbus\PetitModbus.c
                  Petit_i   0x000f55       data     static C:\GIT-REPOS\Siebwalde\TrackController3.X\modbus\PetitModbus.c
                 location   0x000f56       data     static C:\GIT-REPOS\Siebwalde\TrackController3.X\modbus\PetitModbus.c
      __InitPetitModbus:0   0x000f56       data     extern C:\GIT-REPOS\Siebwalde\TrackController3.X\modbus\PetitModbus.c
      __SendPetitModbus:0   0x000f58       data     extern C:\GIT-REPOS\Siebwalde\TrackController3.X\modbus\PetitModbus.c
                  Address   0x000f58       data     static C:\GIT-REPOS\Siebwalde\TrackController3.X\modbus\PetitModbus.c
      __SendPetitModbus:1   0x000f59       data     extern C:\GIT-REPOS\Siebwalde\TrackController3.X\modbus\PetitModbus.c
                 Function   0x000f59       data     static C:\GIT-REPOS\Siebwalde\TrackController3.X\modbus\PetitModbus.c
      __SendPetitModbus:2   0x000f5a       data     extern C:\GIT-REPOS\Siebwalde\TrackController3.X\modbus\PetitModbus.c
                  DataBuf   0x000f5a       data     static C:\GIT-REPOS\Siebwalde\TrackController3.X\modbus\PetitModbus.c
      __SendPetitModbus:3   0x000f5c       data     extern C:\GIT-REPOS\Siebwalde\TrackController3.X\modbus\PetitModbus.c
                  DataLen   0x000f5c       data     static C:\GIT-REPOS\Siebwalde\TrackController3.X\modbus\PetitModbus.c
             __OpenI2C2:0   0x000f5e       data     extern C:\GIT-REPOS\Siebwalde\TrackController3.X\I2c2\i2c2open.c
                sync_mode   0x000f5e       data     static C:\GIT-REPOS\Siebwalde\TrackController3.X\I2c2\i2c2open.c
             __OpenI2C2:1   0x000f5f       data     extern C:\GIT-REPOS\Siebwalde\TrackController3.X\I2c2\i2c2open.c
                     slew   0x000f5f       data     static C:\GIT-REPOS\Siebwalde\TrackController3.X\I2c2\i2c2open.c
                  EIRbits   0x000f60       data     extern E:\3.46\pic18-lt\cxx-framework\src\traditional\proc\p18f97j60.asm
                      EIR   0x000f60       data     extern E:\3.46\pic18-lt\cxx-framework\src\traditional\proc\p18f97j60.asm
                    EDATA   0x000f61       data     extern E:\3.46\pic18-lt\cxx-framework\src\traditional\proc\p18f97j60.asm
                EDATAbits   0x000f61       data     extern E:\3.46\pic18-lt\cxx-framework\src\traditional\proc\p18f97j60.asm
                 SSP2CON2   0x000f62       data     extern E:\3.46\pic18-lt\cxx-framework\src\traditional\proc\p18f97j60.asm
             SSP2CON2bits   0x000f62       data     extern E:\3.46\pic18-lt\cxx-framework\src\traditional\proc\p18f97j60.asm
             SSP2CON1bits   0x000f63       data     extern E:\3.46\pic18-lt\cxx-framework\src\traditional\proc\p18f97j60.asm
                 SSP2CON1   0x000f63       data     extern E:\3.46\pic18-lt\cxx-framework\src\traditional\proc\p18f97j60.asm
                 SSP2STAT   0x000f64       data     extern E:\3.46\pic18-lt\cxx-framework\src\traditional\proc\p18f97j60.asm
             SSP2STATbits   0x000f64       data     extern E:\3.46\pic18-lt\cxx-framework\src\traditional\proc\p18f97j60.asm
                  SSP2ADD   0x000f65       data     extern E:\3.46\pic18-lt\cxx-framework\src\traditional\proc\p18f97j60.asm
                  SSP2BUF   0x000f66       data     extern E:\3.46\pic18-lt\cxx-framework\src\traditional\proc\p18f97j60.asm
                 ECCP2DEL   0x000f67       data     extern E:\3.46\pic18-lt\cxx-framework\src\traditional\proc\p18f97j60.asm
             ECCP2DELbits   0x000f67       data     extern E:\3.46\pic18-lt\cxx-framework\src\traditional\proc\p18f97j60.asm
                  ECCP2AS   0x000f68       data     extern E:\3.46\pic18-lt\cxx-framework\src\traditional\proc\p18f97j60.asm
              ECCP2ASbits   0x000f68       data     extern E:\3.46\pic18-lt\cxx-framework\src\traditional\proc\p18f97j60.asm
                 ECCP3DEL   0x000f69       data     extern E:\3.46\pic18-lt\cxx-framework\src\traditional\proc\p18f97j60.asm
             ECCP3DELbits   0x000f69       data     extern E:\3.46\pic18-lt\cxx-framework\src\traditional\proc\p18f97j60.asm
              ECCP3ASbits   0x000f6a       data     extern E:\3.46\pic18-lt\cxx-framework\src\traditional\proc\p18f97j60.asm
                  ECCP3AS   0x000f6a       data     extern E:\3.46\pic18-lt\cxx-framework\src\traditional\proc\p18f97j60.asm
                   RCSTA2   0x000f6b       data     extern E:\3.46\pic18-lt\cxx-framework\src\traditional\proc\p18f97j60.asm
               RCSTA2bits   0x000f6b       data     extern E:\3.46\pic18-lt\cxx-framework\src\traditional\proc\p18f97j60.asm
               TXSTA2bits   0x000f6c       data     extern E:\3.46\pic18-lt\cxx-framework\src\traditional\proc\p18f97j60.asm
                   TXSTA2   0x000f6c       data     extern E:\3.46\pic18-lt\cxx-framework\src\traditional\proc\p18f97j60.asm
                   TXREG2   0x000f6d       data     extern E:\3.46\pic18-lt\cxx-framework\src\traditional\proc\p18f97j60.asm
                   RCREG2   0x000f6e       data     extern E:\3.46\pic18-lt\cxx-framework\src\traditional\proc\p18f97j60.asm
                   SPBRG2   0x000f6f       data     extern E:\3.46\pic18-lt\cxx-framework\src\traditional\proc\p18f97j60.asm
                  CCP5CON   0x000f70       data     extern E:\3.46\pic18-lt\cxx-framework\src\traditional\proc\p18f97j60.asm
              CCP5CONbits   0x000f70       data     extern E:\3.46\pic18-lt\cxx-framework\src\traditional\proc\p18f97j60.asm
                    CCPR5   0x000f71       data     extern E:\3.46\pic18-lt\cxx-framework\src\traditional\proc\p18f97j60.asm
                   CCPR5L   0x000f71       data     extern E:\3.46\pic18-lt\cxx-framework\src\traditional\proc\p18f97j60.asm
                   CCPR5H   0x000f72       data     extern E:\3.46\pic18-lt\cxx-framework\src\traditional\proc\p18f97j60.asm
              CCP4CONbits   0x000f73       data     extern E:\3.46\pic18-lt\cxx-framework\src\traditional\proc\p18f97j60.asm
                  CCP4CON   0x000f73       data     extern E:\3.46\pic18-lt\cxx-framework\src\traditional\proc\p18f97j60.asm
                    CCPR4   0x000f74       data     extern E:\3.46\pic18-lt\cxx-framework\src\traditional\proc\p18f97j60.asm
                   CCPR4L   0x000f74       data     extern E:\3.46\pic18-lt\cxx-framework\src\traditional\proc\p18f97j60.asm
                   CCPR4H   0x000f75       data     extern E:\3.46\pic18-lt\cxx-framework\src\traditional\proc\p18f97j60.asm
                    T4CON   0x000f76       data     extern E:\3.46\pic18-lt\cxx-framework\src\traditional\proc\p18f97j60.asm
                T4CONbits   0x000f76       data     extern E:\3.46\pic18-lt\cxx-framework\src\traditional\proc\p18f97j60.asm
                      PR4   0x000f77       data     extern E:\3.46\pic18-lt\cxx-framework\src\traditional\proc\p18f97j60.asm
                     TMR4   0x000f78       data     extern E:\3.46\pic18-lt\cxx-framework\src\traditional\proc\p18f97j60.asm
                 ECCP1DEL   0x000f79       data     extern E:\3.46\pic18-lt\cxx-framework\src\traditional\proc\p18f97j60.asm
             ECCP1DELbits   0x000f79       data     extern E:\3.46\pic18-lt\cxx-framework\src\traditional\proc\p18f97j60.asm
                    ERDPT   0x000f7a       data     extern E:\3.46\pic18-lt\cxx-framework\src\traditional\proc\p18f97j60.asm
                   ERDPTL   0x000f7a       data     extern E:\3.46\pic18-lt\cxx-framework\src\traditional\proc\p18f97j60.asm
                   ERDPTH   0x000f7b       data     extern E:\3.46\pic18-lt\cxx-framework\src\traditional\proc\p18f97j60.asm
                 BAUDCON2   0x000f7c       data     extern E:\3.46\pic18-lt\cxx-framework\src\traditional\proc\p18f97j60.asm
             BAUDCTL2bits   0x000f7c       data     extern E:\3.46\pic18-lt\cxx-framework\src\traditional\proc\p18f97j60.asm
             BAUDCON2bits   0x000f7c       data     extern E:\3.46\pic18-lt\cxx-framework\src\traditional\proc\p18f97j60.asm
                 BAUDCTL2   0x000f7c       data     extern E:\3.46\pic18-lt\cxx-framework\src\traditional\proc\p18f97j60.asm
                  SPBRGH2   0x000f7d       data     extern E:\3.46\pic18-lt\cxx-framework\src\traditional\proc\p18f97j60.asm
             BAUDCON1bits   0x000f7e       data     extern E:\3.46\pic18-lt\cxx-framework\src\traditional\proc\p18f97j60.asm
                 BAUDCON1   0x000f7e       data     extern E:\3.46\pic18-lt\cxx-framework\src\traditional\proc\p18f97j60.asm
             BAUDCTL1bits   0x000f7e       data     extern E:\3.46\pic18-lt\cxx-framework\src\traditional\proc\p18f97j60.asm
                  BAUDCON   0x000f7e       data     extern E:\3.46\pic18-lt\cxx-framework\src\traditional\proc\p18f97j60.asm
                 BAUDCTL1   0x000f7e       data     extern E:\3.46\pic18-lt\cxx-framework\src\traditional\proc\p18f97j60.asm
              BAUDCTLbits   0x000f7e       data     extern E:\3.46\pic18-lt\cxx-framework\src\traditional\proc\p18f97j60.asm
                  BAUDCTL   0x000f7e       data     extern E:\3.46\pic18-lt\cxx-framework\src\traditional\proc\p18f97j60.asm
              BAUDCONbits   0x000f7e       data     extern E:\3.46\pic18-lt\cxx-framework\src\traditional\proc\p18f97j60.asm
                  SPBRGH1   0x000f7f       data     extern E:\3.46\pic18-lt\cxx-framework\src\traditional\proc\p18f97j60.asm
                   SPBRGH   0x000f7f       data     extern E:\3.46\pic18-lt\cxx-framework\src\traditional\proc\p18f97j60.asm
                PORTAbits   0x000f80       data     extern E:\3.46\pic18-lt\cxx-framework\src\traditional\proc\p18f97j60.asm
                    PORTA   0x000f80       data     extern E:\3.46\pic18-lt\cxx-framework\src\traditional\proc\p18f97j60.asm
                PORTBbits   0x000f81       data     extern E:\3.46\pic18-lt\cxx-framework\src\traditional\proc\p18f97j60.asm
                    PORTB   0x000f81       data     extern E:\3.46\pic18-lt\cxx-framework\src\traditional\proc\p18f97j60.asm
                PORTCbits   0x000f82       data     extern E:\3.46\pic18-lt\cxx-framework\src\traditional\proc\p18f97j60.asm
                    PORTC   0x000f82       data     extern E:\3.46\pic18-lt\cxx-framework\src\traditional\proc\p18f97j60.asm
                    PORTD   0x000f83       data     extern E:\3.46\pic18-lt\cxx-framework\src\traditional\proc\p18f97j60.asm
                PORTDbits   0x000f83       data     extern E:\3.46\pic18-lt\cxx-framework\src\traditional\proc\p18f97j60.asm
                    PORTE   0x000f84       data     extern E:\3.46\pic18-lt\cxx-framework\src\traditional\proc\p18f97j60.asm
                PORTEbits   0x000f84       data     extern E:\3.46\pic18-lt\cxx-framework\src\traditional\proc\p18f97j60.asm
                    PORTF   0x000f85       data     extern E:\3.46\pic18-lt\cxx-framework\src\traditional\proc\p18f97j60.asm
                PORTFbits   0x000f85       data     extern E:\3.46\pic18-lt\cxx-framework\src\traditional\proc\p18f97j60.asm
                PORTGbits   0x000f86       data     extern E:\3.46\pic18-lt\cxx-framework\src\traditional\proc\p18f97j60.asm
                    PORTG   0x000f86       data     extern E:\3.46\pic18-lt\cxx-framework\src\traditional\proc\p18f97j60.asm
                PORTHbits   0x000f87       data     extern E:\3.46\pic18-lt\cxx-framework\src\traditional\proc\p18f97j60.asm
                    PORTH   0x000f87       data     extern E:\3.46\pic18-lt\cxx-framework\src\traditional\proc\p18f97j60.asm
                    PORTJ   0x000f88       data     extern E:\3.46\pic18-lt\cxx-framework\src\traditional\proc\p18f97j60.asm
                PORTJbits   0x000f88       data     extern E:\3.46\pic18-lt\cxx-framework\src\traditional\proc\p18f97j60.asm
                     LATA   0x000f89       data     extern E:\3.46\pic18-lt\cxx-framework\src\traditional\proc\p18f97j60.asm
                 LATAbits   0x000f89       data     extern E:\3.46\pic18-lt\cxx-framework\src\traditional\proc\p18f97j60.asm
                 LATBbits   0x000f8a       data     extern E:\3.46\pic18-lt\cxx-framework\src\traditional\proc\p18f97j60.asm
                     LATB   0x000f8a       data     extern E:\3.46\pic18-lt\cxx-framework\src\traditional\proc\p18f97j60.asm
                 LATCbits   0x000f8b       data     extern E:\3.46\pic18-lt\cxx-framework\src\traditional\proc\p18f97j60.asm
                     LATC   0x000f8b       data     extern E:\3.46\pic18-lt\cxx-framework\src\traditional\proc\p18f97j60.asm
                 LATDbits   0x000f8c       data     extern E:\3.46\pic18-lt\cxx-framework\src\traditional\proc\p18f97j60.asm
                     LATD   0x000f8c       data     extern E:\3.46\pic18-lt\cxx-framework\src\traditional\proc\p18f97j60.asm
                 LATEbits   0x000f8d       data     extern E:\3.46\pic18-lt\cxx-framework\src\traditional\proc\p18f97j60.asm
                     LATE   0x000f8d       data     extern E:\3.46\pic18-lt\cxx-framework\src\traditional\proc\p18f97j60.asm
                 LATFbits   0x000f8e       data     extern E:\3.46\pic18-lt\cxx-framework\src\traditional\proc\p18f97j60.asm
                     LATF   0x000f8e       data     extern E:\3.46\pic18-lt\cxx-framework\src\traditional\proc\p18f97j60.asm
                 LATGbits   0x000f8f       data     extern E:\3.46\pic18-lt\cxx-framework\src\traditional\proc\p18f97j60.asm
                     LATG   0x000f8f       data     extern E:\3.46\pic18-lt\cxx-framework\src\traditional\proc\p18f97j60.asm
                 LATHbits   0x000f90       data     extern E:\3.46\pic18-lt\cxx-framework\src\traditional\proc\p18f97j60.asm
                     LATH   0x000f90       data     extern E:\3.46\pic18-lt\cxx-framework\src\traditional\proc\p18f97j60.asm
                 LATJbits   0x000f91       data     extern E:\3.46\pic18-lt\cxx-framework\src\traditional\proc\p18f97j60.asm
                     LATJ   0x000f91       data     extern E:\3.46\pic18-lt\cxx-framework\src\traditional\proc\p18f97j60.asm
                    TRISA   0x000f92       data     extern E:\3.46\pic18-lt\cxx-framework\src\traditional\proc\p18f97j60.asm
                TRISAbits   0x000f92       data     extern E:\3.46\pic18-lt\cxx-framework\src\traditional\proc\p18f97j60.asm
                 DDRAbits   0x000f92       data     extern E:\3.46\pic18-lt\cxx-framework\src\traditional\proc\p18f97j60.asm
                     DDRA   0x000f92       data     extern E:\3.46\pic18-lt\cxx-framework\src\traditional\proc\p18f97j60.asm
                     DDRB   0x000f93       data     extern E:\3.46\pic18-lt\cxx-framework\src\traditional\proc\p18f97j60.asm
                 DDRBbits   0x000f93       data     extern E:\3.46\pic18-lt\cxx-framework\src\traditional\proc\p18f97j60.asm
                TRISBbits   0x000f93       data     extern E:\3.46\pic18-lt\cxx-framework\src\traditional\proc\p18f97j60.asm
                    TRISB   0x000f93       data     extern E:\3.46\pic18-lt\cxx-framework\src\traditional\proc\p18f97j60.asm
                     DDRC   0x000f94       data     extern E:\3.46\pic18-lt\cxx-framework\src\traditional\proc\p18f97j60.asm
                 DDRCbits   0x000f94       data     extern E:\3.46\pic18-lt\cxx-framework\src\traditional\proc\p18f97j60.asm
                TRISCbits   0x000f94       data     extern E:\3.46\pic18-lt\cxx-framework\src\traditional\proc\p18f97j60.asm
                    TRISC   0x000f94       data     extern E:\3.46\pic18-lt\cxx-framework\src\traditional\proc\p18f97j60.asm
                     DDRD   0x000f95       data     extern E:\3.46\pic18-lt\cxx-framework\src\traditional\proc\p18f97j60.asm
                 DDRDbits   0x000f95       data     extern E:\3.46\pic18-lt\cxx-framework\src\traditional\proc\p18f97j60.asm
                TRISDbits   0x000f95       data     extern E:\3.46\pic18-lt\cxx-framework\src\traditional\proc\p18f97j60.asm
                    TRISD   0x000f95       data     extern E:\3.46\pic18-lt\cxx-framework\src\traditional\proc\p18f97j60.asm
                     DDRE   0x000f96       data     extern E:\3.46\pic18-lt\cxx-framework\src\traditional\proc\p18f97j60.asm
                 DDREbits   0x000f96       data     extern E:\3.46\pic18-lt\cxx-framework\src\traditional\proc\p18f97j60.asm
                    TRISE   0x000f96       data     extern E:\3.46\pic18-lt\cxx-framework\src\traditional\proc\p18f97j60.asm
                TRISEbits   0x000f96       data     extern E:\3.46\pic18-lt\cxx-framework\src\traditional\proc\p18f97j60.asm
                    TRISF   0x000f97       data     extern E:\3.46\pic18-lt\cxx-framework\src\traditional\proc\p18f97j60.asm
                TRISFbits   0x000f97       data     extern E:\3.46\pic18-lt\cxx-framework\src\traditional\proc\p18f97j60.asm
                 DDRFbits   0x000f97       data     extern E:\3.46\pic18-lt\cxx-framework\src\traditional\proc\p18f97j60.asm
                     DDRF   0x000f97       data     extern E:\3.46\pic18-lt\cxx-framework\src\traditional\proc\p18f97j60.asm
                 DDRGbits   0x000f98       data     extern E:\3.46\pic18-lt\cxx-framework\src\traditional\proc\p18f97j60.asm
                     DDRG   0x000f98       data     extern E:\3.46\pic18-lt\cxx-framework\src\traditional\proc\p18f97j60.asm
                    TRISG   0x000f98       data     extern E:\3.46\pic18-lt\cxx-framework\src\traditional\proc\p18f97j60.asm
                TRISGbits   0x000f98       data     extern E:\3.46\pic18-lt\cxx-framework\src\traditional\proc\p18f97j60.asm
                    TRISH   0x000f99       data     extern E:\3.46\pic18-lt\cxx-framework\src\traditional\proc\p18f97j60.asm
                TRISHbits   0x000f99       data     extern E:\3.46\pic18-lt\cxx-framework\src\traditional\proc\p18f97j60.asm
                     DDRH   0x000f99       data     extern E:\3.46\pic18-lt\cxx-framework\src\traditional\proc\p18f97j60.asm
                 DDRHbits   0x000f99       data     extern E:\3.46\pic18-lt\cxx-framework\src\traditional\proc\p18f97j60.asm
                    TRISJ   0x000f9a       data     extern E:\3.46\pic18-lt\cxx-framework\src\traditional\proc\p18f97j60.asm
                TRISJbits   0x000f9a       data     extern E:\3.46\pic18-lt\cxx-framework\src\traditional\proc\p18f97j60.asm
                     DDRJ   0x000f9a       data     extern E:\3.46\pic18-lt\cxx-framework\src\traditional\proc\p18f97j60.asm
                 DDRJbits   0x000f9a       data     extern E:\3.46\pic18-lt\cxx-framework\src\traditional\proc\p18f97j60.asm
              OSCTUNEbits   0x000f9b       data     extern E:\3.46\pic18-lt\cxx-framework\src\traditional\proc\p18f97j60.asm
                  OSCTUNE   0x000f9b       data     extern E:\3.46\pic18-lt\cxx-framework\src\traditional\proc\p18f97j60.asm
               MEMCONbits   0x000f9c       data     extern E:\3.46\pic18-lt\cxx-framework\src\traditional\proc\p18f97j60.asm
                   MEMCON   0x000f9c       data     extern E:\3.46\pic18-lt\cxx-framework\src\traditional\proc\p18f97j60.asm
                     PIE1   0x000f9d       data     extern E:\3.46\pic18-lt\cxx-framework\src\traditional\proc\p18f97j60.asm
                 PIE1bits   0x000f9d       data     extern E:\3.46\pic18-lt\cxx-framework\src\traditional\proc\p18f97j60.asm
                     PIR1   0x000f9e       data     extern E:\3.46\pic18-lt\cxx-framework\src\traditional\proc\p18f97j60.asm
                 PIR1bits   0x000f9e       data     extern E:\3.46\pic18-lt\cxx-framework\src\traditional\proc\p18f97j60.asm
                     IPR1   0x000f9f       data     extern E:\3.46\pic18-lt\cxx-framework\src\traditional\proc\p18f97j60.asm
                 IPR1bits   0x000f9f       data     extern E:\3.46\pic18-lt\cxx-framework\src\traditional\proc\p18f97j60.asm
                     PIE2   0x000fa0       data     extern E:\3.46\pic18-lt\cxx-framework\src\traditional\proc\p18f97j60.asm
                 PIE2bits   0x000fa0       data     extern E:\3.46\pic18-lt\cxx-framework\src\traditional\proc\p18f97j60.asm
                 PIR2bits   0x000fa1       data     extern E:\3.46\pic18-lt\cxx-framework\src\traditional\proc\p18f97j60.asm
                     PIR2   0x000fa1       data     extern E:\3.46\pic18-lt\cxx-framework\src\traditional\proc\p18f97j60.asm
                     IPR2   0x000fa2       data     extern E:\3.46\pic18-lt\cxx-framework\src\traditional\proc\p18f97j60.asm
                 IPR2bits   0x000fa2       data     extern E:\3.46\pic18-lt\cxx-framework\src\traditional\proc\p18f97j60.asm
                 PIE3bits   0x000fa3       data     extern E:\3.46\pic18-lt\cxx-framework\src\traditional\proc\p18f97j60.asm
                     PIE3   0x000fa3       data     extern E:\3.46\pic18-lt\cxx-framework\src\traditional\proc\p18f97j60.asm
                     PIR3   0x000fa4       data     extern E:\3.46\pic18-lt\cxx-framework\src\traditional\proc\p18f97j60.asm
                 PIR3bits   0x000fa4       data     extern E:\3.46\pic18-lt\cxx-framework\src\traditional\proc\p18f97j60.asm
                 IPR3bits   0x000fa5       data     extern E:\3.46\pic18-lt\cxx-framework\src\traditional\proc\p18f97j60.asm
                     IPR3   0x000fa5       data     extern E:\3.46\pic18-lt\cxx-framework\src\traditional\proc\p18f97j60.asm
                   EECON1   0x000fa6       data     extern E:\3.46\pic18-lt\cxx-framework\src\traditional\proc\p18f97j60.asm
               EECON1bits   0x000fa6       data     extern E:\3.46\pic18-lt\cxx-framework\src\traditional\proc\p18f97j60.asm
                   EECON2   0x000fa7       data     extern E:\3.46\pic18-lt\cxx-framework\src\traditional\proc\p18f97j60.asm
                RCSTAbits   0x000fab       data     extern E:\3.46\pic18-lt\cxx-framework\src\traditional\proc\p18f97j60.asm
               RCSTA1bits   0x000fab       data     extern E:\3.46\pic18-lt\cxx-framework\src\traditional\proc\p18f97j60.asm
                   RCSTA1   0x000fab       data     extern E:\3.46\pic18-lt\cxx-framework\src\traditional\proc\p18f97j60.asm
                    RCSTA   0x000fab       data     extern E:\3.46\pic18-lt\cxx-framework\src\traditional\proc\p18f97j60.asm
                    TXSTA   0x000fac       data     extern E:\3.46\pic18-lt\cxx-framework\src\traditional\proc\p18f97j60.asm
                TXSTAbits   0x000fac       data     extern E:\3.46\pic18-lt\cxx-framework\src\traditional\proc\p18f97j60.asm
               TXSTA1bits   0x000fac       data     extern E:\3.46\pic18-lt\cxx-framework\src\traditional\proc\p18f97j60.asm
                   TXSTA1   0x000fac       data     extern E:\3.46\pic18-lt\cxx-framework\src\traditional\proc\p18f97j60.asm
                   TXREG1   0x000fad       data     extern E:\3.46\pic18-lt\cxx-framework\src\traditional\proc\p18f97j60.asm
                    TXREG   0x000fad       data     extern E:\3.46\pic18-lt\cxx-framework\src\traditional\proc\p18f97j60.asm
                   RCREG1   0x000fae       data     extern E:\3.46\pic18-lt\cxx-framework\src\traditional\proc\p18f97j60.asm
                    RCREG   0x000fae       data     extern E:\3.46\pic18-lt\cxx-framework\src\traditional\proc\p18f97j60.asm
                    SPBRG   0x000faf       data     extern E:\3.46\pic18-lt\cxx-framework\src\traditional\proc\p18f97j60.asm
                   SPBRG1   0x000faf       data     extern E:\3.46\pic18-lt\cxx-framework\src\traditional\proc\p18f97j60.asm
               PSPCONbits   0x000fb0       data     extern E:\3.46\pic18-lt\cxx-framework\src\traditional\proc\p18f97j60.asm
                   PSPCON   0x000fb0       data     extern E:\3.46\pic18-lt\cxx-framework\src\traditional\proc\p18f97j60.asm
                    T3CON   0x000fb1       data     extern E:\3.46\pic18-lt\cxx-framework\src\traditional\proc\p18f97j60.asm
                T3CONbits   0x000fb1       data     extern E:\3.46\pic18-lt\cxx-framework\src\traditional\proc\p18f97j60.asm
                    TMR3L   0x000fb2       data     extern E:\3.46\pic18-lt\cxx-framework\src\traditional\proc\p18f97j60.asm
                    TMR3H   0x000fb3       data     extern E:\3.46\pic18-lt\cxx-framework\src\traditional\proc\p18f97j60.asm
                    CMCON   0x000fb4       data     extern E:\3.46\pic18-lt\cxx-framework\src\traditional\proc\p18f97j60.asm
                CMCONbits   0x000fb4       data     extern E:\3.46\pic18-lt\cxx-framework\src\traditional\proc\p18f97j60.asm
                   CVRCON   0x000fb5       data     extern E:\3.46\pic18-lt\cxx-framework\src\traditional\proc\p18f97j60.asm
               CVRCONbits   0x000fb5       data     extern E:\3.46\pic18-lt\cxx-framework\src\traditional\proc\p18f97j60.asm
              ECCP1ASbits   0x000fb6       data     extern E:\3.46\pic18-lt\cxx-framework\src\traditional\proc\p18f97j60.asm
                  ECCP1AS   0x000fb6       data     extern E:\3.46\pic18-lt\cxx-framework\src\traditional\proc\p18f97j60.asm
              CCP3CONbits   0x000fb7       data     extern E:\3.46\pic18-lt\cxx-framework\src\traditional\proc\p18f97j60.asm
                  CCP3CON   0x000fb7       data     extern E:\3.46\pic18-lt\cxx-framework\src\traditional\proc\p18f97j60.asm
             ECCP3CONbits   0x000fb7       data     extern E:\3.46\pic18-lt\cxx-framework\src\traditional\proc\p18f97j60.asm
                 ECCP3CON   0x000fb7       data     extern E:\3.46\pic18-lt\cxx-framework\src\traditional\proc\p18f97j60.asm
                    CCPR3   0x000fb8       data     extern E:\3.46\pic18-lt\cxx-framework\src\traditional\proc\p18f97j60.asm
                   CCPR3L   0x000fb8       data     extern E:\3.46\pic18-lt\cxx-framework\src\traditional\proc\p18f97j60.asm
                   CCPR3H   0x000fb9       data     extern E:\3.46\pic18-lt\cxx-framework\src\traditional\proc\p18f97j60.asm
                 ECCP2CON   0x000fba       data     extern E:\3.46\pic18-lt\cxx-framework\src\traditional\proc\p18f97j60.asm
              CCP2CONbits   0x000fba       data     extern E:\3.46\pic18-lt\cxx-framework\src\traditional\proc\p18f97j60.asm
                  CCP2CON   0x000fba       data     extern E:\3.46\pic18-lt\cxx-framework\src\traditional\proc\p18f97j60.asm
             ECCP2CONbits   0x000fba       data     extern E:\3.46\pic18-lt\cxx-framework\src\traditional\proc\p18f97j60.asm
                    CCPR2   0x000fbb       data     extern E:\3.46\pic18-lt\cxx-framework\src\traditional\proc\p18f97j60.asm
                   CCPR2L   0x000fbb       data     extern E:\3.46\pic18-lt\cxx-framework\src\traditional\proc\p18f97j60.asm
                   CCPR2H   0x000fbc       data     extern E:\3.46\pic18-lt\cxx-framework\src\traditional\proc\p18f97j60.asm
              CCP1CONbits   0x000fbd       data     extern E:\3.46\pic18-lt\cxx-framework\src\traditional\proc\p18f97j60.asm
                  CCP1CON   0x000fbd       data     extern E:\3.46\pic18-lt\cxx-framework\src\traditional\proc\p18f97j60.asm
                 ECCP1CON   0x000fbd       data     extern E:\3.46\pic18-lt\cxx-framework\src\traditional\proc\p18f97j60.asm
             ECCP1CONbits   0x000fbd       data     extern E:\3.46\pic18-lt\cxx-framework\src\traditional\proc\p18f97j60.asm
                   CCPR1L   0x000fbe       data     extern E:\3.46\pic18-lt\cxx-framework\src\traditional\proc\p18f97j60.asm
                    CCPR1   0x000fbe       data     extern E:\3.46\pic18-lt\cxx-framework\src\traditional\proc\p18f97j60.asm
                   CCPR1H   0x000fbf       data     extern E:\3.46\pic18-lt\cxx-framework\src\traditional\proc\p18f97j60.asm
               ADCON2bits   0x000fc0       data     extern E:\3.46\pic18-lt\cxx-framework\src\traditional\proc\p18f97j60.asm
                   ADCON2   0x000fc0       data     extern E:\3.46\pic18-lt\cxx-framework\src\traditional\proc\p18f97j60.asm
               ADCON1bits   0x000fc1       data     extern E:\3.46\pic18-lt\cxx-framework\src\traditional\proc\p18f97j60.asm
                   ADCON1   0x000fc1       data     extern E:\3.46\pic18-lt\cxx-framework\src\traditional\proc\p18f97j60.asm
                   ADCON0   0x000fc2       data     extern E:\3.46\pic18-lt\cxx-framework\src\traditional\proc\p18f97j60.asm
               ADCON0bits   0x000fc2       data     extern E:\3.46\pic18-lt\cxx-framework\src\traditional\proc\p18f97j60.asm
                    ADRES   0x000fc3       data     extern E:\3.46\pic18-lt\cxx-framework\src\traditional\proc\p18f97j60.asm
                   ADRESL   0x000fc3       data     extern E:\3.46\pic18-lt\cxx-framework\src\traditional\proc\p18f97j60.asm
                   ADRESH   0x000fc4       data     extern E:\3.46\pic18-lt\cxx-framework\src\traditional\proc\p18f97j60.asm
                 SSP1CON2   0x000fc5       data     extern E:\3.46\pic18-lt\cxx-framework\src\traditional\proc\p18f97j60.asm
             SSP1CON2bits   0x000fc5       data     extern E:\3.46\pic18-lt\cxx-framework\src\traditional\proc\p18f97j60.asm
              SSPCON2bits   0x000fc5       data     extern E:\3.46\pic18-lt\cxx-framework\src\traditional\proc\p18f97j60.asm
                  SSPCON2   0x000fc5       data     extern E:\3.46\pic18-lt\cxx-framework\src\traditional\proc\p18f97j60.asm
              SSPCON1bits   0x000fc6       data     extern E:\3.46\pic18-lt\cxx-framework\src\traditional\proc\p18f97j60.asm
                 SSP1CON1   0x000fc6       data     extern E:\3.46\pic18-lt\cxx-framework\src\traditional\proc\p18f97j60.asm
             SSP1CON1bits   0x000fc6       data     extern E:\3.46\pic18-lt\cxx-framework\src\traditional\proc\p18f97j60.asm
                  SSPCON1   0x000fc6       data     extern E:\3.46\pic18-lt\cxx-framework\src\traditional\proc\p18f97j60.asm
              SSPSTATbits   0x000fc7       data     extern E:\3.46\pic18-lt\cxx-framework\src\traditional\proc\p18f97j60.asm
                  SSPSTAT   0x000fc7       data     extern E:\3.46\pic18-lt\cxx-framework\src\traditional\proc\p18f97j60.asm
                 SSP1STAT   0x000fc7       data     extern E:\3.46\pic18-lt\cxx-framework\src\traditional\proc\p18f97j60.asm
             SSP1STATbits   0x000fc7       data     extern E:\3.46\pic18-lt\cxx-framework\src\traditional\proc\p18f97j60.asm
                  SSP1ADD   0x000fc8       data     extern E:\3.46\pic18-lt\cxx-framework\src\traditional\proc\p18f97j60.asm
                   SSPADD   0x000fc8       data     extern E:\3.46\pic18-lt\cxx-framework\src\traditional\proc\p18f97j60.asm
                   SSPBUF   0x000fc9       data     extern E:\3.46\pic18-lt\cxx-framework\src\traditional\proc\p18f97j60.asm
                  SSP1BUF   0x000fc9       data     extern E:\3.46\pic18-lt\cxx-framework\src\traditional\proc\p18f97j60.asm
                    T2CON   0x000fca       data     extern E:\3.46\pic18-lt\cxx-framework\src\traditional\proc\p18f97j60.asm
                T2CONbits   0x000fca       data     extern E:\3.46\pic18-lt\cxx-framework\src\traditional\proc\p18f97j60.asm
                      PR2   0x000fcb       data     extern E:\3.46\pic18-lt\cxx-framework\src\traditional\proc\p18f97j60.asm
                     TMR2   0x000fcc       data     extern E:\3.46\pic18-lt\cxx-framework\src\traditional\proc\p18f97j60.asm
                T1CONbits   0x000fcd       data     extern E:\3.46\pic18-lt\cxx-framework\src\traditional\proc\p18f97j60.asm
                    T1CON   0x000fcd       data     extern E:\3.46\pic18-lt\cxx-framework\src\traditional\proc\p18f97j60.asm
                    TMR1L   0x000fce       data     extern E:\3.46\pic18-lt\cxx-framework\src\traditional\proc\p18f97j60.asm
                    TMR1H   0x000fcf       data     extern E:\3.46\pic18-lt\cxx-framework\src\traditional\proc\p18f97j60.asm
                 RCONbits   0x000fd0       data     extern E:\3.46\pic18-lt\cxx-framework\src\traditional\proc\p18f97j60.asm
                     RCON   0x000fd0       data     extern E:\3.46\pic18-lt\cxx-framework\src\traditional\proc\p18f97j60.asm
                   WDTCON   0x000fd1       data     extern E:\3.46\pic18-lt\cxx-framework\src\traditional\proc\p18f97j60.asm
               WDTCONbits   0x000fd1       data     extern E:\3.46\pic18-lt\cxx-framework\src\traditional\proc\p18f97j60.asm
                    ECON1   0x000fd2       data     extern E:\3.46\pic18-lt\cxx-framework\src\traditional\proc\p18f97j60.asm
                ECON1bits   0x000fd2       data     extern E:\3.46\pic18-lt\cxx-framework\src\traditional\proc\p18f97j60.asm
                   OSCCON   0x000fd3       data     extern E:\3.46\pic18-lt\cxx-framework\src\traditional\proc\p18f97j60.asm
               OSCCONbits   0x000fd3       data     extern E:\3.46\pic18-lt\cxx-framework\src\traditional\proc\p18f97j60.asm
                    T0CON   0x000fd5       data     extern E:\3.46\pic18-lt\cxx-framework\src\traditional\proc\p18f97j60.asm
                T0CONbits   0x000fd5       data     extern E:\3.46\pic18-lt\cxx-framework\src\traditional\proc\p18f97j60.asm
                    TMR0L   0x000fd6       data     extern E:\3.46\pic18-lt\cxx-framework\src\traditional\proc\p18f97j60.asm
                    TMR0H   0x000fd7       data     extern E:\3.46\pic18-lt\cxx-framework\src\traditional\proc\p18f97j60.asm
                   STATUS   0x000fd8       data     extern E:\3.46\pic18-lt\cxx-framework\src\traditional\proc\p18f97j60.asm
               STATUSbits   0x000fd8       data     extern E:\3.46\pic18-lt\cxx-framework\src\traditional\proc\p18f97j60.asm
                    FSR2L   0x000fd9       data     extern E:\3.46\pic18-lt\cxx-framework\src\traditional\proc\p18f97j60.asm
                     FSR2   0x000fd9       data     extern E:\3.46\pic18-lt\cxx-framework\src\traditional\proc\p18f97j60.asm
                    FSR2H   0x000fda       data     extern E:\3.46\pic18-lt\cxx-framework\src\traditional\proc\p18f97j60.asm
                   PLUSW2   0x000fdb       data     extern E:\3.46\pic18-lt\cxx-framework\src\traditional\proc\p18f97j60.asm
                  PREINC2   0x000fdc       data     extern E:\3.46\pic18-lt\cxx-framework\src\traditional\proc\p18f97j60.asm
                 POSTDEC2   0x000fdd       data     extern E:\3.46\pic18-lt\cxx-framework\src\traditional\proc\p18f97j60.asm
                 POSTINC2   0x000fde       data     extern E:\3.46\pic18-lt\cxx-framework\src\traditional\proc\p18f97j60.asm
                    INDF2   0x000fdf       data     extern E:\3.46\pic18-lt\cxx-framework\src\traditional\proc\p18f97j60.asm
                      BSR   0x000fe0       data     extern E:\3.46\pic18-lt\cxx-framework\src\traditional\proc\p18f97j60.asm
                    FSR1L   0x000fe1       data     extern E:\3.46\pic18-lt\cxx-framework\src\traditional\proc\p18f97j60.asm
                     FSR1   0x000fe1       data     extern E:\3.46\pic18-lt\cxx-framework\src\traditional\proc\p18f97j60.asm
                    FSR1H   0x000fe2       data     extern E:\3.46\pic18-lt\cxx-framework\src\traditional\proc\p18f97j60.asm
                   PLUSW1   0x000fe3       data     extern E:\3.46\pic18-lt\cxx-framework\src\traditional\proc\p18f97j60.asm
                  PREINC1   0x000fe4       data     extern E:\3.46\pic18-lt\cxx-framework\src\traditional\proc\p18f97j60.asm
                 POSTDEC1   0x000fe5       data     extern E:\3.46\pic18-lt\cxx-framework\src\traditional\proc\p18f97j60.asm
                 POSTINC1   0x000fe6       data     extern E:\3.46\pic18-lt\cxx-framework\src\traditional\proc\p18f97j60.asm
                    INDF1   0x000fe7       data     extern E:\3.46\pic18-lt\cxx-framework\src\traditional\proc\p18f97j60.asm
                     WREG   0x000fe8       data     extern E:\3.46\pic18-lt\cxx-framework\src\traditional\proc\p18f97j60.asm
                    FSR0L   0x000fe9       data     extern E:\3.46\pic18-lt\cxx-framework\src\traditional\proc\p18f97j60.asm
                     FSR0   0x000fe9       data     extern E:\3.46\pic18-lt\cxx-framework\src\traditional\proc\p18f97j60.asm
                    FSR0H   0x000fea       data     extern E:\3.46\pic18-lt\cxx-framework\src\traditional\proc\p18f97j60.asm
                   PLUSW0   0x000feb       data     extern E:\3.46\pic18-lt\cxx-framework\src\traditional\proc\p18f97j60.asm
                  PREINC0   0x000fec       data     extern E:\3.46\pic18-lt\cxx-framework\src\traditional\proc\p18f97j60.asm
                 POSTDEC0   0x000fed       data     extern E:\3.46\pic18-lt\cxx-framework\src\traditional\proc\p18f97j60.asm
                 POSTINC0   0x000fee       data     extern E:\3.46\pic18-lt\cxx-framework\src\traditional\proc\p18f97j60.asm
                    INDF0   0x000fef       data     extern E:\3.46\pic18-lt\cxx-framework\src\traditional\proc\p18f97j60.asm
                  INTCON3   0x000ff0       data     extern E:\3.46\pic18-lt\cxx-framework\src\traditional\proc\p18f97j60.asm
              INTCON3bits   0x000ff0       data     extern E:\3.46\pic18-lt\cxx-framework\src\traditional\proc\p18f97j60.asm
              INTCON2bits   0x000ff1       data     extern E:\3.46\pic18-lt\cxx-framework\src\traditional\proc\p18f97j60.asm
                  INTCON2   0x000ff1       data     extern E:\3.46\pic18-lt\cxx-framework\src\traditional\proc\p18f97j60.asm
                   INTCON   0x000ff2       data     extern E:\3.46\pic18-lt\cxx-framework\src\traditional\proc\p18f97j60.asm
               INTCONbits   0x000ff2       data     extern E:\3.46\pic18-lt\cxx-framework\src\traditional\proc\p18f97j60.asm
                     PROD   0x000ff3       data     extern E:\3.46\pic18-lt\cxx-framework\src\traditional\proc\p18f97j60.asm
                    PRODL   0x000ff3       data     extern E:\3.46\pic18-lt\cxx-framework\src\traditional\proc\p18f97j60.asm
                    PRODH   0x000ff4       data     extern E:\3.46\pic18-lt\cxx-framework\src\traditional\proc\p18f97j60.asm
                   TABLAT   0x000ff5       data     extern E:\3.46\pic18-lt\cxx-framework\src\traditional\proc\p18f97j60.asm
                  TBLPTRL   0x000ff6       data     extern E:\3.46\pic18-lt\cxx-framework\src\traditional\proc\p18f97j60.asm
                   TBLPTR   0x000ff6       data     extern E:\3.46\pic18-lt\cxx-framework\src\traditional\proc\p18f97j60.asm
                  TBLPTRH   0x000ff7       data     extern E:\3.46\pic18-lt\cxx-framework\src\traditional\proc\p18f97j60.asm
                  TBLPTRU   0x000ff8       data     extern E:\3.46\pic18-lt\cxx-framework\src\traditional\proc\p18f97j60.asm
                       PC   0x000ff9       data     extern E:\3.46\pic18-lt\cxx-framework\src\traditional\proc\p18f97j60.asm
                      PCL   0x000ff9       data     extern E:\3.46\pic18-lt\cxx-framework\src\traditional\proc\p18f97j60.asm
                   PCLATH   0x000ffa       data     extern E:\3.46\pic18-lt\cxx-framework\src\traditional\proc\p18f97j60.asm
                   PCLATU   0x000ffb       data     extern E:\3.46\pic18-lt\cxx-framework\src\traditional\proc\p18f97j60.asm
                   STKPTR   0x000ffc       data     extern E:\3.46\pic18-lt\cxx-framework\src\traditional\proc\p18f97j60.asm
               STKPTRbits   0x000ffc       data     extern E:\3.46\pic18-lt\cxx-framework\src\traditional\proc\p18f97j60.asm
                     TOSL   0x000ffd       data     extern E:\3.46\pic18-lt\cxx-framework\src\traditional\proc\p18f97j60.asm
                      TOS   0x000ffd       data     extern E:\3.46\pic18-lt\cxx-framework\src\traditional\proc\p18f97j60.asm
                     TOSH   0x000ffe       data     extern E:\3.46\pic18-lt\cxx-framework\src\traditional\proc\p18f97j60.asm
                     TOSU   0x000fff       data     extern E:\3.46\pic18-lt\cxx-framework\src\traditional\proc\p18f97j60.asm


