MPLINK 5.00, LINKER
Linker Map File - Created Thu May 17 20:43:22 2018

                                 Section Info
                  Section       Type    Address   Location Size(Bytes)
                ---------  ---------  ---------  ---------  ---------
               _entry_scn       code   0x000000    program   0x000006
           .code___init.o       code   0x000006    program   0x000002
              high_vector       code   0x000008    program   0x000006
    .romdata_FiddleYard.o    romdata   0x00000e    program   0x000006
         .code_i2c2strt.o       code   0x000014    program   0x000004
               low_vector       code   0x000018    program   0x000006
                   .cinit    romdata   0x00001e    program   0x0000f2
          .code_Var_Out.o       code   0x000110    program   0x000fe4
          .code_Helpers.o       code   0x0010f4    program   0x000fb0
              .code_UDP.o       code   0x0020a4    program   0x000e10
         .code_ETH97J60.o       code   0x002eb4    program   0x000da8
             .code_DHCP.o       code   0x003c5c    program   0x000cdc
         .code_vfprintf.o       code   0x004938    program   0x000c22
      .code_PetitModbus.o       code   0x00555a    program   0x000ba0
   .code_Shift_Register.o       code   0x0060fa    program   0x00099e
   .code_Diagnostic_ret.o       code   0x006a98    program   0x0008d2
  .code_Command_Machine.o       code   0x00736a    program   0x000634
              .code_ARP.o       code   0x00799e    program   0x0005fe
             .code_NBNS.o       code   0x007f9c    program   0x0005d8
           .code_salloc.o       code   0x008574    program   0x000574
               .code_IP.o       code   0x008ae8    program   0x0003fc
       .code_FiddleYard.o       code   0x008ee4    program   0x000348
         .code_Announce.o       code   0x00922c    program   0x0002b2
         .code_StackTsk.o       code   0x0094de    program   0x000288
        .code_TimeDelay.o       code   0x009766    program   0x000224
                   STRING       code   0x00998a    program   0x0001b2
          .code_eusart1.o       code   0x009b3c    program   0x00018a
          .code_eusart2.o       code   0x009cc6    program   0x00016c
             .code_ICMP.o       code   0x009e32    program   0x00014a
             .code_Tick.o       code   0x009f7c    program   0x000144
         .code_i2c2eerr.o       code   0x00a0c0    program   0x00011a
         .code_i2c1eerr.o       code   0x00a1da    program   0x00011a
         .code_i2c2eesr.o       code   0x00a2f4    program   0x00010c
         .code_i2c1eesr.o       code   0x00a400    program   0x000106
             const_table2    romdata   0x00a506    program   0x000100
             const_table1    romdata   0x00a606    program   0x000100
  .code_PetitModbusPort.o       code   0x00a706    program   0x0000e4
         .code_i2c2eepw.o       code   0x00a7ea    program   0x0000c4
         .code_i2c1eepw.o       code   0x00a8ae    program   0x0000c4
         .code_i2c2eebw.o       code   0x00a972    program   0x0000bc
         .code_i2c1eebw.o       code   0x00aa2e    program   0x0000bc
         .code_i2c2eecr.o       code   0x00aaea    program   0x0000a2
         .code_i2c1eecr.o       code   0x00ab8c    program   0x0000a2
               _cinit_scn       code   0x00ac2e    program   0x00009e
         .code_i2c2eeap.o       code   0x00accc    program   0x00009a
         .code_i2c1eeap.o       code   0x00ad66    program   0x00009a
           .code_printf.o       code   0x00ae00    program   0x000098
                     PROG       code   0x00ae98    program   0x000096
             .code_putc.o       code   0x00af2e    program   0x000084
         .code_i2c1writ.o       code   0x00afb2    program   0x000084
         .code_i2c2puts.o       code   0x00b036    program   0x000082
         .code_i2c1puts.o       code   0x00b0b8    program   0x000082
         .code_i2c2writ.o       code   0x00b13a    program   0x00007e
          .code_fxm3232.o       code   0x00b1b8    program   0x000070
         .code_i2c2gets.o       code   0x00b228    program   0x00006e
         .code_i2c1gets.o       code   0x00b296    program   0x00006e
         .code_i2c2read.o       code   0x00b304    program   0x000068
             .code_Init.o       code   0x00b36c    program   0x000064
       .code_Interrupts.o       code   0x00b3d0    program   0x000060
             .stringtable    romdata   0x00b430    program   0x00004d
        .romdata_salloc.o    romdata   0x00b47d    program   0x000000
        .idata_salloc.o_i    romdata   0x00b47d    program   0x000000
      .romdata_i2c2puts.o    romdata   0x00b47d    program   0x000000
    .romdata_Interrupts.o    romdata   0x00b47d    program   0x000000
         .romdata_timer.o    romdata   0x00b47d    program   0x000000
     .idata_TimeDelay.o_i    romdata   0x00b47d    program   0x000000
      .idata_i2c2rstr.o_i    romdata   0x00b47d    program   0x000000
       .romdata_i2c1ack.o    romdata   0x00b47d    program   0x000000
      .romdata_i2c2strt.o    romdata   0x00b47d    program   0x000000
      .idata_i2c2strt.o_i    romdata   0x00b47d    program   0x000000
.romdata_PetitModbusPort.o    romdata   0x00b47d    program   0x000000
      .romdata_i2c2rstr.o    romdata   0x00b47d    program   0x000000
          .romdata_NBNS.o    romdata   0x00b47d    program   0x000000
          .romdata_MPFS.o    romdata   0x00b47d    program   0x000000
            .romdata_IP.o    romdata   0x00b47d    program   0x000000
        .romdata_Reboot.o    romdata   0x00b47d    program   0x000000
           .romdata_RSA.o    romdata   0x00b47d    program   0x000000
         .romdata_HTTP2.o    romdata   0x00b47d    program   0x000000
          .romdata_SNMP.o    romdata   0x00b47d    program   0x000000
         .romdata_c018i.o    romdata   0x00b47d    program   0x000000
       .romdata_Helpers.o    romdata   0x00b47d    program   0x000000
     .romdata_SNMPv3USM.o    romdata   0x00b47d    program   0x000000
           .romdata_FTP.o    romdata   0x00b47d    program   0x000000
     .romdata_SPIEEPROM.o    romdata   0x00b47d    program   0x000000
        .romdata_SPIRAM.o    romdata   0x00b47d    program   0x000000
        .romdata_DynDNS.o    romdata   0x00b47d    program   0x000000
      .idata_StackTsk.o_i    romdata   0x00b47d    program   0x000001
           .idata_TCP.o_i    romdata   0x00b47d    program   0x000000
           .romdata_DNS.o    romdata   0x00b47d    program   0x000000
          .romdata_DHCP.o    romdata   0x00b47d    program   0x000000
         .idata_TFTPc.o_i    romdata   0x00b47d    program   0x000000
         .romdata_Delay.o    romdata   0x00b47d    program   0x000000
         .romdata_TFTPc.o    romdata   0x00b47d    program   0x000000
          .romdata_Tick.o    romdata   0x00b47d    program   0x000000
        .romdata_BigInt.o    romdata   0x00b47d    program   0x000000
          .romdata_UART.o    romdata   0x00b47d    program   0x000000
.idata_UART2TCPBridge.o_i    romdata   0x00b47d    program   0x000000
        .romdata_AutoIP.o    romdata   0x00b47d    program   0x000000
           .romdata_UDP.o    romdata   0x00b47d    program   0x000000
           .romdata_ARP.o    romdata   0x00b47d    program   0x000000
       .romdata_General.o    romdata   0x00b47d    program   0x000000
      .idata_i2c2eepw.o_i    romdata   0x00b47d    program   0x000000
      .romdata_i2c2eecr.o    romdata   0x00b47d    program   0x000000
        .idata___init.o_i    romdata   0x00b47d    program   0x000000
      .idata_i2c2eebw.o_i    romdata   0x00b47d    program   0x000000
      .romdata_i2c2eeap.o    romdata   0x00b47d    program   0x000000
      .idata_i2c1eeap.o_i    romdata   0x00b47d    program   0x000000
      .romdata_i2c1open.o    romdata   0x00b47d    program   0x000000
      .idata_i2c2dtrd.o_i    romdata   0x00b47d    program   0x000000
      .idata_i2c1puts.o_i    romdata   0x00b47d    program   0x000000
       .romdata_eusart2.o    romdata   0x00b47d    program   0x000000
      .romdata_i2c2clos.o    romdata   0x00b47d    program   0x000000
       .idata_fxm3232.o_i    romdata   0x00b47d    program   0x000000
      .romdata_i2c1read.o    romdata   0x00b47d    program   0x000000
      .idata_i2c1rstr.o_i    romdata   0x00b47d    program   0x000000
 .romdata_State_Machine.o    romdata   0x00b47d    program   0x000000
       .idata_i2c2ack.o_i    romdata   0x00b47d    program   0x000000
      .romdata_i2c1writ.o    romdata   0x00b47d    program   0x000000
      .idata_fxd1616u.o_i    romdata   0x00b47d    program   0x000000
      .romdata_fxd3232u.o    romdata   0x00b47d    program   0x000000
      .idata_i2c1strt.o_i    romdata   0x00b47d    program   0x000000
      .romdata_i2c1stop.o    romdata   0x00b47d    program   0x000000
      .romdata_i2c1eebw.o    romdata   0x00b47d    program   0x000000
      .idata_i2c1eecr.o_i    romdata   0x00b47d    program   0x000000
        .romdata_printf.o    romdata   0x00b47d    program   0x000000
      .idata_i2c2open.o_i    romdata   0x00b47d    program   0x000000
      .romdata_i2c1eepw.o    romdata   0x00b47d    program   0x000000
      .idata_i2c1eerr.o_i    romdata   0x00b47d    program   0x000000
        .idata_printf.o_i    romdata   0x00b47d    program   0x000000
      .romdata_i2c2nack.o    romdata   0x00b47d    program   0x000000
      .idata_i2c1clos.o_i    romdata   0x00b47d    program   0x000000
      .romdata_i2c1eesr.o    romdata   0x00b47d    program   0x000000
.romdata_Shift_Register.o    romdata   0x00b47d    program   0x000000
      .idata_i2c1gets.o_i    romdata   0x00b47d    program   0x000000
      .idata_i2c2idle.o_i    romdata   0x00b47d    program   0x000000
      .romdata_i2c2gets.o    romdata   0x00b47d    program   0x000000
      .idata_vfprintf.o_i    romdata   0x00b47d    program   0x000000
       .romdata_Var_Out.o    romdata   0x00b47d    program   0x000000
      .idata_i2c2eesr.o_i    romdata   0x00b47d    program   0x000000
      .romdata_i2c2eerr.o    romdata   0x00b47d    program   0x000000
      .romdata_i2c1idle.o    romdata   0x00b47d    program   0x000000
      .romdata_i2c1dtrd.o    romdata   0x00b47d    program   0x000000
      .idata_i2c1nack.o_i    romdata   0x00b47d    program   0x000000
         .code_fxd3232u.o       code   0x00b47e    program   0x000048
         .code_fxd1616u.o       code   0x00b4c6    program   0x00002c
                    .code       code   0x00b4f2    program   0x00002c
         .code_i2c2open.o       code   0x00b51e    program   0x00002a
         .code_i2c1open.o       code   0x00b548    program   0x00002a
         .code_i2c1read.o       code   0x00b572    program   0x000028
                    CTYPE       code   0x00b59a    program   0x000024
           .romdata_TCP.o    romdata   0x00b5be    program   0x000024
             _startup_scn       code   0x00b5e2    program   0x00001c
                    STDIO       code   0x00b5fe    program   0x00001c
         .code_i2c2idle.o       code   0x00b61a    program   0x000018
         .code_i2c1idle.o       code   0x00b632    program   0x000018
      .romdata_vfprintf.o    romdata   0x00b64a    program   0x000011
         .romdata_MPFS2.o    romdata   0x00b65b    program   0x000000
     .idata_SNMPv3USM.o_i    romdata   0x00b65b    program   0x000000
        .romdata_SNMPv3.o    romdata   0x00b65b    program   0x000000
        .romdata_stdout.o    romdata   0x00b65b    program   0x000000
        .romdata___init.o    romdata   0x00b65b    program   0x000000
        .idata_SNMPv3.o_i    romdata   0x00b65b    program   0x000000
.romdata_Command_Machine.o    romdata   0x00b65b    program   0x000000
          .idata_putc.o_i    romdata   0x00b65b    program   0x000000
          .idata_SNMP.o_i    romdata   0x00b65b    program   0x000000
          .romdata_SMTP.o    romdata   0x00b65b    program   0x000000
.idata_PetitModbusPort.o_i    romdata   0x00b65b    program   0x000001
          .idata_SMTP.o_i    romdata   0x00b65b    program   0x000000
        .idata_Random.o_i    romdata   0x00b65b    program   0x000000
        .romdata_Random.o    romdata   0x00b65b    program   0x000000
           .idata_RSA.o_i    romdata   0x00b65b    program   0x000000
.romdata_Diagnostic_ret.o    romdata   0x00b65b    program   0x000000
.idata_PetitRegConstant.o_i    romdata   0x00b65b    program   0x000000
        .idata_Reboot.o_i    romdata   0x00b65b    program   0x000000
.romdata_PetitRegConstant.o    romdata   0x00b65b    program   0x000000
          .romdata_putc.o    romdata   0x00b65b    program   0x000000
          .idata_UART.o_i    romdata   0x00b65b    program   0x000000
      .idata_fxd3232u.o_i    romdata   0x00b65b    program   0x000000
      .romdata_fxd1616u.o    romdata   0x00b65b    program   0x000000
.romdata_UART2TCPBridge.o    romdata   0x00b65b    program   0x000000
.idata_UDPPerformanceTest.o_i    romdata   0x00b65b    program   0x000000
        .romdata_Telnet.o    romdata   0x00b65b    program   0x000000
        .idata_Telnet.o_i    romdata   0x00b65b    program   0x000000
.romdata_TCPPerformanceTest.o    romdata   0x00b65b    program   0x000000
.idata_TCPPerformanceTest.o_i    romdata   0x00b65b    program   0x000000
.romdata_UDPPerformanceTest.o    romdata   0x00b65b    program   0x000000
 .idata_State_Machine.o_i    romdata   0x00b65b    program   0x000000
          .romdata_Init.o    romdata   0x00b65b    program   0x000000
      .romdata_StackTsk.o    romdata   0x00b65b    program   0x000000
           .romdata_SSL.o    romdata   0x00b65b    program   0x000000
       .romdata_eusart1.o    romdata   0x00b65b    program   0x000000
           .idata_SSL.o_i    romdata   0x00b65b    program   0x000000
       .romdata_fxm3232.o    romdata   0x00b65b    program   0x000000
        .idata_SPIRAM.o_i    romdata   0x00b65b    program   0x000000
      .romdata_SPIFlash.o    romdata   0x00b65b    program   0x000000
      .idata_SPIFlash.o_i    romdata   0x00b65b    program   0x000000
     .idata_SPIEEPROM.o_i    romdata   0x00b65b    program   0x000000
   .romdata_PetitModbus.o    romdata   0x00b65b    program   0x000000
          .romdata_SNTP.o    romdata   0x00b65b    program   0x000000
          .idata_SNTP.o_i    romdata   0x00b65b    program   0x000000
      .romdata_i2c1strt.o    romdata   0x00b65b    program   0x000000
    .romdata_FileSystem.o    romdata   0x00b65b    program   0x000000
      .idata_i2c1writ.o_i    romdata   0x00b65b    program   0x000000
      .romdata_ETH97J60.o    romdata   0x00b65b    program   0x000000
       .romdata_i2c2ack.o    romdata   0x00b65b    program   0x000000
      .idata_i2c2clos.o_i    romdata   0x00b65b    program   0x000000
      .romdata_i2c2dtrd.o    romdata   0x00b65b    program   0x000000
          .romdata_DNSs.o    romdata   0x00b65b    program   0x000000
      .idata_i2c2eeap.o_i    romdata   0x00b65b    program   0x000000
      .romdata_i2c2eebw.o    romdata   0x00b65b    program   0x000000
      .idata_i2c2eecr.o_i    romdata   0x00b65b    program   0x000000
         .romdata_DHCPs.o    romdata   0x00b65b    program   0x000000
      .romdata_i2c2eepw.o    romdata   0x00b65b    program   0x000000
      .idata_i2c2eerr.o_i    romdata   0x00b65b    program   0x000000
      .romdata_i2c2eesr.o    romdata   0x00b65b    program   0x000000
      .idata_i2c2gets.o_i    romdata   0x00b65b    program   0x000000
      .romdata_i2c2idle.o    romdata   0x00b65b    program   0x000000
      .idata_i2c2nack.o_i    romdata   0x00b65b    program   0x000000
      .romdata_i2c2open.o    romdata   0x00b65b    program   0x000000
   .romdata_BerkeleyAPI.o    romdata   0x00b65b    program   0x000000
      .idata_i2c2puts.o_i    romdata   0x00b65b    program   0x000000
      .romdata_i2c2read.o    romdata   0x00b65b    program   0x000000
      .idata_i2c2stop.o_i    romdata   0x00b65b    program   0x000000
      .romdata_i2c2stop.o    romdata   0x00b65b    program   0x000000
       .romdata_ARCFOUR.o    romdata   0x00b65b    program   0x000000
      .idata_i2c2writ.o_i    romdata   0x00b65b    program   0x000000
      .romdata_i2c2writ.o    romdata   0x00b65b    program   0x000000
     .romdata_TimeDelay.o    romdata   0x00b65b    program   0x000000
         .idata_timer.o_i    romdata   0x00b65b    program   0x000000
      .romdata_Announce.o    romdata   0x00b65b    program   0x000000
      .romdata_i2c1eeap.o    romdata   0x00b65b    program   0x000000
      .idata_i2c1eebw.o_i    romdata   0x00b65b    program   0x000000
          .romdata_ICMP.o    romdata   0x00b65b    program   0x000000
      .idata_i2c1dtrd.o_i    romdata   0x00b65b    program   0x000000
      .romdata_i2c1eecr.o    romdata   0x00b65b    program   0x000000
      .idata_i2c1eepw.o_i    romdata   0x00b65b    program   0x000000
   .romdata_LCDBlocking.o    romdata   0x00b65b    program   0x000000
      .romdata_i2c1eerr.o    romdata   0x00b65b    program   0x000000
      .idata_i2c1eesr.o_i    romdata   0x00b65b    program   0x000000
      .romdata_i2c1gets.o    romdata   0x00b65b    program   0x000000
          .romdata_HTTP.o    romdata   0x00b65b    program   0x000000
      .idata_i2c1idle.o_i    romdata   0x00b65b    program   0x000000
      .romdata_i2c1nack.o    romdata   0x00b65b    program   0x000000
         .idata_c018i.o_i    romdata   0x00b65b    program   0x000000
      .idata_i2c1stop.o_i    romdata   0x00b65b    program   0x000000
       .idata_i2c1ack.o_i    romdata   0x00b65b    program   0x000000
      .romdata_i2c1rstr.o    romdata   0x00b65b    program   0x000000
      .idata_i2c1read.o_i    romdata   0x00b65b    program   0x000000
        .romdata_Hashes.o    romdata   0x00b65b    program   0x000000
      .romdata_i2c1clos.o    romdata   0x00b65b    program   0x000000
      .romdata_i2c1puts.o    romdata   0x00b65b    program   0x000000
      .idata_i2c1open.o_i    romdata   0x00b65b    program   0x000000
         .code_i2c2dtrd.o       code   0x00b65c    program   0x000010
         .code_i2c1dtrd.o       code   0x00b66c    program   0x000010
         .code_i2c2nack.o       code   0x00b67c    program   0x000006
          .code_i2c2ack.o       code   0x00b682    program   0x000006
         .code_i2c1nack.o       code   0x00b688    program   0x000006
          .code_i2c1ack.o       code   0x00b68e    program   0x000006
         .code_i2c2stop.o       code   0x00b694    program   0x000004
         .code_i2c2rstr.o       code   0x00b698    program   0x000004
         .code_i2c2clos.o       code   0x00b69c    program   0x000004
         .code_i2c1strt.o       code   0x00b6a0    program   0x000004
         .code_i2c1stop.o       code   0x00b6a4    program   0x000004
         .code_i2c1rstr.o       code   0x00b6a8    program   0x000004
         .code_i2c1clos.o       code   0x00b6ac    program   0x000004
    .code_State_Machine.o       code   0x00b6b0    program   0x000002
        .idata_stdout.o_i    romdata   0x00b6b2    program   0x000002
      .idata_i2c2read.o_i    romdata   0x00b6b4    program   0x000006
       .idata_eusart2.o_i    romdata   0x00b6ba    program   0x000004
       .idata_eusart1.o_i    romdata   0x00b6be    program   0x000004
       .idata_Var_Out.o_i    romdata   0x00b6c2    program   0x00002e
           .idata_UDP.o_i    romdata   0x00b6f0    program   0x000002
          .idata_Tick.o_i    romdata   0x00b6f2    program   0x000004
.idata_Shift_Register.o_i    romdata   0x00b6f6    program   0x00002c
   .idata_PetitModbus.o_i    romdata   0x00b722    program   0x000011
          .idata_NBNS.o_i    romdata   0x00b733    program   0x000001
    .idata_Interrupts.o_i    romdata   0x00b734    program   0x000000
         .idata_MPFS2.o_i    romdata   0x00b734    program   0x000000
          .idata_MPFS.o_i    romdata   0x00b734    program   0x000000
          .idata_Init.o_i    romdata   0x00b734    program   0x000000
   .idata_LCDBlocking.o_i    romdata   0x00b734    program   0x000000
            .idata_IP.o_i    romdata   0x00b734    program   0x000002
          .idata_ICMP.o_i    romdata   0x00b736    program   0x000000
       .idata_Helpers.o_i    romdata   0x00b736    program   0x000004
    .idata_FiddleYard.o_i    romdata   0x00b73a    program   0x000009
    .idata_FileSystem.o_i    romdata   0x00b73a    program   0x000000
        .idata_Hashes.o_i    romdata   0x00b73a    program   0x000000
          .idata_HTTP.o_i    romdata   0x00b73a    program   0x000000
         .idata_HTTP2.o_i    romdata   0x00b73a    program   0x000000
       .idata_General.o_i    romdata   0x00b73a    program   0x000000
           .idata_FTP.o_i    romdata   0x00b743    program   0x000000
      .idata_ETH97J60.o_i    romdata   0x00b743    program   0x000000
        .idata_DynDNS.o_i    romdata   0x00b743    program   0x000000
.idata_Diagnostic_ret.o_i    romdata   0x00b743    program   0x000007
          .idata_DNSs.o_i    romdata   0x00b74a    program   0x000000
           .idata_DNS.o_i    romdata   0x00b74a    program   0x000000
         .idata_DHCPs.o_i    romdata   0x00b74a    program   0x000000
          .idata_DHCP.o_i    romdata   0x00b74a    program   0x000001
         .idata_Delay.o_i    romdata   0x00b74a    program   0x000000
.idata_Command_Machine.o_i    romdata   0x00b74b    program   0x000017
      .idata_Announce.o_i    romdata   0x00b762    program   0x000001
        .idata_AutoIP.o_i    romdata   0x00b762    program   0x000000
   .idata_BerkeleyAPI.o_i    romdata   0x00b762    program   0x000000
        .idata_BigInt.o_i    romdata   0x00b762    program   0x000000
           .idata_ARP.o_i    romdata   0x00b763    program   0x000001
   .code_UART2TCPBridge.o       code   0x00b764    program   0x000000
        .code_SNMPv3USM.o       code   0x00b764    program   0x000000
           .code_Hashes.o       code   0x00b764    program   0x000000
           .code_SNMPv3.o       code   0x00b764    program   0x000000
           .code_Telnet.o       code   0x00b764    program   0x000000
             .code_SNMP.o       code   0x00b764    program   0x000000
             .code_HTTP.o       code   0x00b764    program   0x000000
             .code_SMTP.o       code   0x00b764    program   0x000000
          .code_ARCFOUR.o       code   0x00b764    program   0x000000
            .code_HTTP2.o       code   0x00b764    program   0x000000
              .code_RSA.o       code   0x00b764    program   0x000000
.code_UDPPerformanceTest.o       code   0x00b764    program   0x000000
           .code_Reboot.o       code   0x00b764    program   0x000000
           .code_stdout.o       code   0x00b764    program   0x000000
       .idata_ARCFOUR.o_i    romdata   0x00b764    program   0x000000
          .code_General.o       code   0x00b764    program   0x000000
           .code_Random.o       code   0x00b764    program   0x000000
      .code_LCDBlocking.o       code   0x00b764    program   0x000000
            .code_timer.o       code   0x00b764    program   0x000000
             .code_MPFS.o       code   0x00b764    program   0x000000
            .code_MPFS2.o       code   0x00b764    program   0x000000
            .code_c018i.o       code   0x00b764    program   0x000000
            .code_Delay.o       code   0x00b764    program   0x000000
.code_TCPPerformanceTest.o       code   0x00b764    program   0x000000
            .code_DHCPs.o       code   0x00b764    program   0x000000
              .code_TCP.o       code   0x00b764    program   0x000000
      .code_BerkeleyAPI.o       code   0x00b764    program   0x000000
              .code_DNS.o       code   0x00b764    program   0x000000
             .code_UART.o       code   0x00b764    program   0x000000
             .code_DNSs.o       code   0x00b764    program   0x000000
              .code_SSL.o       code   0x00b764    program   0x000000
           .code_BigInt.o       code   0x00b764    program   0x000000
           .code_DynDNS.o       code   0x00b764    program   0x000000
           .code_SPIRAM.o       code   0x00b764    program   0x000000
 .code_PetitRegConstant.o       code   0x00b764    program   0x000000
         .code_SPIFlash.o       code   0x00b764    program   0x000000
            .code_TFTPc.o       code   0x00b764    program   0x000000
        .code_SPIEEPROM.o       code   0x00b764    program   0x000000
       .code_FileSystem.o       code   0x00b764    program   0x000000
           .code_AutoIP.o       code   0x00b764    program   0x000000
             .code_SNTP.o       code   0x00b764    program   0x000000
              .code_FTP.o       code   0x00b764    program   0x000000
.config_1fff8_FiddleYard.o    romdata   0x01fff8    program   0x000001
.config_1fff9_FiddleYard.o    romdata   0x01fff9    program   0x000001
.config_1fffa_FiddleYard.o    romdata   0x01fffa    program   0x000001
.config_1fffb_FiddleYard.o    romdata   0x01fffb    program   0x000001
.config_1fffc_FiddleYard.o    romdata   0x01fffc    program   0x000001
.config_1fffd_FiddleYard.o    romdata   0x01fffd    program   0x000001
                MATH_DATA      udata   0x000000       data   0x000014
                 .tmpdata      udata   0x000014       data   0x00000e
              _SRAM_ALLOC      udata   0x000022       data   0x000000
         .udata_eusart2.o      udata   0x000060       data   0x000094
        .udata_StackTsk.o      udata   0x0000f4       data   0x00000b
              temp_tblptr      udata   0x0000ff       data   0x000001
         _SRAM_ALLOC_HEAP      udata   0x000100       data   0x000100
         .udata_eusart1.o      udata   0x000200       data   0x000094
     .udata_PetitModbus.o      udata   0x000294       data   0x000050
            .udata_DHCP.o      udata   0x0002e4       data   0x00001c
      .udata_FiddleYard.o      udata   0x000300       data   0x00008b
  .udata_Diagnostic_ret.o      udata   0x00038b       data   0x00002e
         .idata_Var_Out.o      idata   0x0003b9       data   0x00002e
 .udata_PetitModbusPort.o      udata   0x0003e7       data   0x000018
            .udata_NBNS.o      udata   0x0003ff       data   0x000001
            .udata_Tick.o      udata   0x000400       data   0x000006
        .idata_i2c2read.o      idata   0x000406       data   0x000006
         .idata_eusart2.o      idata   0x00040c       data   0x000004
         .idata_eusart1.o      idata   0x000410       data   0x000004
            .idata_Tick.o      idata   0x000414       data   0x000004
         .idata_Helpers.o      idata   0x000418       data   0x000004
         .udata_Var_Out.o      udata   0x00041c       data   0x000003
 .udata_Command_Machine.o      udata   0x00041f       data   0x000003
         .udata_General.o      udata   0x000422       data   0x000002
          .idata_stdout.o      idata   0x000424       data   0x000002
             .idata_UDP.o      idata   0x000426       data   0x000002
              .idata_IP.o      idata   0x000428       data   0x000002
        .udata_Announce.o      udata   0x00042a       data   0x000001
        .idata_StackTsk.o      idata   0x00042b       data   0x000001
 .idata_PetitModbusPort.o      idata   0x00042c       data   0x000001
            .idata_NBNS.o      idata   0x00042d       data   0x000001
            .idata_DHCP.o      idata   0x00042e       data   0x000001
        .idata_Announce.o      idata   0x00042f       data   0x000001
             .idata_ARP.o      idata   0x000430       data   0x000001
          .idata_Reboot.o      idata   0x000431       data   0x000000
             .udata_RSA.o      udata   0x000431       data   0x000000
             .idata_RSA.o      idata   0x000431       data   0x000000
            .udata_SMTP.o      udata   0x000431       data   0x000000
            .idata_SMTP.o      idata   0x000431       data   0x000000
            .udata_SNMP.o      udata   0x000431       data   0x000000
            .idata_SNMP.o      idata   0x000431       data   0x000000
          .udata_SNMPv3.o      udata   0x000431       data   0x000000
           .idata_HTTP2.o      idata   0x000431       data   0x000000
      .idata_FileSystem.o      idata   0x000431       data   0x000000
          .idata_SNMPv3.o      idata   0x000431       data   0x000000
       .udata_SNMPv3USM.o      udata   0x000431       data   0x000000
       .idata_SNMPv3USM.o      idata   0x000431       data   0x000000
            .udata_SNTP.o      udata   0x000431       data   0x000000
            .idata_SNTP.o      idata   0x000431       data   0x000000
       .udata_SPIEEPROM.o      udata   0x000431       data   0x000000
            .idata_MPFS.o      idata   0x000431       data   0x000000
           .udata_MPFS2.o      udata   0x000431       data   0x000000
          .idata_Hashes.o      idata   0x000431       data   0x000000
            .udata_MPFS.o      udata   0x000431       data   0x000000
          .udata_Hashes.o      udata   0x000431       data   0x000000
           .idata_MPFS2.o      idata   0x000431       data   0x000000
            .udata_HTTP.o      udata   0x000431       data   0x000000
            .idata_HTTP.o      idata   0x000431       data   0x000000
           .udata_HTTP2.o      udata   0x000431       data   0x000000
     .idata_LCDBlocking.o      idata   0x000431       data   0x000000
             .idata_FTP.o      idata   0x000431       data   0x000000
     .udata_LCDBlocking.o      udata   0x000431       data   0x000000
             .udata_FTP.o      udata   0x000431       data   0x000000
          .udata_Random.o      udata   0x000431       data   0x000000
          .idata_Random.o      idata   0x000431       data   0x000000
          .udata_Reboot.o      udata   0x000431       data   0x000000
            .idata_ICMP.o      idata   0x000431       data   0x000000
            .udata_ICMP.o      udata   0x000431       data   0x000000
            .idata_Init.o      idata   0x000431       data   0x000000
      .udata_Interrupts.o      udata   0x000431       data   0x000000
      .idata_Interrupts.o      idata   0x000431       data   0x000000
.udata_PetitRegConstant.o      udata   0x000431       data   0x000000
.idata_PetitRegConstant.o      idata   0x000431       data   0x000000
  .udata_Shift_Register.o      udata   0x000431       data   0x000000
   .udata_State_Machine.o      udata   0x000431       data   0x000000
   .idata_State_Machine.o      idata   0x000431       data   0x000000
        .udata_fxd1616u.o      udata   0x000431       data   0x000000
        .idata_fxd1616u.o      idata   0x000431       data   0x000000
        .udata_fxd3232u.o      udata   0x000431       data   0x000000
        .idata_fxd3232u.o      idata   0x000431       data   0x000000
         .udata_fxm3232.o      udata   0x000431       data   0x000000
         .idata_fxm3232.o      idata   0x000431       data   0x000000
          .udata___init.o      udata   0x000431       data   0x000000
          .idata___init.o      idata   0x000431       data   0x000000
          .udata_printf.o      udata   0x000431       data   0x000000
          .idata_printf.o      idata   0x000431       data   0x000000
          .udata_stdout.o      udata   0x000431       data   0x000000
        .udata_vfprintf.o      udata   0x000431       data   0x000000
        .idata_vfprintf.o      idata   0x000431       data   0x000000
            .udata_putc.o      udata   0x000431       data   0x000000
            .idata_putc.o      idata   0x000431       data   0x000000
       .idata_SPIEEPROM.o      idata   0x000431       data   0x000000
        .udata_SPIFlash.o      udata   0x000431       data   0x000000
        .idata_SPIFlash.o      idata   0x000431       data   0x000000
          .udata_SPIRAM.o      udata   0x000431       data   0x000000
          .idata_SPIRAM.o      idata   0x000431       data   0x000000
             .udata_SSL.o      udata   0x000431       data   0x000000
             .idata_SSL.o      idata   0x000431       data   0x000000
             .udata_TCP.o      udata   0x000431       data   0x000000
             .idata_TCP.o      idata   0x000431       data   0x000000
.udata_TCPPerformanceTest.o      udata   0x000431       data   0x000000
.idata_TCPPerformanceTest.o      idata   0x000431       data   0x000000
          .udata_Telnet.o      udata   0x000431       data   0x000000
          .idata_Telnet.o      idata   0x000431       data   0x000000
           .udata_TFTPc.o      udata   0x000431       data   0x000000
           .idata_TFTPc.o      idata   0x000431       data   0x000000
            .udata_UART.o      udata   0x000431       data   0x000000
            .idata_UART.o      idata   0x000431       data   0x000000
  .udata_UART2TCPBridge.o      udata   0x000431       data   0x000000
  .idata_UART2TCPBridge.o      idata   0x000431       data   0x000000
.udata_UDPPerformanceTest.o      udata   0x000431       data   0x000000
.idata_UDPPerformanceTest.o      idata   0x000431       data   0x000000
         .idata_General.o      idata   0x000431       data   0x000000
            .udata_Init.o      udata   0x000431       data   0x000000
        .udata_i2c1puts.o      udata   0x000431       data   0x000000
        .idata_i2c1puts.o      idata   0x000431       data   0x000000
        .udata_i2c1read.o      udata   0x000431       data   0x000000
        .idata_i2c1read.o      idata   0x000431       data   0x000000
        .udata_i2c1rstr.o      udata   0x000431       data   0x000000
        .idata_i2c1rstr.o      idata   0x000431       data   0x000000
        .udata_i2c1stop.o      udata   0x000431       data   0x000000
        .idata_i2c1stop.o      idata   0x000431       data   0x000000
        .udata_i2c1strt.o      udata   0x000431       data   0x000000
        .idata_i2c1strt.o      idata   0x000431       data   0x000000
        .udata_i2c1writ.o      udata   0x000431       data   0x000000
        .idata_i2c1writ.o      idata   0x000431       data   0x000000
         .udata_i2c2ack.o      udata   0x000431       data   0x000000
         .idata_i2c2ack.o      idata   0x000431       data   0x000000
        .udata_i2c2clos.o      udata   0x000431       data   0x000000
        .idata_i2c2clos.o      idata   0x000431       data   0x000000
        .udata_i2c2dtrd.o      udata   0x000431       data   0x000000
        .idata_i2c2dtrd.o      idata   0x000431       data   0x000000
        .udata_i2c2eeap.o      udata   0x000431       data   0x000000
        .idata_i2c2eeap.o      idata   0x000431       data   0x000000
        .udata_i2c2eebw.o      udata   0x000431       data   0x000000
        .idata_i2c2eebw.o      idata   0x000431       data   0x000000
        .udata_i2c2eecr.o      udata   0x000431       data   0x000000
        .idata_i2c2eecr.o      idata   0x000431       data   0x000000
        .udata_i2c2eepw.o      udata   0x000431       data   0x000000
        .idata_i2c2eepw.o      idata   0x000431       data   0x000000
           .idata_c018i.o      idata   0x000431       data   0x000000
         .udata_i2c1ack.o      udata   0x000431       data   0x000000
         .idata_i2c1ack.o      idata   0x000431       data   0x000000
        .udata_i2c1clos.o      udata   0x000431       data   0x000000
        .idata_i2c1clos.o      idata   0x000431       data   0x000000
        .udata_i2c1dtrd.o      udata   0x000431       data   0x000000
        .idata_i2c1dtrd.o      idata   0x000431       data   0x000000
        .udata_i2c1eeap.o      udata   0x000431       data   0x000000
        .idata_i2c1eeap.o      idata   0x000431       data   0x000000
        .udata_i2c1eebw.o      udata   0x000431       data   0x000000
        .idata_i2c1eebw.o      idata   0x000431       data   0x000000
        .udata_i2c1eecr.o      udata   0x000431       data   0x000000
        .idata_i2c1eecr.o      idata   0x000431       data   0x000000
        .udata_i2c1eepw.o      udata   0x000431       data   0x000000
        .idata_i2c1eepw.o      idata   0x000431       data   0x000000
        .udata_i2c1eerr.o      udata   0x000431       data   0x000000
        .idata_i2c1eerr.o      idata   0x000431       data   0x000000
        .udata_i2c1eesr.o      udata   0x000431       data   0x000000
        .idata_i2c1eesr.o      idata   0x000431       data   0x000000
        .udata_i2c1gets.o      udata   0x000431       data   0x000000
        .idata_i2c1gets.o      idata   0x000431       data   0x000000
        .udata_i2c1idle.o      udata   0x000431       data   0x000000
        .idata_i2c1idle.o      idata   0x000431       data   0x000000
        .udata_i2c1nack.o      udata   0x000431       data   0x000000
        .idata_i2c1nack.o      idata   0x000431       data   0x000000
        .udata_i2c1open.o      udata   0x000431       data   0x000000
        .idata_i2c1open.o      idata   0x000431       data   0x000000
       .idata_TimeDelay.o      idata   0x000431       data   0x000000
           .udata_timer.o      udata   0x000431       data   0x000000
           .idata_timer.o      idata   0x000431       data   0x000000
          .udata_salloc.o      udata   0x000431       data   0x000000
          .idata_salloc.o      idata   0x000431       data   0x000000
         .udata_ARCFOUR.o      udata   0x000431       data   0x000000
         .idata_ARCFOUR.o      idata   0x000431       data   0x000000
          .udata_AutoIP.o      udata   0x000431       data   0x000000
          .idata_AutoIP.o      idata   0x000431       data   0x000000
     .udata_BerkeleyAPI.o      udata   0x000431       data   0x000000
     .idata_BerkeleyAPI.o      idata   0x000431       data   0x000000
          .udata_BigInt.o      udata   0x000431       data   0x000000
          .idata_BigInt.o      idata   0x000431       data   0x000000
           .udata_Delay.o      udata   0x000431       data   0x000000
           .idata_Delay.o      idata   0x000431       data   0x000000
           .udata_DHCPs.o      udata   0x000431       data   0x000000
           .idata_DHCPs.o      idata   0x000431       data   0x000000
             .udata_DNS.o      udata   0x000431       data   0x000000
             .idata_DNS.o      idata   0x000431       data   0x000000
            .udata_DNSs.o      udata   0x000431       data   0x000000
            .idata_DNSs.o      idata   0x000431       data   0x000000
          .udata_DynDNS.o      udata   0x000431       data   0x000000
          .idata_DynDNS.o      idata   0x000431       data   0x000000
        .idata_ETH97J60.o      idata   0x000431       data   0x000000
      .udata_FileSystem.o      udata   0x000431       data   0x000000
        .idata_i2c2open.o      idata   0x000431       data   0x000000
        .udata_i2c2open.o      udata   0x000431       data   0x000000
        .idata_i2c2nack.o      idata   0x000431       data   0x000000
        .udata_i2c2nack.o      udata   0x000431       data   0x000000
        .idata_i2c2idle.o      idata   0x000431       data   0x000000
        .udata_i2c2idle.o      udata   0x000431       data   0x000000
        .idata_i2c2gets.o      idata   0x000431       data   0x000000
        .udata_i2c2puts.o      udata   0x000431       data   0x000000
        .idata_i2c2puts.o      idata   0x000431       data   0x000000
        .udata_i2c2read.o      udata   0x000431       data   0x000000
        .udata_i2c2rstr.o      udata   0x000431       data   0x000000
        .idata_i2c2rstr.o      idata   0x000431       data   0x000000
        .udata_i2c2gets.o      udata   0x000431       data   0x000000
        .idata_i2c2eesr.o      idata   0x000431       data   0x000000
        .udata_i2c2stop.o      udata   0x000431       data   0x000000
        .idata_i2c2stop.o      idata   0x000431       data   0x000000
        .udata_i2c2strt.o      udata   0x000431       data   0x000000
        .udata_i2c2eesr.o      udata   0x000431       data   0x000000
        .idata_i2c2strt.o      idata   0x000431       data   0x000000
        .idata_i2c2eerr.o      idata   0x000431       data   0x000000
        .udata_i2c2eerr.o      udata   0x000431       data   0x000000
        .udata_i2c2writ.o      udata   0x000431       data   0x000000
        .idata_i2c2writ.o      idata   0x000431       data   0x000000
       .udata_TimeDelay.o      udata   0x000431       data   0x000000
                   .stack      udata   0x000d00       data   0x000100
  .idata_Shift_Register.o      idata   0x000e00       data   0x00002c
 .idata_Command_Machine.o      idata   0x000e2c       data   0x000017
             .udata_ARP.o      udata   0x000e43       data   0x000014
     .idata_PetitModbus.o      idata   0x000e57       data   0x000011
      .idata_FiddleYard.o      idata   0x000e68       data   0x000009
        .udata_ETH97J60.o      udata   0x000e71       data   0x000007
  .idata_Diagnostic_ret.o      idata   0x000e78       data   0x000007
              .udata_IP.o      udata   0x000e7f       data   0x000001
              SFR_BANKED0      udata   0x000e80       data   0x000006
              SFR_BANKED1      udata   0x000e8a       data   0x000001
              SFR_BANKED2      udata   0x000e97       data   0x000003
              SFR_BANKED3      udata   0x000ea0       data   0x000001
              SFR_BANKED4      udata   0x000ea2       data   0x000003
              SFR_BANKED5      udata   0x000ea6       data   0x000002
              SFR_BANKED6      udata   0x000eaa       data   0x000002
              SFR_BANKED7      udata   0x000eb2       data   0x000001
              SFR_BANKED8      udata   0x000eb4       data   0x000001
              SFR_BANKED9      udata   0x000eb6       data   0x000004
             SFR_BANKED10      udata   0x000ec0       data   0x000012
             SFR_BANKED11      udata   0x000ed4       data   0x000002
             SFR_BANKED12      udata   0x000ed8       data   0x000002
             SFR_BANKED13      udata   0x000ee2       data   0x000016
             SFR_BANKED14      udata   0x000efb       data   0x000001
             SFR_BANKED15      udata   0x000efd       data   0x000002
             .udata_UDP.o      udata   0x000f00       data   0x000052
           .udata_c018i.o      udata   0x000f52       data   0x00000a
         .udata_Helpers.o      udata   0x000f5c       data   0x000004
            SFR_UNBANKED0      udata   0x000f60       data   0x0000a0



                              Program Memory Usage 
                               Start         End      
                           ---------   ---------      
                            0x000000    0x00b763      
                            0x01fff8    0x01fffd      
            46954 out of 131072 program addresses used, program memory utilization is 35%



                              Symbols - Sorted by Name
                     Name    Address   Location    Storage File                     
                ---------  ---------  ---------  --------- ---------                
                  ARPInit   0x007af8    program     extern C:\GIT-REPOS\Siebwalde\TrackController3.X\Microchip\TCPIPStack\ARP.c
            ARPIsResolved   0x007de2    program     extern C:\GIT-REPOS\Siebwalde\TrackController3.X\Microchip\TCPIPStack\ARP.c
               ARPProcess   0x007b1c    program     extern C:\GIT-REPOS\Siebwalde\TrackController3.X\Microchip\TCPIPStack\ARP.c
                   ARPPut   0x00799e    program     static C:\GIT-REPOS\Siebwalde\TrackController3.X\Microchip\TCPIPStack\ARP.c
               ARPResolve   0x007cfa    program     extern C:\GIT-REPOS\Siebwalde\TrackController3.X\Microchip\TCPIPStack\ARP.c
                  AckI2C1   0x00b68e    program     extern C:\GIT-REPOS\Siebwalde\TrackController3.X\I2c2\i2c1ack.c
                  AckI2C2   0x00b682    program     extern C:\GIT-REPOS\Siebwalde\TrackController3.X\I2c2\i2c2ack.c
               AnnounceIP   0x00922c    program     extern C:\GIT-REPOS\Siebwalde\TrackController3.X\Microchip\TCPIPStack\Announce.c
              Bezet_In_5B   0x0069c8    program     extern C:\GIT-REPOS\Siebwalde\TrackController3.X\Shift_Register.c
       Bezet_In_5B_Status   0x006898    program     extern C:\GIT-REPOS\Siebwalde\TrackController3.X\Shift_Register.c
               Bezet_In_6   0x0069fc    program     extern C:\GIT-REPOS\Siebwalde\TrackController3.X\Shift_Register.c
        Bezet_In_6_Status   0x0068ca    program     extern C:\GIT-REPOS\Siebwalde\TrackController3.X\Shift_Register.c
               Bezet_In_7   0x006a30    program     extern C:\GIT-REPOS\Siebwalde\TrackController3.X\Shift_Register.c
        Bezet_In_7_Status   0x0068fc    program     extern C:\GIT-REPOS\Siebwalde\TrackController3.X\Shift_Register.c
             Bezet_Uit_5B   0x00673a    program     extern C:\GIT-REPOS\Siebwalde\TrackController3.X\Shift_Register.c
              Bezet_Uit_6   0x00676c    program     extern C:\GIT-REPOS\Siebwalde\TrackController3.X\Shift_Register.c
              Bezet_Uit_7   0x00679e    program     extern C:\GIT-REPOS\Siebwalde\TrackController3.X\Shift_Register.c
             Bezet_Uit_8A   0x0067d0    program     extern C:\GIT-REPOS\Siebwalde\TrackController3.X\Shift_Register.c
          Bezet_Weerstand   0x006a64    program     extern C:\GIT-REPOS\Siebwalde\TrackController3.X\Shift_Register.c
   Bezet_Weerstand_Status   0x00692e    program     extern C:\GIT-REPOS\Siebwalde\TrackController3.X\Shift_Register.c
                    CL_10   0x00654c    program     extern C:\GIT-REPOS\Siebwalde\TrackController3.X\Shift_Register.c
              CL_10_Heart   0x006578    program     extern C:\GIT-REPOS\Siebwalde\TrackController3.X\Shift_Register.c
     CalcIPBufferChecksum   0x0035c0    program     extern C:\GIT-REPOS\Siebwalde\TrackController3.X\Microchip\TCPIPStack\ETH97J60.c
           CalcIPChecksum   0x001db0    program     extern C:\GIT-REPOS\Siebwalde\TrackController3.X\Microchip\TCPIPStack\Helpers.c
            Calc_Track_Nr   0x006312    program     static C:\GIT-REPOS\Siebwalde\TrackController3.X\Shift_Register.c
CheckPetitModbusBufferComplete   0x005720    program     extern C:\GIT-REPOS\Siebwalde\TrackController3.X\modbus\PetitModbus.c
                Clear_Cmd   0x007508    program     extern C:\GIT-REPOS\Siebwalde\TrackController3.X\Command_Machine.c
                CloseI2C1   0x00b6ac    program     extern C:\GIT-REPOS\Siebwalde\TrackController3.X\I2c2\i2c1clos.c
                CloseI2C2   0x00b69c    program     extern C:\GIT-REPOS\Siebwalde\TrackController3.X\I2c2\i2c2clos.c
                  Command   0x0073d6    program     extern C:\GIT-REPOS\Siebwalde\TrackController3.X\Command_Machine.c
              Command_Exe   0x00751a    program     static C:\GIT-REPOS\Siebwalde\TrackController3.X\Command_Machine.c
              DHCPDisable   0x003cb4    program     extern C:\GIT-REPOS\Siebwalde\TrackController3.X\Microchip\TCPIPStack\DHCP.c
               DHCPEnable   0x003cde    program     extern C:\GIT-REPOS\Siebwalde\TrackController3.X\Microchip\TCPIPStack\DHCP.c
                 DHCPInit   0x003c5c    program     extern C:\GIT-REPOS\Siebwalde\TrackController3.X\Microchip\TCPIPStack\DHCP.c
              DHCPIsBound   0x003d1c    program     extern C:\GIT-REPOS\Siebwalde\TrackController3.X\Microchip\TCPIPStack\DHCP.c
            DHCPIsEnabled   0x003cfe    program     extern C:\GIT-REPOS\Siebwalde\TrackController3.X\Microchip\TCPIPStack\DHCP.c
     DHCPIsServerDetected   0x003d56    program     extern C:\GIT-REPOS\Siebwalde\TrackController3.X\Microchip\TCPIPStack\DHCP.c
         DHCPStateChanged   0x003d34    program     extern C:\GIT-REPOS\Siebwalde\TrackController3.X\Microchip\TCPIPStack\DHCP.c
                 DHCPTask   0x003d72    program     extern C:\GIT-REPOS\Siebwalde\TrackController3.X\Microchip\TCPIPStack\DHCP.c
              DataRdyI2C1   0x00b66c    program     extern C:\GIT-REPOS\Siebwalde\TrackController3.X\I2c2\i2c1dtrd.c
              DataRdyI2C2   0x00b65c    program     extern C:\GIT-REPOS\Siebwalde\TrackController3.X\I2c2\i2c2dtrd.c
                Delay10us   0x009766    program     extern C:\GIT-REPOS\Siebwalde\TrackController3.X\Microchip\Common\TimeDelay.c
                  DelayMs   0x00987c    program     extern C:\GIT-REPOS\Siebwalde\TrackController3.X\Microchip\Common\TimeDelay.c
               Diagnostic   0x006a98    program     extern C:\GIT-REPOS\Siebwalde\TrackController3.X\Diagnostic_ret.c
            DiscoveryTask   0x009342    program     extern C:\GIT-REPOS\Siebwalde\TrackController3.X\Microchip\TCPIPStack\Announce.c
            EEAckPolling1   0x00ad66    program     extern C:\GIT-REPOS\Siebwalde\TrackController3.X\I2c2\i2c1eeap.c
            EEAckPolling2   0x00accc    program     extern C:\GIT-REPOS\Siebwalde\TrackController3.X\I2c2\i2c2eeap.c
             EEByteWrite1   0x00aa2e    program     extern C:\GIT-REPOS\Siebwalde\TrackController3.X\I2c2\i2c1eebw.c
             EEByteWrite2   0x00a972    program     extern C:\GIT-REPOS\Siebwalde\TrackController3.X\I2c2\i2c2eebw.c
        EECurrentAddRead1   0x00ab8c    program     extern C:\GIT-REPOS\Siebwalde\TrackController3.X\I2c2\i2c1eecr.c
        EECurrentAddRead2   0x00aaea    program     extern C:\GIT-REPOS\Siebwalde\TrackController3.X\I2c2\i2c2eecr.c
             EEPageWrite1   0x00a8ae    program     extern C:\GIT-REPOS\Siebwalde\TrackController3.X\I2c2\i2c1eepw.c
             EEPageWrite2   0x00a7ea    program     extern C:\GIT-REPOS\Siebwalde\TrackController3.X\I2c2\i2c2eepw.c
            EERandomRead1   0x00a1da    program     extern C:\GIT-REPOS\Siebwalde\TrackController3.X\I2c2\i2c1eerr.c
            EERandomRead2   0x00a0c0    program     extern C:\GIT-REPOS\Siebwalde\TrackController3.X\I2c2\i2c2eerr.c
        EESequentialRead1   0x00a400    program     extern C:\GIT-REPOS\Siebwalde\TrackController3.X\I2c2\i2c1eesr.c
        EESequentialRead2   0x00a2f4    program     extern C:\GIT-REPOS\Siebwalde\TrackController3.X\I2c2\i2c2eesr.c
                   EOS_10   0x00660e    program     extern C:\GIT-REPOS\Siebwalde\TrackController3.X\Shift_Register.c
                   EOS_11   0x006640    program     extern C:\GIT-REPOS\Siebwalde\TrackController3.X\Shift_Register.c
       EUSART1_Initialize   0x009b3c    program     extern C:\GIT-REPOS\Siebwalde\TrackController3.X\eusart1.c
             EUSART1_Read   0x009b76    program     extern C:\GIT-REPOS\Siebwalde\TrackController3.X\eusart1.c
      EUSART1_Receive_ISR   0x009c82    program     extern C:\GIT-REPOS\Siebwalde\TrackController3.X\eusart1.c
     EUSART1_Transmit_ISR   0x009c3c    program     extern C:\GIT-REPOS\Siebwalde\TrackController3.X\eusart1.c
            EUSART1_Write   0x009bca    program     extern C:\GIT-REPOS\Siebwalde\TrackController3.X\eusart1.c
       EUSART2_Initialize   0x009cc6    program     extern C:\GIT-REPOS\Siebwalde\TrackController3.X\eusart2.c
             EUSART2_Read   0x009cfc    program     extern C:\GIT-REPOS\Siebwalde\TrackController3.X\eusart2.c
      EUSART2_Receive_ISR   0x009dee    program     extern C:\GIT-REPOS\Siebwalde\TrackController3.X\eusart2.c
     EUSART2_Transmit_ISR   0x009da8    program     extern C:\GIT-REPOS\Siebwalde\TrackController3.X\eusart2.c
            EUSART2_Write   0x009d50    program     extern C:\GIT-REPOS\Siebwalde\TrackController3.X\eusart2.c
             Enable_Track   0x006994    program     extern C:\GIT-REPOS\Siebwalde\TrackController3.X\Shift_Register.c
      Enable_Track_Status   0x006866    program     extern C:\GIT-REPOS\Siebwalde\TrackController3.X\Shift_Register.c
                 Exe_Cmd_   0x00736a    program     extern C:\GIT-REPOS\Siebwalde\TrackController3.X\Command_Machine.c
           Exe_Cmd_Resume   0x0073b2    program     extern C:\GIT-REPOS\Siebwalde\TrackController3.X\Command_Machine.c
              Exe_Cmd_Ret   0x00738c    program     extern C:\GIT-REPOS\Siebwalde\TrackController3.X\Command_Machine.c
                      F10   0x0066d6    program     extern C:\GIT-REPOS\Siebwalde\TrackController3.X\Shift_Register.c
                      F11   0x0065dc    program     extern C:\GIT-REPOS\Siebwalde\TrackController3.X\Shift_Register.c
                      F12   0x006708    program     extern C:\GIT-REPOS\Siebwalde\TrackController3.X\Shift_Register.c
                      F13   0x0066a4    program     extern C:\GIT-REPOS\Siebwalde\TrackController3.X\Shift_Register.c
                 FXD1616U   0x00b4c6    program     extern E:\3.46\pic18-lt\cxx-framework\src\traditional\math\fxd1616u.c
                 FXD3232U   0x00b47e    program     extern E:\3.46\pic18-lt\cxx-framework\src\traditional\math\fxd3232u.c
                 FXM1616S   0x00aed4    program     extern E:\3.46\pic18-lt\cxx-framework\src\traditional\math\fxm1616s.asm
                 FXM1616U   0x00ae98    program     extern E:\3.46\pic18-lt\cxx-framework\src\traditional\math\fxm1616u.asm
                  FXM3232   0x00b1b8    program     extern E:\3.46\pic18-lt\cxx-framework\src\traditional\math\fxm3232.c
        Fiddle_Yard_Reset   0x001028    program     extern C:\GIT-REPOS\Siebwalde\TrackController3.X\Var_Out.c
       FindMatchingSocket   0x002cbc    program     static C:\GIT-REPOS\Siebwalde\TrackController3.X\Microchip\TCPIPStack\UDP.c
        FormatNetBIOSName   0x001f9a    program     extern C:\GIT-REPOS\Siebwalde\TrackController3.X\Microchip\TCPIPStack\Helpers.c
      GenerateRandomDWORD   0x001246    program     extern C:\GIT-REPOS\Siebwalde\TrackController3.X\Microchip\TCPIPStack\Helpers.c
              GetTickCopy   0x009f8c    program     static C:\GIT-REPOS\Siebwalde\TrackController3.X\Microchip\TCPIPStack\Tick.c
HandleMPetitodbusMbExceptionCodesSlaveReadback   0x006070    program     extern C:\GIT-REPOS\Siebwalde\TrackController3.X\modbus\PetitModbus.c
HandleMPetitodbusWriteMultipleRegistersSlaveReadback   0x005f1e    program     extern C:\GIT-REPOS\Siebwalde\TrackController3.X\modbus\PetitModbus.c
HandlePetitModbusReadHoldingRegistersSlaveReadback   0x005cb8    program     extern C:\GIT-REPOS\Siebwalde\TrackController3.X\modbus\PetitModbus.c
HandlePetitModbusWriteSingleRegisterSlaveReadback   0x005c00    program     extern C:\GIT-REPOS\Siebwalde\TrackController3.X\modbus\PetitModbus.c
              ICMPProcess   0x009e32    program     extern C:\GIT-REPOS\Siebwalde\TrackController3.X\Microchip\TCPIPStack\ICMP.c
                       IO   0x0060fa    program     extern C:\GIT-REPOS\Siebwalde\TrackController3.X\Shift_Register.c
              IPGetHeader   0x008ae8    program     extern C:\GIT-REPOS\Siebwalde\TrackController3.X\Microchip\TCPIPStack\IP.c
              IPPutHeader   0x008c5c    program     extern C:\GIT-REPOS\Siebwalde\TrackController3.X\Microchip\TCPIPStack\IP.c
            IPSetRxBuffer   0x008dc2    program     extern C:\GIT-REPOS\Siebwalde\TrackController3.X\Microchip\TCPIPStack\IP.c
                 IdleI2C1   0x00b632    program     extern C:\GIT-REPOS\Siebwalde\TrackController3.X\I2c2\i2c1idle.c
                 IdleI2C2   0x00b61a    program     extern C:\GIT-REPOS\Siebwalde\TrackController3.X\I2c2\i2c2idle.c
            InitAppConfig   0x00915c    program     static C:\GIT-REPOS\Siebwalde\TrackController3.X\FiddleYard.c
          InitPetitModbus   0x005b00    program     extern C:\GIT-REPOS\Siebwalde\TrackController3.X\modbus\PetitModbus.c
                  InitTMR   0x00b39a    program     extern C:\GIT-REPOS\Siebwalde\TrackController3.X\modbus\Init.c
                 InitUART   0x00b36c    program     extern C:\GIT-REPOS\Siebwalde\TrackController3.X\modbus\Init.c
                 Init_Pwm   0x00914a    program     static C:\GIT-REPOS\Siebwalde\TrackController3.X\FiddleYard.c
              Init_Timers   0x00911c    program     static C:\GIT-REPOS\Siebwalde\TrackController3.X\FiddleYard.c
                 LFSRRand   0x0011ac    program     extern C:\GIT-REPOS\Siebwalde\TrackController3.X\Microchip\TCPIPStack\Helpers.c
             LFSRSeedRand   0x0010f4    program     extern C:\GIT-REPOS\Siebwalde\TrackController3.X\Microchip\TCPIPStack\Helpers.c
                      M10   0x006960    program     extern C:\GIT-REPOS\Siebwalde\TrackController3.X\Shift_Register.c
               M10_Status   0x006834    program     extern C:\GIT-REPOS\Siebwalde\TrackController3.X\Shift_Register.c
        MACCalcRxChecksum   0x0034fe    program     extern C:\GIT-REPOS\Siebwalde\TrackController3.X\Microchip\TCPIPStack\ETH97J60.c
             MACDiscardRx   0x00301c    program     extern C:\GIT-REPOS\Siebwalde\TrackController3.X\Microchip\TCPIPStack\ETH97J60.c
                 MACFlush   0x0033bc    program     extern C:\GIT-REPOS\Siebwalde\TrackController3.X\Microchip\TCPIPStack\ETH97J60.c
                   MACGet   0x003a42    program     extern C:\GIT-REPOS\Siebwalde\TrackController3.X\Microchip\TCPIPStack\ETH97J60.c
              MACGetArray   0x003a48    program     extern C:\GIT-REPOS\Siebwalde\TrackController3.X\Microchip\TCPIPStack\ETH97J60.c
         MACGetFreeRxSize   0x0030b0    program     extern C:\GIT-REPOS\Siebwalde\TrackController3.X\Microchip\TCPIPStack\ETH97J60.c
             MACGetHeader   0x0031a8    program     extern C:\GIT-REPOS\Siebwalde\TrackController3.X\Microchip\TCPIPStack\ETH97J60.c
                  MACInit   0x002eb4    program     extern C:\GIT-REPOS\Siebwalde\TrackController3.X\Microchip\TCPIPStack\ETH97J60.c
              MACIsLinked   0x002fc0    program     extern C:\GIT-REPOS\Siebwalde\TrackController3.X\Microchip\TCPIPStack\ETH97J60.c
         MACIsMemCopyDone   0x003a34    program     extern C:\GIT-REPOS\Siebwalde\TrackController3.X\Microchip\TCPIPStack\ETH97J60.c
             MACIsTxReady   0x002fe2    program     extern C:\GIT-REPOS\Siebwalde\TrackController3.X\Microchip\TCPIPStack\ETH97J60.c
          MACMemCopyAsync   0x0037c4    program     extern C:\GIT-REPOS\Siebwalde\TrackController3.X\Microchip\TCPIPStack\ETH97J60.c
             MACPowerDown   0x003c3a    program     extern C:\GIT-REPOS\Siebwalde\TrackController3.X\Microchip\TCPIPStack\ETH97J60.c
               MACPowerUp   0x003c4c    program     extern C:\GIT-REPOS\Siebwalde\TrackController3.X\Microchip\TCPIPStack\ETH97J60.c
                   MACPut   0x003ae8    program     extern C:\GIT-REPOS\Siebwalde\TrackController3.X\Microchip\TCPIPStack\ETH97J60.c
              MACPutArray   0x003b02    program     extern C:\GIT-REPOS\Siebwalde\TrackController3.X\Microchip\TCPIPStack\ETH97J60.c
             MACPutHeader   0x003334    program     extern C:\GIT-REPOS\Siebwalde\TrackController3.X\Microchip\TCPIPStack\ETH97J60.c
           MACPutROMArray   0x003b46    program     extern C:\GIT-REPOS\Siebwalde\TrackController3.X\Microchip\TCPIPStack\ETH97J60.c
            MACSetReadPtr   0x0034b8    program     extern C:\GIT-REPOS\Siebwalde\TrackController3.X\Microchip\TCPIPStack\ETH97J60.c
        MACSetReadPtrInRx   0x0033f2    program     extern C:\GIT-REPOS\Siebwalde\TrackController3.X\Microchip\TCPIPStack\ETH97J60.c
           MACSetWritePtr   0x003472    program     extern C:\GIT-REPOS\Siebwalde\TrackController3.X\Microchip\TCPIPStack\ETH97J60.c
              NBNSGetName   0x00845c    program     static C:\GIT-REPOS\Siebwalde\TrackController3.X\Microchip\TCPIPStack\NBNS.c
              NBNSPutName   0x0083e6    program     static C:\GIT-REPOS\Siebwalde\TrackController3.X\Microchip\TCPIPStack\NBNS.c
                 NBNSTask   0x007f9c    program     extern C:\GIT-REPOS\Siebwalde\TrackController3.X\Microchip\TCPIPStack\NBNS.c
               NotAckI2C1   0x00b688    program     extern C:\GIT-REPOS\Siebwalde\TrackController3.X\I2c2\i2c1nack.c
               NotAckI2C2   0x00b67c    program     extern C:\GIT-REPOS\Siebwalde\TrackController3.X\I2c2\i2c2nack.c
                 OpenI2C1   0x00b548    program     extern C:\GIT-REPOS\Siebwalde\TrackController3.X\I2c2\i2c1open.c
                 OpenI2C2   0x00b51e    program     extern C:\GIT-REPOS\Siebwalde\TrackController3.X\I2c2\i2c2open.c
PetitModBus_TIMER_Initialise   0x00a70c    program     extern C:\GIT-REPOS\Siebwalde\TrackController3.X\modbus\PetitModbusPort.c
  PetitModBus_TimerValues   0x00a7e0    program     extern C:\GIT-REPOS\Siebwalde\TrackController3.X\modbus\PetitModbusPort.c
PetitModBus_UART_Initialise   0x00a706    program     extern C:\GIT-REPOS\Siebwalde\TrackController3.X\modbus\PetitModbusPort.c
   PetitModBus_UART_Putch   0x00a712    program     extern C:\GIT-REPOS\Siebwalde\TrackController3.X\modbus\PetitModbusPort.c
  PetitModBus_UART_String   0x00a72c    program     extern C:\GIT-REPOS\Siebwalde\TrackController3.X\modbus\PetitModbusPort.c
    PetitModbusIntHandler   0x00b3d0    program     extern C:\GIT-REPOS\Siebwalde\TrackController3.X\modbus\Interrupts.c
         PetitSendMessage   0x0056c4    program     extern C:\GIT-REPOS\Siebwalde\TrackController3.X\modbus\PetitModbus.c
              Petit_CRC16   0x00555a    program     extern C:\GIT-REPOS\Siebwalde\TrackController3.X\modbus\PetitModbus.c
     Petit_CheckRxTimeout   0x005700    program     extern C:\GIT-REPOS\Siebwalde\TrackController3.X\modbus\PetitModbus.c
          Petit_DoSlaveTX   0x00569c    program     extern C:\GIT-REPOS\Siebwalde\TrackController3.X\modbus\PetitModbus.c
    Petit_RxDataAvailable   0x0056e0    program     extern C:\GIT-REPOS\Siebwalde\TrackController3.X\modbus\PetitModbus.c
              Petit_RxRTU   0x0057ba    program     extern C:\GIT-REPOS\Siebwalde\TrackController3.X\modbus\PetitModbus.c
              Petit_TxRTU   0x005922    program     extern C:\GIT-REPOS\Siebwalde\TrackController3.X\modbus\PetitModbus.c
       ProcessPetitModbus   0x005a82    program     extern C:\GIT-REPOS\Siebwalde\TrackController3.X\modbus\PetitModbus.c
     ROMStringToIPAddress   0x0016c2    program     extern C:\GIT-REPOS\Siebwalde\TrackController3.X\Microchip\TCPIPStack\Helpers.c
                 ReadI2C1   0x00b572    program     extern C:\GIT-REPOS\Siebwalde\TrackController3.X\I2c2\i2c1read.c
                 ReadI2C2   0x00b304    program     extern C:\GIT-REPOS\Siebwalde\TrackController3.X\I2c2\i2c2read.c
               ReadPHYReg   0x003b9c    program     extern C:\GIT-REPOS\Siebwalde\TrackController3.X\Microchip\TCPIPStack\ETH97J60.c
         ReceiveInterrupt   0x00a7a0    program     extern C:\GIT-REPOS\Siebwalde\TrackController3.X\modbus\PetitModbusPort.c
              RestartI2C1   0x00b6a8    program     extern C:\GIT-REPOS\Siebwalde\TrackController3.X\I2c2\i2c1rstr.c
              RestartI2C2   0x00b698    program     extern C:\GIT-REPOS\Siebwalde\TrackController3.X\I2c2\i2c2rstr.c
                   SPARE2   0x0065aa    program     extern C:\GIT-REPOS\Siebwalde\TrackController3.X\Shift_Register.c
                   SPARE3   0x006672    program     extern C:\GIT-REPOS\Siebwalde\TrackController3.X\Shift_Register.c
             SRAMInitHeap   0x0087f6    program     extern C:\GIT-REPOS\Siebwalde\TrackController3.X\Microchip\PIC18Salloc\salloc.c
                SRAMalloc   0x008574    program     extern C:\GIT-REPOS\Siebwalde\TrackController3.X\Microchip\PIC18Salloc\salloc.c
                 SRAMfree   0x0087ca    program     extern C:\GIT-REPOS\Siebwalde\TrackController3.X\Microchip\PIC18Salloc\salloc.c
          SendPetitModbus   0x005b24    program     extern C:\GIT-REPOS\Siebwalde\TrackController3.X\modbus\PetitModbus.c
           Send_Diag_Comm   0x006e8c    program     extern C:\GIT-REPOS\Siebwalde\TrackController3.X\Diagnostic_ret.c
Sent_Track_Power_Meassage   0x0010b0    program     extern C:\GIT-REPOS\Siebwalde\TrackController3.X\Var_Out.c
     SerializedMACAddress   0x00000e    program     static C:\GIT-REPOS\Siebwalde\TrackController3.X\FiddleYard.c
        StackApplications   0x00975c    program     extern C:\GIT-REPOS\Siebwalde\TrackController3.X\Microchip\TCPIPStack\StackTsk.c
                StackInit   0x0094de    program     extern C:\GIT-REPOS\Siebwalde\TrackController3.X\Microchip\TCPIPStack\StackTsk.c
                StackTask   0x00953a    program     extern C:\GIT-REPOS\Siebwalde\TrackController3.X\Microchip\TCPIPStack\StackTsk.c
                StartI2C1   0x00b6a0    program     extern C:\GIT-REPOS\Siebwalde\TrackController3.X\I2c2\i2c1strt.c
                StartI2C2   0x000014    program     extern C:\GIT-REPOS\Siebwalde\TrackController3.X\I2c2\i2c2strt.c
       StatexMachinexInit   0x00b6b0    program     extern C:\GIT-REPOS\Siebwalde\TrackController3.X\State_Machine.c
                 StopI2C1   0x00b6a4    program     extern C:\GIT-REPOS\Siebwalde\TrackController3.X\I2c2\i2c1stop.c
                 StopI2C2   0x00b694    program     extern C:\GIT-REPOS\Siebwalde\TrackController3.X\I2c2\i2c2stop.c
        StringToIPAddress   0x00146e    program     extern C:\GIT-REPOS\Siebwalde\TrackController3.X\Microchip\TCPIPStack\Helpers.c
            SwapARPPacket   0x007ec4    program     extern C:\GIT-REPOS\Siebwalde\TrackController3.X\Microchip\TCPIPStack\ARP.c
             SwapIPHeader   0x008dfc    program     static C:\GIT-REPOS\Siebwalde\TrackController3.X\Microchip\TCPIPStack\IP.c
     TCPSocketInitializer   0x00b5be    program     extern C:\GIT-REPOS\Siebwalde\TrackController3.X\TCPIPConfig.h
                  TR_MEAS   0x006522    program     extern C:\GIT-REPOS\Siebwalde\TrackController3.X\Shift_Register.c
               TSIGN1616A   0x00af20    program     static E:\3.46\pic18-lt\cxx-framework\src\traditional\math\fxm1616s.asm
             Target_Ready   0x00106c    program     extern C:\GIT-REPOS\Siebwalde\TrackController3.X\Var_Out.c
TickConvertToMilliseconds   0x00a064    program     extern C:\GIT-REPOS\Siebwalde\TrackController3.X\Microchip\TCPIPStack\Tick.c
                  TickGet   0x009fb2    program     extern C:\GIT-REPOS\Siebwalde\TrackController3.X\Microchip\TCPIPStack\Tick.c
            TickGetDiv256   0x009fc8    program     extern C:\GIT-REPOS\Siebwalde\TrackController3.X\Microchip\TCPIPStack\Tick.c
            TickGetDiv64K   0x00a016    program     extern C:\GIT-REPOS\Siebwalde\TrackController3.X\Microchip\TCPIPStack\Tick.c
                 TickInit   0x009f7c    program     extern C:\GIT-REPOS\Siebwalde\TrackController3.X\Microchip\TCPIPStack\Tick.c
               TickUpdate   0x00a0ac    program     extern C:\GIT-REPOS\Siebwalde\TrackController3.X\Microchip\TCPIPStack\Tick.c
                 Track_Nr   0x006802    program     extern C:\GIT-REPOS\Siebwalde\TrackController3.X\Shift_Register.c
                 UDPClose   0x002282    program     extern C:\GIT-REPOS\Siebwalde\TrackController3.X\Microchip\TCPIPStack\UDP.c
               UDPDiscard   0x002a6c    program     extern C:\GIT-REPOS\Siebwalde\TrackController3.X\Microchip\TCPIPStack\UDP.c
                 UDPFlush   0x002784    program     extern C:\GIT-REPOS\Siebwalde\TrackController3.X\Microchip\TCPIPStack\UDP.c
                   UDPGet   0x00292c    program     extern C:\GIT-REPOS\Siebwalde\TrackController3.X\Microchip\TCPIPStack\UDP.c
              UDPGetArray   0x002980    program     extern C:\GIT-REPOS\Siebwalde\TrackController3.X\Microchip\TCPIPStack\UDP.c
                  UDPInit   0x0020a4    program     extern C:\GIT-REPOS\Siebwalde\TrackController3.X\Microchip\TCPIPStack\UDP.c
            UDPIsGetReady   0x0028d4    program     extern C:\GIT-REPOS\Siebwalde\TrackController3.X\Microchip\TCPIPStack\UDP.c
            UDPIsPutReady   0x0023a0    program     extern C:\GIT-REPOS\Siebwalde\TrackController3.X\Microchip\TCPIPStack\UDP.c
                  UDPOpen   0x0020d6    program     extern C:\GIT-REPOS\Siebwalde\TrackController3.X\Microchip\TCPIPStack\UDP.c
               UDPProcess   0x002a86    program     extern C:\GIT-REPOS\Siebwalde\TrackController3.X\Microchip\TCPIPStack\UDP.c
                   UDPPut   0x002420    program     extern C:\GIT-REPOS\Siebwalde\TrackController3.X\Microchip\TCPIPStack\UDP.c
              UDPPutArray   0x002484    program     extern C:\GIT-REPOS\Siebwalde\TrackController3.X\Microchip\TCPIPStack\UDP.c
           UDPPutROMArray   0x00257a    program     extern C:\GIT-REPOS\Siebwalde\TrackController3.X\Microchip\TCPIPStack\UDP.c
          UDPPutROMString   0x0026f6    program     extern C:\GIT-REPOS\Siebwalde\TrackController3.X\Microchip\TCPIPStack\UDP.c
             UDPPutString   0x002676    program     extern C:\GIT-REPOS\Siebwalde\TrackController3.X\Microchip\TCPIPStack\UDP.c
           UDPSetRxBuffer   0x00235c    program     extern C:\GIT-REPOS\Siebwalde\TrackController3.X\Microchip\TCPIPStack\UDP.c
           UDPSetTxBuffer   0x0022e4    program     extern C:\GIT-REPOS\Siebwalde\TrackController3.X\Microchip\TCPIPStack\UDP.c
                  UDPTask   0x0020d0    program     extern C:\GIT-REPOS\Siebwalde\TrackController3.X\Microchip\TCPIPStack\UDP.c
         Var_Out_Programm   0x000110    program     extern C:\GIT-REPOS\Siebwalde\TrackController3.X\Var_Out.c
         Var_Out_Switcher   0x000252    program     extern C:\GIT-REPOS\Siebwalde\TrackController3.X\Var_Out.c
                WriteI2C1   0x00afb2    program     extern C:\GIT-REPOS\Siebwalde\TrackController3.X\I2c2\i2c1writ.c
                WriteI2C2   0x00b13a    program     extern C:\GIT-REPOS\Siebwalde\TrackController3.X\I2c2\i2c2writ.c
              WritePHYReg   0x003bf6    program     extern C:\GIT-REPOS\Siebwalde\TrackController3.X\Microchip\TCPIPStack\ETH97J60.c
              _2jContinue   0x009a98    program     static E:\3.46\pic18-lt\cxx-framework\src\traditional\stdclib\memset.asm
                   _2jEnd   0x009afc    program     static E:\3.46\pic18-lt\cxx-framework\src\traditional\stdclib\slenpgm.asm
              _3jContinue   0x009a64    program     static E:\3.46\pic18-lt\cxx-framework\src\traditional\stdclib\mcpyp2r.asm
                   _3jEnd   0x009aa2    program     static E:\3.46\pic18-lt\cxx-framework\src\traditional\stdclib\memset.asm
              _4jContinue   0x0099b6    program     static E:\3.46\pic18-lt\cxx-framework\src\traditional\stdclib\memcmp.asm
              _4jContinue   0x009a10    program     static E:\3.46\pic18-lt\cxx-framework\src\traditional\stdclib\memcpy.asm
                   _4jEnd   0x009a6e    program     static E:\3.46\pic18-lt\cxx-framework\src\traditional\stdclib\mcpyp2r.asm
                   _5jEnd   0x0099c0    program     static E:\3.46\pic18-lt\cxx-framework\src\traditional\stdclib\memcmp.asm
                   _5jEnd   0x009a1a    program     static E:\3.46\pic18-lt\cxx-framework\src\traditional\stdclib\memcpy.asm
             _DHCPReceive   0x004234    program     static C:\GIT-REPOS\Siebwalde\TrackController3.X\Microchip\TCPIPStack\DHCP.c
                _DHCPSend   0x004686    program     static C:\GIT-REPOS\Siebwalde\TrackController3.X\Microchip\TCPIPStack\DHCP.c
               _SRAMmerge   0x0088f0    program     extern C:\GIT-REPOS\Siebwalde\TrackController3.X\Microchip\PIC18Salloc\salloc.c
       ___case_3_lbl00035   0x000acc    program     static                          
       ___case_4_lbl00042   0x000d22    program     static                          
      ___default_lbl00047   0x001006    program     static                          
           ___do_lbl00002   0x009faa    program     static                          
           ___do_lbl00003   0x009fae    program     static                          
           ___do_lbl00004   0x009f8c    program     static                          
         ___else_lbl00004   0x00981c    program     static                          
         ___else_lbl00006   0x009776    program     static                          
         ___else_lbl00011   0x00992a    program     static                          
          ___for_lbl00100   0x001f56    program     static                          
          ___for_lbl00101   0x001f5c    program     static                          
          ___for_lbl00102   0x001f38    program     static                          
          ___for_lbl00103   0x001f70    program     static                          
          ___for_lbl00104   0x001f74    program     static                          
          ___for_lbl00105   0x001f5c    program     static                          
           ___if_lbl00003   0x009868    program     static                          
           ___if_lbl00005   0x009868    program     static                          
           ___if_lbl00010   0x009976    program     static                          
           ___if_lbl00014   0x00135a    program     static                          
           ___if_lbl00015   0x001378    program     static                          
           ___if_lbl00016   0x00140a    program     static                          
           ___if_lbl00017   0x001410    program     static                          
           ___if_lbl00020   0x0031be    program     static                          
           ___if_lbl00021   0x0031ce    program     static                          
           ___if_lbl00027   0x00329c    program     static                          
           ___if_lbl00030   0x003314    program     static                          
       ___return_lbl00000   0x009868    program     static                          
       ___return_lbl00000   0x002fb6    program     static                          
       ___return_lbl00000   0x00b4f0    program     static                          
       ___return_lbl00000   0x000004    program     static                          
       ___return_lbl00000   0x00b226    program     static                          
       ___return_lbl00000   0x00b4c4    program     static                          
       ___return_lbl00001   0x00b5fc    program     static                          
       ___return_lbl00001   0x009fb0    program     static                          
       ___return_lbl00002   0x00acca    program     static                          
       ___return_lbl00005   0x00000c    program     static                          
       ___return_lbl00007   0x00001c    program     static                          
       ___return_lbl00007   0x009976    program     static                          
       ___return_lbl00009   0x00145a    program     static                          
       ___return_lbl00019   0x00331c    program     static                          
       ___return_lbl00079   0x003afa    program     static                          
       ___return_lbl00080   0x003b3e    program     static                          
       ___return_lbl00083   0x003b94    program     static                          
       ___return_lbl00086   0x003be2    program     static                          
       ___return_lbl00089   0x003c30    program     static                          
       ___return_lbl00099   0x001f86    program     static                          
   ___switchexit_lbl00007   0x001020    program     static                          
        ___while_lbl00001   0x002ec6    program     static                          
        ___while_lbl00001   0x00981c    program     static                          
        ___while_lbl00002   0x002ecc    program     static                          
        ___while_lbl00002   0x009868    program     static                          
        ___while_lbl00008   0x00992a    program     static                          
        ___while_lbl00009   0x009976    program     static                          
        ___while_lbl00010   0x0012b4    program     static                          
        ___while_lbl00011   0x001412    program     static                          
        ___while_lbl00012   0x0012bc    program     static                          
        ___while_lbl00013   0x0012c0    program     static                          
        ___while_lbl00081   0x003b0a    program     static                          
        ___while_lbl00082   0x003b3e    program     static                          
        ___while_lbl00084   0x003b4e    program     static                          
        ___while_lbl00085   0x003b94    program     static                          
        ___while_lbl00087   0x003bb8    program     static                          
        ___while_lbl00088   0x003bbe    program     static                          
        ___while_lbl00090   0x003c2a    program     static                          
        ___while_lbl00091   0x003c30    program     static                          
               __config_0   0x01fff8    program     static C:\GIT-REPOS\Siebwalde\TrackController3.X\FiddleYard.c
               __config_1   0x01fff9    program     static C:\GIT-REPOS\Siebwalde\TrackController3.X\FiddleYard.c
               __config_2   0x01fffa    program     static C:\GIT-REPOS\Siebwalde\TrackController3.X\FiddleYard.c
               __config_3   0x01fffb    program     static C:\GIT-REPOS\Siebwalde\TrackController3.X\FiddleYard.c
               __config_4   0x01fffc    program     static C:\GIT-REPOS\Siebwalde\TrackController3.X\FiddleYard.c
               __config_5   0x01fffd    program     static C:\GIT-REPOS\Siebwalde\TrackController3.X\FiddleYard.c
                   __init   0x000006    program     extern E:\3.46\pic18-lt\cxx-framework\src\traditional\stdclib\__init.c
                   __pa_0   0x005278    program     static E:\3.46\pic18-lt\cxx-framework\src\traditional\stdclib\vfprintf.c
                   __pa_1   0x005280    program     static E:\3.46\pic18-lt\cxx-framework\src\traditional\stdclib\vfprintf.c
                  __pa_10   0x005334    program     static E:\3.46\pic18-lt\cxx-framework\src\traditional\stdclib\vfprintf.c
                  __pa_11   0x005342    program     static E:\3.46\pic18-lt\cxx-framework\src\traditional\stdclib\vfprintf.c
                  __pa_12   0x005358    program     static E:\3.46\pic18-lt\cxx-framework\src\traditional\stdclib\vfprintf.c
                  __pa_13   0x005372    program     static E:\3.46\pic18-lt\cxx-framework\src\traditional\stdclib\vfprintf.c
                  __pa_14   0x00538a    program     static E:\3.46\pic18-lt\cxx-framework\src\traditional\stdclib\vfprintf.c
                  __pa_15   0x00539a    program     static E:\3.46\pic18-lt\cxx-framework\src\traditional\stdclib\vfprintf.c
                  __pa_16   0x0053b0    program     static E:\3.46\pic18-lt\cxx-framework\src\traditional\stdclib\vfprintf.c
                  __pa_17   0x0053c2    program     static E:\3.46\pic18-lt\cxx-framework\src\traditional\stdclib\vfprintf.c
                  __pa_18   0x0053d4    program     static E:\3.46\pic18-lt\cxx-framework\src\traditional\stdclib\vfprintf.c
                  __pa_19   0x0053de    program     static E:\3.46\pic18-lt\cxx-framework\src\traditional\stdclib\vfprintf.c
                   __pa_2   0x00528a    program     static E:\3.46\pic18-lt\cxx-framework\src\traditional\stdclib\vfprintf.c
                  __pa_20   0x0053ee    program     static E:\3.46\pic18-lt\cxx-framework\src\traditional\stdclib\vfprintf.c
                  __pa_21   0x0053fe    program     static E:\3.46\pic18-lt\cxx-framework\src\traditional\stdclib\vfprintf.c
                  __pa_22   0x00540e    program     static E:\3.46\pic18-lt\cxx-framework\src\traditional\stdclib\vfprintf.c
                  __pa_23   0x00541a    program     static E:\3.46\pic18-lt\cxx-framework\src\traditional\stdclib\vfprintf.c
                  __pa_24   0x005428    program     static E:\3.46\pic18-lt\cxx-framework\src\traditional\stdclib\vfprintf.c
                  __pa_25   0x005430    program     static E:\3.46\pic18-lt\cxx-framework\src\traditional\stdclib\vfprintf.c
                  __pa_26   0x00543a    program     static E:\3.46\pic18-lt\cxx-framework\src\traditional\stdclib\vfprintf.c
                  __pa_27   0x005444    program     static E:\3.46\pic18-lt\cxx-framework\src\traditional\stdclib\vfprintf.c
                  __pa_28   0x00544c    program     static E:\3.46\pic18-lt\cxx-framework\src\traditional\stdclib\vfprintf.c
                  __pa_29   0x00545a    program     static E:\3.46\pic18-lt\cxx-framework\src\traditional\stdclib\vfprintf.c
                   __pa_3   0x005294    program     static E:\3.46\pic18-lt\cxx-framework\src\traditional\stdclib\vfprintf.c
                  __pa_30   0x005476    program     static E:\3.46\pic18-lt\cxx-framework\src\traditional\stdclib\vfprintf.c
                  __pa_31   0x005490    program     static E:\3.46\pic18-lt\cxx-framework\src\traditional\stdclib\vfprintf.c
                  __pa_32   0x0054aa    program     static E:\3.46\pic18-lt\cxx-framework\src\traditional\stdclib\vfprintf.c
                  __pa_33   0x0054c2    program     static E:\3.46\pic18-lt\cxx-framework\src\traditional\stdclib\vfprintf.c
                  __pa_34   0x0054cc    program     static E:\3.46\pic18-lt\cxx-framework\src\traditional\stdclib\vfprintf.c
                  __pa_35   0x0054da    program     static E:\3.46\pic18-lt\cxx-framework\src\traditional\stdclib\vfprintf.c
                  __pa_36   0x0054e2    program     static E:\3.46\pic18-lt\cxx-framework\src\traditional\stdclib\vfprintf.c
                  __pa_37   0x0054ec    program     static E:\3.46\pic18-lt\cxx-framework\src\traditional\stdclib\vfprintf.c
                  __pa_38   0x0054fc    program     static E:\3.46\pic18-lt\cxx-framework\src\traditional\stdclib\vfprintf.c
                  __pa_39   0x00550a    program     static E:\3.46\pic18-lt\cxx-framework\src\traditional\stdclib\vfprintf.c
                   __pa_4   0x0052ac    program     static E:\3.46\pic18-lt\cxx-framework\src\traditional\stdclib\vfprintf.c
                  __pa_40   0x005516    program     static E:\3.46\pic18-lt\cxx-framework\src\traditional\stdclib\vfprintf.c
                  __pa_41   0x005522    program     static E:\3.46\pic18-lt\cxx-framework\src\traditional\stdclib\vfprintf.c
                  __pa_42   0x00552a    program     static E:\3.46\pic18-lt\cxx-framework\src\traditional\stdclib\vfprintf.c
                  __pa_43   0x005534    program     static E:\3.46\pic18-lt\cxx-framework\src\traditional\stdclib\vfprintf.c
                  __pa_44   0x00553a    program     static E:\3.46\pic18-lt\cxx-framework\src\traditional\stdclib\vfprintf.c
                  __pa_45   0x005544    program     static E:\3.46\pic18-lt\cxx-framework\src\traditional\stdclib\vfprintf.c
                  __pa_46   0x005550    program     static E:\3.46\pic18-lt\cxx-framework\src\traditional\stdclib\vfprintf.c
                   __pa_5   0x0052c0    program     static E:\3.46\pic18-lt\cxx-framework\src\traditional\stdclib\vfprintf.c
                   __pa_6   0x0052dc    program     static E:\3.46\pic18-lt\cxx-framework\src\traditional\stdclib\vfprintf.c
                   __pa_7   0x0052e6    program     static E:\3.46\pic18-lt\cxx-framework\src\traditional\stdclib\vfprintf.c
                   __pa_8   0x0052f2    program     static E:\3.46\pic18-lt\cxx-framework\src\traditional\stdclib\vfprintf.c
                   __pa_9   0x005314    program     static E:\3.46\pic18-lt\cxx-framework\src\traditional\stdclib\vfprintf.c
               __string_0   0x00b461    program     static C:\GIT-REPOS\Siebwalde\TrackController3.X\FiddleYard.c
               __string_0   0x00b430    program     static C:\GIT-REPOS\Siebwalde\TrackController3.X\Microchip\TCPIPStack\Announce.c
               __string_1   0x00b45f    program     static C:\GIT-REPOS\Siebwalde\TrackController3.X\FiddleYard.c
               __string_2   0x00b457    program     static C:\GIT-REPOS\Siebwalde\TrackController3.X\FiddleYard.c
               __string_3   0x00b44c    program     static C:\GIT-REPOS\Siebwalde\TrackController3.X\FiddleYard.c
               __tmplbl_0   0x00131e    program     static                          
               __tmplbl_0   0x009818    program     static                          
               __tmplbl_1   0x00984a    program     static                          
              __tmplbl_10   0x003238    program     static                          
              __tmplbl_11   0x003236    program     static                          
              __tmplbl_12   0x003302    program     static                          
              __tmplbl_13   0x0032f4    program     static                          
              __tmplbl_14   0x0032fa    program     static                          
               __tmplbl_2   0x009924    program     static                          
               __tmplbl_3   0x009958    program     static                          
              __tmplbl_42   0x00540e    program     static                          
              __tmplbl_43   0x005256    program     static                          
              __tmplbl_44   0x00523c    program     static                          
               __tmplbl_5   0x00329a    program     static                          
               __tmplbl_6   0x003286    program     static                          
               __tmplbl_7   0x003270    program     static                          
               __tmplbl_8   0x00325c    program     static                          
              __tmplbl_85   0x00498e    program     static                          
               __tmplbl_9   0x003246    program     static                          
            __zero_memory   0x00b4f2    program     extern E:\3.46\pic18-lt\cxx-framework\src\traditional\proc\p18f97j60.asm
                _do_cinit   0x00ac2e    program     extern E:\3.46\pic18-lt\cxx-framework\src\traditional\startup\c018i.c
                   _entry   0x000000    program     extern E:\3.46\pic18-lt\cxx-framework\src\traditional\startup\c018i.c
                   _false   0x00b4c0    program     static                          
                 _startup   0x00b5e2    program     extern E:\3.46\pic18-lt\cxx-framework\src\traditional\startup\c018i.c
              _usart_putc   0x00b5fe    program     extern E:\3.46\pic18-lt\cxx-framework\src\pmc_common\USART\_usartpc.asm
               _user_putc   0x009c22    program     extern C:\GIT-REPOS\Siebwalde\TrackController3.X\eusart1.c
                auchCRCHi   0x00a606    program     extern C:\GIT-REPOS\Siebwalde\TrackController3.X\modbus\PetitModbus.c
                auchCRCLo   0x00a506    program     extern C:\GIT-REPOS\Siebwalde\TrackController3.X\modbus\PetitModbus.c
             btohexa_high   0x001b32    program     extern C:\GIT-REPOS\Siebwalde\TrackController3.X\Microchip\TCPIPStack\Helpers.c
              btohexa_low   0x001b6a    program     extern C:\GIT-REPOS\Siebwalde\TrackController3.X\Microchip\TCPIPStack\Helpers.c
                compare_l   0x00b514    program     static E:\3.46\pic18-lt\cxx-framework\src\traditional\proc\p18f97j60.asm
                copy_loop   0x00aca0    program     static                          
            copy_one_byte   0x00aca6    program     static                          
                     done   0x00acca    program     static                          
             done_copying   0x00acb4    program     static                          
                  endloop   0x00b4ec    program     static                          
                 getsI2C1   0x00b296    program     extern C:\GIT-REPOS\Siebwalde\TrackController3.X\I2c2\i2c1gets.c
                 getsI2C2   0x00b228    program     extern C:\GIT-REPOS\Siebwalde\TrackController3.X\I2c2\i2c2gets.c
                  hexatob   0x001a74    program     extern C:\GIT-REPOS\Siebwalde\TrackController3.X\Microchip\TCPIPStack\Helpers.c
                 high_isr   0x00902a    program     extern C:\GIT-REPOS\Siebwalde\TrackController3.X\FiddleYard.c
 interrupt_at_high_vector   0x000008    program     extern C:\GIT-REPOS\Siebwalde\TrackController3.X\FiddleYard.c
  interrupt_at_low_vector   0x000018    program     extern C:\GIT-REPOS\Siebwalde\TrackController3.X\FiddleYard.c
                  isdigit   0x00b59a    program     extern E:\3.46\pic18-lt\cxx-framework\src\traditional\stdclib\isdigit.asm
                     jEnd   0x009aaa    program     static E:\3.46\pic18-lt\cxx-framework\src\traditional\stdclib\memset.asm
                     jEnd   0x009a76    program     static E:\3.46\pic18-lt\cxx-framework\src\traditional\stdclib\mcpyp2r.asm
                     jEnd   0x009a20    program     static E:\3.46\pic18-lt\cxx-framework\src\traditional\stdclib\memcpy.asm
                     jEnd   0x0099c6    program     static E:\3.46\pic18-lt\cxx-framework\src\traditional\stdclib\memcmp.asm
                     jEnd   0x009ac6    program     static E:\3.46\pic18-lt\cxx-framework\src\traditional\stdclib\strlen.asm
                     jEnd   0x009b3a    program     static E:\3.46\pic18-lt\cxx-framework\src\traditional\stdclib\strupr.asm
                     jEnd   0x009afe    program     static E:\3.46\pic18-lt\cxx-framework\src\traditional\stdclib\slenpgm.asm
                    jLoop   0x009ae6    program     static E:\3.46\pic18-lt\cxx-framework\src\traditional\stdclib\slenpgm.asm
                    jLoop   0x009b26    program     static E:\3.46\pic18-lt\cxx-framework\src\traditional\stdclib\strupr.asm
                    jLoop   0x0099aa    program     static E:\3.46\pic18-lt\cxx-framework\src\traditional\stdclib\memcmp.asm
                    jLoop   0x009abc    program     static E:\3.46\pic18-lt\cxx-framework\src\traditional\stdclib\strlen.asm
                    jLoop   0x009a04    program     static E:\3.46\pic18-lt\cxx-framework\src\traditional\stdclib\memcpy.asm
                    jLoop   0x009a8c    program     static E:\3.46\pic18-lt\cxx-framework\src\traditional\stdclib\memset.asm
                    jLoop   0x009a58    program     static E:\3.46\pic18-lt\cxx-framework\src\traditional\stdclib\mcpyp2r.asm
                   jMatch   0x00b5ba    program     static E:\3.46\pic18-lt\cxx-framework\src\traditional\stdclib\isdigit.asm
                 jNoMatch   0x00b5bc    program     static E:\3.46\pic18-lt\cxx-framework\src\traditional\stdclib\isdigit.asm
                    jSkip   0x009b36    program     static E:\3.46\pic18-lt\cxx-framework\src\traditional\stdclib\strupr.asm
          leftRotateDWORD   0x001f0e    program     extern C:\GIT-REPOS\Siebwalde\TrackController3.X\Microchip\TCPIPStack\Helpers.c
                     loop   0x00b60e    program     static E:\3.46\pic18-lt\cxx-framework\src\pmc_common\USART\_usartpc.asm
                     loop   0x00b5f2    program     static                          
                     loop   0x00b4d0    program     static                          
                     loop   0x00b48c    program     static                          
                   loop_h   0x00b50c    program     static E:\3.46\pic18-lt\cxx-framework\src\traditional\proc\p18f97j60.asm
                   loop_l   0x00b516    program     static E:\3.46\pic18-lt\cxx-framework\src\traditional\proc\p18f97j60.asm
                  low_isr   0x00903c    program     extern C:\GIT-REPOS\Siebwalde\TrackController3.X\FiddleYard.c
                     main   0x008ee4    program     extern C:\GIT-REPOS\Siebwalde\TrackController3.X\FiddleYard.c
                   memcmp   0x00998a    program     extern E:\3.46\pic18-lt\cxx-framework\src\traditional\stdclib\memcmp.asm
                   memcpy   0x0099dc    program     extern E:\3.46\pic18-lt\cxx-framework\src\traditional\stdclib\memcpy.asm
            memcpypgm2ram   0x009a32    program     extern E:\3.46\pic18-lt\cxx-framework\src\traditional\stdclib\mcpyp2r.asm
                   memset   0x009a78    program     extern E:\3.46\pic18-lt\cxx-framework\src\traditional\stdclib\memset.asm
                   printf   0x00ae00    program     extern E:\3.46\pic18-lt\cxx-framework\src\traditional\stdclib\printf.c
                     putc   0x00af2e    program     extern E:\3.46\pic18-lt\cxx-framework\src\traditional\stdclib\putc.c
                 putsI2C1   0x00b0b8    program     extern C:\GIT-REPOS\Siebwalde\TrackController3.X\I2c2\i2c1puts.c
                 putsI2C2   0x00b036    program     extern C:\GIT-REPOS\Siebwalde\TrackController3.X\I2c2\i2c2puts.c
                 s_digits   0x00b64a    program     static E:\3.46\pic18-lt\cxx-framework\src\traditional\stdclib\vfprintf.c
            s_put_n_chars   0x004938    program     static E:\3.46\pic18-lt\cxx-framework\src\traditional\stdclib\vfprintf.c
           stricmppgm2ram   0x001b9e    program     extern C:\GIT-REPOS\Siebwalde\TrackController3.X\Microchip\TCPIPStack\Helpers.c
                   strlen   0x009aac    program     extern E:\3.46\pic18-lt\cxx-framework\src\traditional\stdclib\strlen.asm
                strlenpgm   0x009ac8    program     extern E:\3.46\pic18-lt\cxx-framework\src\traditional\stdclib\slenpgm.asm
                  strnchr   0x00202c    program     extern C:\GIT-REPOS\Siebwalde\TrackController3.X\Microchip\TCPIPStack\Helpers.c
                   strupr   0x009b12    program     extern E:\3.46\pic18-lt\cxx-framework\src\traditional\stdclib\strupr.asm
                    swapl   0x001d0a    program     extern C:\GIT-REPOS\Siebwalde\TrackController3.X\Microchip\TCPIPStack\Helpers.c
                    swaps   0x001cb6    program     extern C:\GIT-REPOS\Siebwalde\TrackController3.X\Microchip\TCPIPStack\Helpers.c
                     test   0x00ac48    program     static                          
                    uitoa   0x001928    program     extern C:\GIT-REPOS\Siebwalde\TrackController3.X\Microchip\TCPIPStack\Helpers.c
                 vfprintf   0x004964    program     extern E:\3.46\pic18-lt\cxx-framework\src\traditional\stdclib\vfprintf.c
               zero_block   0x00b50c    program     static E:\3.46\pic18-lt\cxx-framework\src\traditional\proc\p18f97j60.asm
                   ADCON0   0x000fc2       data     extern E:\3.46\pic18-lt\cxx-framework\src\traditional\proc\p18f97j60.asm
               ADCON0bits   0x000fc2       data     extern E:\3.46\pic18-lt\cxx-framework\src\traditional\proc\p18f97j60.asm
                   ADCON1   0x000fc1       data     extern E:\3.46\pic18-lt\cxx-framework\src\traditional\proc\p18f97j60.asm
               ADCON1bits   0x000fc1       data     extern E:\3.46\pic18-lt\cxx-framework\src\traditional\proc\p18f97j60.asm
                   ADCON2   0x000fc0       data     extern E:\3.46\pic18-lt\cxx-framework\src\traditional\proc\p18f97j60.asm
               ADCON2bits   0x000fc0       data     extern E:\3.46\pic18-lt\cxx-framework\src\traditional\proc\p18f97j60.asm
                    ADRES   0x000fc3       data     extern E:\3.46\pic18-lt\cxx-framework\src\traditional\proc\p18f97j60.asm
                   ADRESH   0x000fc4       data     extern E:\3.46\pic18-lt\cxx-framework\src\traditional\proc\p18f97j60.asm
                   ADRESL   0x000fc3       data     extern E:\3.46\pic18-lt\cxx-framework\src\traditional\proc\p18f97j60.asm
                AN0String   0x000383       data     extern C:\GIT-REPOS\Siebwalde\TrackController3.X\FiddleYard.c
                AppConfig   0x000350       data     extern C:\GIT-REPOS\Siebwalde\TrackController3.X\FiddleYard.c
                  BAUDCON   0x000f7e       data     extern E:\3.46\pic18-lt\cxx-framework\src\traditional\proc\p18f97j60.asm
                 BAUDCON1   0x000f7e       data     extern E:\3.46\pic18-lt\cxx-framework\src\traditional\proc\p18f97j60.asm
             BAUDCON1bits   0x000f7e       data     extern E:\3.46\pic18-lt\cxx-framework\src\traditional\proc\p18f97j60.asm
                 BAUDCON2   0x000f7c       data     extern E:\3.46\pic18-lt\cxx-framework\src\traditional\proc\p18f97j60.asm
             BAUDCON2bits   0x000f7c       data     extern E:\3.46\pic18-lt\cxx-framework\src\traditional\proc\p18f97j60.asm
              BAUDCONbits   0x000f7e       data     extern E:\3.46\pic18-lt\cxx-framework\src\traditional\proc\p18f97j60.asm
                  BAUDCTL   0x000f7e       data     extern E:\3.46\pic18-lt\cxx-framework\src\traditional\proc\p18f97j60.asm
                 BAUDCTL1   0x000f7e       data     extern E:\3.46\pic18-lt\cxx-framework\src\traditional\proc\p18f97j60.asm
             BAUDCTL1bits   0x000f7e       data     extern E:\3.46\pic18-lt\cxx-framework\src\traditional\proc\p18f97j60.asm
                 BAUDCTL2   0x000f7c       data     extern E:\3.46\pic18-lt\cxx-framework\src\traditional\proc\p18f97j60.asm
             BAUDCTL2bits   0x000f7c       data     extern E:\3.46\pic18-lt\cxx-framework\src\traditional\proc\p18f97j60.asm
              BAUDCTLbits   0x000f7e       data     extern E:\3.46\pic18-lt\cxx-framework\src\traditional\proc\p18f97j60.asm
                      BSR   0x000fe0       data     extern E:\3.46\pic18-lt\cxx-framework\src\traditional\proc\p18f97j60.asm
                  CCP1CON   0x000fbd       data     extern E:\3.46\pic18-lt\cxx-framework\src\traditional\proc\p18f97j60.asm
              CCP1CONbits   0x000fbd       data     extern E:\3.46\pic18-lt\cxx-framework\src\traditional\proc\p18f97j60.asm
                  CCP2CON   0x000fba       data     extern E:\3.46\pic18-lt\cxx-framework\src\traditional\proc\p18f97j60.asm
              CCP2CONbits   0x000fba       data     extern E:\3.46\pic18-lt\cxx-framework\src\traditional\proc\p18f97j60.asm
                  CCP3CON   0x000fb7       data     extern E:\3.46\pic18-lt\cxx-framework\src\traditional\proc\p18f97j60.asm
              CCP3CONbits   0x000fb7       data     extern E:\3.46\pic18-lt\cxx-framework\src\traditional\proc\p18f97j60.asm
                  CCP4CON   0x000f73       data     extern E:\3.46\pic18-lt\cxx-framework\src\traditional\proc\p18f97j60.asm
              CCP4CONbits   0x000f73       data     extern E:\3.46\pic18-lt\cxx-framework\src\traditional\proc\p18f97j60.asm
                  CCP5CON   0x000f70       data     extern E:\3.46\pic18-lt\cxx-framework\src\traditional\proc\p18f97j60.asm
              CCP5CONbits   0x000f70       data     extern E:\3.46\pic18-lt\cxx-framework\src\traditional\proc\p18f97j60.asm
                    CCPR1   0x000fbe       data     extern E:\3.46\pic18-lt\cxx-framework\src\traditional\proc\p18f97j60.asm
                   CCPR1H   0x000fbf       data     extern E:\3.46\pic18-lt\cxx-framework\src\traditional\proc\p18f97j60.asm
                   CCPR1L   0x000fbe       data     extern E:\3.46\pic18-lt\cxx-framework\src\traditional\proc\p18f97j60.asm
                    CCPR2   0x000fbb       data     extern E:\3.46\pic18-lt\cxx-framework\src\traditional\proc\p18f97j60.asm
                   CCPR2H   0x000fbc       data     extern E:\3.46\pic18-lt\cxx-framework\src\traditional\proc\p18f97j60.asm
                   CCPR2L   0x000fbb       data     extern E:\3.46\pic18-lt\cxx-framework\src\traditional\proc\p18f97j60.asm
                    CCPR3   0x000fb8       data     extern E:\3.46\pic18-lt\cxx-framework\src\traditional\proc\p18f97j60.asm
                   CCPR3H   0x000fb9       data     extern E:\3.46\pic18-lt\cxx-framework\src\traditional\proc\p18f97j60.asm
                   CCPR3L   0x000fb8       data     extern E:\3.46\pic18-lt\cxx-framework\src\traditional\proc\p18f97j60.asm
                    CCPR4   0x000f74       data     extern E:\3.46\pic18-lt\cxx-framework\src\traditional\proc\p18f97j60.asm
                   CCPR4H   0x000f75       data     extern E:\3.46\pic18-lt\cxx-framework\src\traditional\proc\p18f97j60.asm
                   CCPR4L   0x000f74       data     extern E:\3.46\pic18-lt\cxx-framework\src\traditional\proc\p18f97j60.asm
                    CCPR5   0x000f71       data     extern E:\3.46\pic18-lt\cxx-framework\src\traditional\proc\p18f97j60.asm
                   CCPR5H   0x000f72       data     extern E:\3.46\pic18-lt\cxx-framework\src\traditional\proc\p18f97j60.asm
                   CCPR5L   0x000f71       data     extern E:\3.46\pic18-lt\cxx-framework\src\traditional\proc\p18f97j60.asm
                    CMCON   0x000fb4       data     extern E:\3.46\pic18-lt\cxx-framework\src\traditional\proc\p18f97j60.asm
                CMCONbits   0x000fb4       data     extern E:\3.46\pic18-lt\cxx-framework\src\traditional\proc\p18f97j60.asm
                   CVRCON   0x000fb5       data     extern E:\3.46\pic18-lt\cxx-framework\src\traditional\proc\p18f97j60.asm
               CVRCONbits   0x000fb5       data     extern E:\3.46\pic18-lt\cxx-framework\src\traditional\proc\p18f97j60.asm
                    Cache   0x000e43       data     static C:\GIT-REPOS\Siebwalde\TrackController3.X\Microchip\TCPIPStack\ARP.c
                      Cmd   0x00041f       data     static C:\GIT-REPOS\Siebwalde\TrackController3.X\Command_Machine.c
          Cmd_Read_Switch   0x000e2d       data     static C:\GIT-REPOS\Siebwalde\TrackController3.X\Command_Machine.c
                Comm_List   0x000395       data     static C:\GIT-REPOS\Siebwalde\TrackController3.X\Diagnostic_ret.c
    CurrentPacketLocation   0x000e73       data     static C:\GIT-REPOS\Siebwalde\TrackController3.X\Microchip\TCPIPStack\ETH97J60.c
                     DDRA   0x000f92       data     extern E:\3.46\pic18-lt\cxx-framework\src\traditional\proc\p18f97j60.asm
                 DDRAbits   0x000f92       data     extern E:\3.46\pic18-lt\cxx-framework\src\traditional\proc\p18f97j60.asm
                     DDRB   0x000f93       data     extern E:\3.46\pic18-lt\cxx-framework\src\traditional\proc\p18f97j60.asm
                 DDRBbits   0x000f93       data     extern E:\3.46\pic18-lt\cxx-framework\src\traditional\proc\p18f97j60.asm
                     DDRC   0x000f94       data     extern E:\3.46\pic18-lt\cxx-framework\src\traditional\proc\p18f97j60.asm
                 DDRCbits   0x000f94       data     extern E:\3.46\pic18-lt\cxx-framework\src\traditional\proc\p18f97j60.asm
                     DDRD   0x000f95       data     extern E:\3.46\pic18-lt\cxx-framework\src\traditional\proc\p18f97j60.asm
                 DDRDbits   0x000f95       data     extern E:\3.46\pic18-lt\cxx-framework\src\traditional\proc\p18f97j60.asm
                     DDRE   0x000f96       data     extern E:\3.46\pic18-lt\cxx-framework\src\traditional\proc\p18f97j60.asm
                 DDREbits   0x000f96       data     extern E:\3.46\pic18-lt\cxx-framework\src\traditional\proc\p18f97j60.asm
                     DDRF   0x000f97       data     extern E:\3.46\pic18-lt\cxx-framework\src\traditional\proc\p18f97j60.asm
                 DDRFbits   0x000f97       data     extern E:\3.46\pic18-lt\cxx-framework\src\traditional\proc\p18f97j60.asm
                     DDRG   0x000f98       data     extern E:\3.46\pic18-lt\cxx-framework\src\traditional\proc\p18f97j60.asm
                 DDRGbits   0x000f98       data     extern E:\3.46\pic18-lt\cxx-framework\src\traditional\proc\p18f97j60.asm
                     DDRH   0x000f99       data     extern E:\3.46\pic18-lt\cxx-framework\src\traditional\proc\p18f97j60.asm
                 DDRHbits   0x000f99       data     extern E:\3.46\pic18-lt\cxx-framework\src\traditional\proc\p18f97j60.asm
                     DDRJ   0x000f9a       data     extern E:\3.46\pic18-lt\cxx-framework\src\traditional\proc\p18f97j60.asm
                 DDRJbits   0x000f9a       data     extern E:\3.46\pic18-lt\cxx-framework\src\traditional\proc\p18f97j60.asm
               DHCPClient   0x0002e4       data     static C:\GIT-REPOS\Siebwalde\TrackController3.X\Microchip\TCPIPStack\DHCP.c
DHCPClientInitializedOnce   0x00042e       data     extern C:\GIT-REPOS\Siebwalde\TrackController3.X\Microchip\TCPIPStack\DHCP.c
                Diag_Comm   0x000e79       data     static C:\GIT-REPOS\Siebwalde\TrackController3.X\Diagnostic_ret.c
               Diag_Comm2   0x000e7a       data     static C:\GIT-REPOS\Siebwalde\TrackController3.X\Diagnostic_ret.c
              DiscoverySM   0x00042f       data     static C:\GIT-REPOS\Siebwalde\TrackController3.X\Microchip\TCPIPStack\Announce.c
                  ECCP1AS   0x000fb6       data     extern E:\3.46\pic18-lt\cxx-framework\src\traditional\proc\p18f97j60.asm
              ECCP1ASbits   0x000fb6       data     extern E:\3.46\pic18-lt\cxx-framework\src\traditional\proc\p18f97j60.asm
                 ECCP1CON   0x000fbd       data     extern E:\3.46\pic18-lt\cxx-framework\src\traditional\proc\p18f97j60.asm
             ECCP1CONbits   0x000fbd       data     extern E:\3.46\pic18-lt\cxx-framework\src\traditional\proc\p18f97j60.asm
                 ECCP1DEL   0x000f79       data     extern E:\3.46\pic18-lt\cxx-framework\src\traditional\proc\p18f97j60.asm
             ECCP1DELbits   0x000f79       data     extern E:\3.46\pic18-lt\cxx-framework\src\traditional\proc\p18f97j60.asm
                  ECCP2AS   0x000f68       data     extern E:\3.46\pic18-lt\cxx-framework\src\traditional\proc\p18f97j60.asm
              ECCP2ASbits   0x000f68       data     extern E:\3.46\pic18-lt\cxx-framework\src\traditional\proc\p18f97j60.asm
                 ECCP2CON   0x000fba       data     extern E:\3.46\pic18-lt\cxx-framework\src\traditional\proc\p18f97j60.asm
             ECCP2CONbits   0x000fba       data     extern E:\3.46\pic18-lt\cxx-framework\src\traditional\proc\p18f97j60.asm
                 ECCP2DEL   0x000f67       data     extern E:\3.46\pic18-lt\cxx-framework\src\traditional\proc\p18f97j60.asm
             ECCP2DELbits   0x000f67       data     extern E:\3.46\pic18-lt\cxx-framework\src\traditional\proc\p18f97j60.asm
                  ECCP3AS   0x000f6a       data     extern E:\3.46\pic18-lt\cxx-framework\src\traditional\proc\p18f97j60.asm
              ECCP3ASbits   0x000f6a       data     extern E:\3.46\pic18-lt\cxx-framework\src\traditional\proc\p18f97j60.asm
                 ECCP3CON   0x000fb7       data     extern E:\3.46\pic18-lt\cxx-framework\src\traditional\proc\p18f97j60.asm
             ECCP3CONbits   0x000fb7       data     extern E:\3.46\pic18-lt\cxx-framework\src\traditional\proc\p18f97j60.asm
                 ECCP3DEL   0x000f69       data     extern E:\3.46\pic18-lt\cxx-framework\src\traditional\proc\p18f97j60.asm
             ECCP3DELbits   0x000f69       data     extern E:\3.46\pic18-lt\cxx-framework\src\traditional\proc\p18f97j60.asm
                    ECON1   0x000fd2       data     extern E:\3.46\pic18-lt\cxx-framework\src\traditional\proc\p18f97j60.asm
                ECON1bits   0x000fd2       data     extern E:\3.46\pic18-lt\cxx-framework\src\traditional\proc\p18f97j60.asm
                    ECON2   0x000efe       data     extern E:\3.46\pic18-lt\cxx-framework\src\traditional\proc\p18f97j60.asm
                ECON2bits   0x000efe       data     extern E:\3.46\pic18-lt\cxx-framework\src\traditional\proc\p18f97j60.asm
                    EDATA   0x000f61       data     extern E:\3.46\pic18-lt\cxx-framework\src\traditional\proc\p18f97j60.asm
                EDATAbits   0x000f61       data     extern E:\3.46\pic18-lt\cxx-framework\src\traditional\proc\p18f97j60.asm
                   EDMACS   0x000ef6       data     extern E:\3.46\pic18-lt\cxx-framework\src\traditional\proc\p18f97j60.asm
                  EDMACSH   0x000ef7       data     extern E:\3.46\pic18-lt\cxx-framework\src\traditional\proc\p18f97j60.asm
                  EDMACSL   0x000ef6       data     extern E:\3.46\pic18-lt\cxx-framework\src\traditional\proc\p18f97j60.asm
                  EDMADST   0x000ef4       data     extern E:\3.46\pic18-lt\cxx-framework\src\traditional\proc\p18f97j60.asm
                 EDMADSTH   0x000ef5       data     extern E:\3.46\pic18-lt\cxx-framework\src\traditional\proc\p18f97j60.asm
                 EDMADSTL   0x000ef4       data     extern E:\3.46\pic18-lt\cxx-framework\src\traditional\proc\p18f97j60.asm
                   EDMAND   0x000ef2       data     extern E:\3.46\pic18-lt\cxx-framework\src\traditional\proc\p18f97j60.asm
                  EDMANDH   0x000ef3       data     extern E:\3.46\pic18-lt\cxx-framework\src\traditional\proc\p18f97j60.asm
                  EDMANDL   0x000ef2       data     extern E:\3.46\pic18-lt\cxx-framework\src\traditional\proc\p18f97j60.asm
                   EDMAST   0x000ef0       data     extern E:\3.46\pic18-lt\cxx-framework\src\traditional\proc\p18f97j60.asm
                  EDMASTH   0x000ef1       data     extern E:\3.46\pic18-lt\cxx-framework\src\traditional\proc\p18f97j60.asm
                  EDMASTL   0x000ef0       data     extern E:\3.46\pic18-lt\cxx-framework\src\traditional\proc\p18f97j60.asm
                   EECON1   0x000fa6       data     extern E:\3.46\pic18-lt\cxx-framework\src\traditional\proc\p18f97j60.asm
               EECON1bits   0x000fa6       data     extern E:\3.46\pic18-lt\cxx-framework\src\traditional\proc\p18f97j60.asm
                   EECON2   0x000fa7       data     extern E:\3.46\pic18-lt\cxx-framework\src\traditional\proc\p18f97j60.asm
                  EFLOCON   0x000e97       data     extern E:\3.46\pic18-lt\cxx-framework\src\traditional\proc\p18f97j60.asm
              EFLOCONbits   0x000e97       data     extern E:\3.46\pic18-lt\cxx-framework\src\traditional\proc\p18f97j60.asm
                     EHT0   0x000ec0       data     extern E:\3.46\pic18-lt\cxx-framework\src\traditional\proc\p18f97j60.asm
                     EHT1   0x000ec1       data     extern E:\3.46\pic18-lt\cxx-framework\src\traditional\proc\p18f97j60.asm
                     EHT2   0x000ec2       data     extern E:\3.46\pic18-lt\cxx-framework\src\traditional\proc\p18f97j60.asm
                     EHT3   0x000ec3       data     extern E:\3.46\pic18-lt\cxx-framework\src\traditional\proc\p18f97j60.asm
                     EHT4   0x000ec4       data     extern E:\3.46\pic18-lt\cxx-framework\src\traditional\proc\p18f97j60.asm
                     EHT5   0x000ec5       data     extern E:\3.46\pic18-lt\cxx-framework\src\traditional\proc\p18f97j60.asm
                     EHT6   0x000ec6       data     extern E:\3.46\pic18-lt\cxx-framework\src\traditional\proc\p18f97j60.asm
                     EHT7   0x000ec7       data     extern E:\3.46\pic18-lt\cxx-framework\src\traditional\proc\p18f97j60.asm
                      EIE   0x000efb       data     extern E:\3.46\pic18-lt\cxx-framework\src\traditional\proc\p18f97j60.asm
                  EIEbits   0x000efb       data     extern E:\3.46\pic18-lt\cxx-framework\src\traditional\proc\p18f97j60.asm
                      EIR   0x000f60       data     extern E:\3.46\pic18-lt\cxx-framework\src\traditional\proc\p18f97j60.asm
                  EIRbits   0x000f60       data     extern E:\3.46\pic18-lt\cxx-framework\src\traditional\proc\p18f97j60.asm
                    EPAUS   0x000e98       data     extern E:\3.46\pic18-lt\cxx-framework\src\traditional\proc\p18f97j60.asm
                   EPAUSH   0x000e99       data     extern E:\3.46\pic18-lt\cxx-framework\src\traditional\proc\p18f97j60.asm
                   EPAUSL   0x000e98       data     extern E:\3.46\pic18-lt\cxx-framework\src\traditional\proc\p18f97j60.asm
                  EPKTCNT   0x000ed9       data     extern E:\3.46\pic18-lt\cxx-framework\src\traditional\proc\p18f97j60.asm
                    EPMCS   0x000ed0       data     extern E:\3.46\pic18-lt\cxx-framework\src\traditional\proc\p18f97j60.asm
                   EPMCSH   0x000ed1       data     extern E:\3.46\pic18-lt\cxx-framework\src\traditional\proc\p18f97j60.asm
                   EPMCSL   0x000ed0       data     extern E:\3.46\pic18-lt\cxx-framework\src\traditional\proc\p18f97j60.asm
                    EPMM0   0x000ec8       data     extern E:\3.46\pic18-lt\cxx-framework\src\traditional\proc\p18f97j60.asm
                    EPMM1   0x000ec9       data     extern E:\3.46\pic18-lt\cxx-framework\src\traditional\proc\p18f97j60.asm
                    EPMM2   0x000eca       data     extern E:\3.46\pic18-lt\cxx-framework\src\traditional\proc\p18f97j60.asm
                    EPMM3   0x000ecb       data     extern E:\3.46\pic18-lt\cxx-framework\src\traditional\proc\p18f97j60.asm
                    EPMM4   0x000ecc       data     extern E:\3.46\pic18-lt\cxx-framework\src\traditional\proc\p18f97j60.asm
                    EPMM5   0x000ecd       data     extern E:\3.46\pic18-lt\cxx-framework\src\traditional\proc\p18f97j60.asm
                    EPMM6   0x000ece       data     extern E:\3.46\pic18-lt\cxx-framework\src\traditional\proc\p18f97j60.asm
                    EPMM7   0x000ecf       data     extern E:\3.46\pic18-lt\cxx-framework\src\traditional\proc\p18f97j60.asm
                     EPMO   0x000ed4       data     extern E:\3.46\pic18-lt\cxx-framework\src\traditional\proc\p18f97j60.asm
                    EPMOH   0x000ed5       data     extern E:\3.46\pic18-lt\cxx-framework\src\traditional\proc\p18f97j60.asm
                    EPMOL   0x000ed4       data     extern E:\3.46\pic18-lt\cxx-framework\src\traditional\proc\p18f97j60.asm
                    ERDPT   0x000f7a       data     extern E:\3.46\pic18-lt\cxx-framework\src\traditional\proc\p18f97j60.asm
                   ERDPTH   0x000f7b       data     extern E:\3.46\pic18-lt\cxx-framework\src\traditional\proc\p18f97j60.asm
                   ERDPTL   0x000f7a       data     extern E:\3.46\pic18-lt\cxx-framework\src\traditional\proc\p18f97j60.asm
                  ERXFCON   0x000ed8       data     extern E:\3.46\pic18-lt\cxx-framework\src\traditional\proc\p18f97j60.asm
              ERXFCONbits   0x000ed8       data     extern E:\3.46\pic18-lt\cxx-framework\src\traditional\proc\p18f97j60.asm
                    ERXND   0x000eea       data     extern E:\3.46\pic18-lt\cxx-framework\src\traditional\proc\p18f97j60.asm
                   ERXNDH   0x000eeb       data     extern E:\3.46\pic18-lt\cxx-framework\src\traditional\proc\p18f97j60.asm
                   ERXNDL   0x000eea       data     extern E:\3.46\pic18-lt\cxx-framework\src\traditional\proc\p18f97j60.asm
                  ERXRDPT   0x000eec       data     extern E:\3.46\pic18-lt\cxx-framework\src\traditional\proc\p18f97j60.asm
                 ERXRDPTH   0x000eed       data     extern E:\3.46\pic18-lt\cxx-framework\src\traditional\proc\p18f97j60.asm
                 ERXRDPTL   0x000eec       data     extern E:\3.46\pic18-lt\cxx-framework\src\traditional\proc\p18f97j60.asm
                    ERXST   0x000ee8       data     extern E:\3.46\pic18-lt\cxx-framework\src\traditional\proc\p18f97j60.asm
                   ERXSTH   0x000ee9       data     extern E:\3.46\pic18-lt\cxx-framework\src\traditional\proc\p18f97j60.asm
                   ERXSTL   0x000ee8       data     extern E:\3.46\pic18-lt\cxx-framework\src\traditional\proc\p18f97j60.asm
                  ERXWRPT   0x000eee       data     extern E:\3.46\pic18-lt\cxx-framework\src\traditional\proc\p18f97j60.asm
                 ERXWRPTH   0x000eef       data     extern E:\3.46\pic18-lt\cxx-framework\src\traditional\proc\p18f97j60.asm
                 ERXWRPTL   0x000eee       data     extern E:\3.46\pic18-lt\cxx-framework\src\traditional\proc\p18f97j60.asm
                    ESTAT   0x000efd       data     extern E:\3.46\pic18-lt\cxx-framework\src\traditional\proc\p18f97j60.asm
                ESTATbits   0x000efd       data     extern E:\3.46\pic18-lt\cxx-framework\src\traditional\proc\p18f97j60.asm
                    ETXND   0x000ee6       data     extern E:\3.46\pic18-lt\cxx-framework\src\traditional\proc\p18f97j60.asm
                   ETXNDH   0x000ee7       data     extern E:\3.46\pic18-lt\cxx-framework\src\traditional\proc\p18f97j60.asm
                   ETXNDL   0x000ee6       data     extern E:\3.46\pic18-lt\cxx-framework\src\traditional\proc\p18f97j60.asm
                    ETXST   0x000ee4       data     extern E:\3.46\pic18-lt\cxx-framework\src\traditional\proc\p18f97j60.asm
                   ETXSTH   0x000ee5       data     extern E:\3.46\pic18-lt\cxx-framework\src\traditional\proc\p18f97j60.asm
                   ETXSTL   0x000ee4       data     extern E:\3.46\pic18-lt\cxx-framework\src\traditional\proc\p18f97j60.asm
                    EWRPT   0x000ee2       data     extern E:\3.46\pic18-lt\cxx-framework\src\traditional\proc\p18f97j60.asm
                   EWRPTH   0x000ee3       data     extern E:\3.46\pic18-lt\cxx-framework\src\traditional\proc\p18f97j60.asm
                   EWRPTL   0x000ee2       data     extern E:\3.46\pic18-lt\cxx-framework\src\traditional\proc\p18f97j60.asm
Enable_State_Machine_Update   0x000e6c       data     extern C:\GIT-REPOS\Siebwalde\TrackController3.X\FiddleYard.c
                  Exe_Cmd   0x000e2e       data     static C:\GIT-REPOS\Siebwalde\TrackController3.X\Command_Machine.c
            Exe_Cmd_Ret_1   0x000e30       data     static C:\GIT-REPOS\Siebwalde\TrackController3.X\Command_Machine.c
                     FSR0   0x000fe9       data     extern E:\3.46\pic18-lt\cxx-framework\src\traditional\proc\p18f97j60.asm
                    FSR0H   0x000fea       data     extern E:\3.46\pic18-lt\cxx-framework\src\traditional\proc\p18f97j60.asm
                    FSR0L   0x000fe9       data     extern E:\3.46\pic18-lt\cxx-framework\src\traditional\proc\p18f97j60.asm
                     FSR1   0x000fe1       data     extern E:\3.46\pic18-lt\cxx-framework\src\traditional\proc\p18f97j60.asm
                    FSR1H   0x000fe2       data     extern E:\3.46\pic18-lt\cxx-framework\src\traditional\proc\p18f97j60.asm
                    FSR1L   0x000fe1       data     extern E:\3.46\pic18-lt\cxx-framework\src\traditional\proc\p18f97j60.asm
                     FSR2   0x000fd9       data     extern E:\3.46\pic18-lt\cxx-framework\src\traditional\proc\p18f97j60.asm
                    FSR2H   0x000fda       data     extern E:\3.46\pic18-lt\cxx-framework\src\traditional\proc\p18f97j60.asm
                    FSR2L   0x000fd9       data     extern E:\3.46\pic18-lt\cxx-framework\src\traditional\proc\p18f97j60.asm
                    Flags   0x000f4f       data     static C:\GIT-REPOS\Siebwalde\TrackController3.X\Microchip\TCPIPStack\UDP.c
                    INDF0   0x000fef       data     extern E:\3.46\pic18-lt\cxx-framework\src\traditional\proc\p18f97j60.asm
                    INDF1   0x000fe7       data     extern E:\3.46\pic18-lt\cxx-framework\src\traditional\proc\p18f97j60.asm
                    INDF2   0x000fdf       data     extern E:\3.46\pic18-lt\cxx-framework\src\traditional\proc\p18f97j60.asm
                   INTCON   0x000ff2       data     extern E:\3.46\pic18-lt\cxx-framework\src\traditional\proc\p18f97j60.asm
                  INTCON2   0x000ff1       data     extern E:\3.46\pic18-lt\cxx-framework\src\traditional\proc\p18f97j60.asm
              INTCON2bits   0x000ff1       data     extern E:\3.46\pic18-lt\cxx-framework\src\traditional\proc\p18f97j60.asm
                  INTCON3   0x000ff0       data     extern E:\3.46\pic18-lt\cxx-framework\src\traditional\proc\p18f97j60.asm
              INTCON3bits   0x000ff0       data     extern E:\3.46\pic18-lt\cxx-framework\src\traditional\proc\p18f97j60.asm
               INTCONbits   0x000ff2       data     extern E:\3.46\pic18-lt\cxx-framework\src\traditional\proc\p18f97j60.asm
              IPHeaderLen   0x000e7f       data     static C:\GIT-REPOS\Siebwalde\TrackController3.X\Microchip\TCPIPStack\IP.c
                     IPPC   0x000e38       data     extern C:\GIT-REPOS\Siebwalde\TrackController3.X\Command_Machine.c
                     IPR1   0x000f9f       data     extern E:\3.46\pic18-lt\cxx-framework\src\traditional\proc\p18f97j60.asm
                 IPR1bits   0x000f9f       data     extern E:\3.46\pic18-lt\cxx-framework\src\traditional\proc\p18f97j60.asm
                     IPR2   0x000fa2       data     extern E:\3.46\pic18-lt\cxx-framework\src\traditional\proc\p18f97j60.asm
                 IPR2bits   0x000fa2       data     extern E:\3.46\pic18-lt\cxx-framework\src\traditional\proc\p18f97j60.asm
                     IPR3   0x000fa5       data     extern E:\3.46\pic18-lt\cxx-framework\src\traditional\proc\p18f97j60.asm
                 IPR3bits   0x000fa5       data     extern E:\3.46\pic18-lt\cxx-framework\src\traditional\proc\p18f97j60.asm
                     LATA   0x000f89       data     extern E:\3.46\pic18-lt\cxx-framework\src\traditional\proc\p18f97j60.asm
                 LATAbits   0x000f89       data     extern E:\3.46\pic18-lt\cxx-framework\src\traditional\proc\p18f97j60.asm
                     LATB   0x000f8a       data     extern E:\3.46\pic18-lt\cxx-framework\src\traditional\proc\p18f97j60.asm
                 LATBbits   0x000f8a       data     extern E:\3.46\pic18-lt\cxx-framework\src\traditional\proc\p18f97j60.asm
                     LATC   0x000f8b       data     extern E:\3.46\pic18-lt\cxx-framework\src\traditional\proc\p18f97j60.asm
                 LATCbits   0x000f8b       data     extern E:\3.46\pic18-lt\cxx-framework\src\traditional\proc\p18f97j60.asm
                     LATD   0x000f8c       data     extern E:\3.46\pic18-lt\cxx-framework\src\traditional\proc\p18f97j60.asm
                 LATDbits   0x000f8c       data     extern E:\3.46\pic18-lt\cxx-framework\src\traditional\proc\p18f97j60.asm
                     LATE   0x000f8d       data     extern E:\3.46\pic18-lt\cxx-framework\src\traditional\proc\p18f97j60.asm
                 LATEbits   0x000f8d       data     extern E:\3.46\pic18-lt\cxx-framework\src\traditional\proc\p18f97j60.asm
                     LATF   0x000f8e       data     extern E:\3.46\pic18-lt\cxx-framework\src\traditional\proc\p18f97j60.asm
                 LATFbits   0x000f8e       data     extern E:\3.46\pic18-lt\cxx-framework\src\traditional\proc\p18f97j60.asm
                     LATG   0x000f8f       data     extern E:\3.46\pic18-lt\cxx-framework\src\traditional\proc\p18f97j60.asm
                 LATGbits   0x000f8f       data     extern E:\3.46\pic18-lt\cxx-framework\src\traditional\proc\p18f97j60.asm
                     LATH   0x000f90       data     extern E:\3.46\pic18-lt\cxx-framework\src\traditional\proc\p18f97j60.asm
                 LATHbits   0x000f90       data     extern E:\3.46\pic18-lt\cxx-framework\src\traditional\proc\p18f97j60.asm
                     LATJ   0x000f91       data     extern E:\3.46\pic18-lt\cxx-framework\src\traditional\proc\p18f97j60.asm
                 LATJbits   0x000f91       data     extern E:\3.46\pic18-lt\cxx-framework\src\traditional\proc\p18f97j60.asm
            LastPutSocket   0x000426       data     static C:\GIT-REPOS\Siebwalde\TrackController3.X\Microchip\TCPIPStack\UDP.c
                   MAADR1   0x000e84       data     extern E:\3.46\pic18-lt\cxx-framework\src\traditional\proc\p18f97j60.asm
                   MAADR2   0x000e85       data     extern E:\3.46\pic18-lt\cxx-framework\src\traditional\proc\p18f97j60.asm
                   MAADR3   0x000e82       data     extern E:\3.46\pic18-lt\cxx-framework\src\traditional\proc\p18f97j60.asm
                   MAADR4   0x000e83       data     extern E:\3.46\pic18-lt\cxx-framework\src\traditional\proc\p18f97j60.asm
                   MAADR5   0x000e80       data     extern E:\3.46\pic18-lt\cxx-framework\src\traditional\proc\p18f97j60.asm
                   MAADR6   0x000e81       data     extern E:\3.46\pic18-lt\cxx-framework\src\traditional\proc\p18f97j60.asm
                  MABBIPG   0x000ea4       data     extern E:\3.46\pic18-lt\cxx-framework\src\traditional\proc\p18f97j60.asm
              MABBIPGbits   0x000ea4       data     extern E:\3.46\pic18-lt\cxx-framework\src\traditional\proc\p18f97j60.asm
                   MACON1   0x000ea0       data     extern E:\3.46\pic18-lt\cxx-framework\src\traditional\proc\p18f97j60.asm
               MACON1bits   0x000ea0       data     extern E:\3.46\pic18-lt\cxx-framework\src\traditional\proc\p18f97j60.asm
                   MACON3   0x000ea2       data     extern E:\3.46\pic18-lt\cxx-framework\src\traditional\proc\p18f97j60.asm
               MACON3bits   0x000ea2       data     extern E:\3.46\pic18-lt\cxx-framework\src\traditional\proc\p18f97j60.asm
                   MACON4   0x000ea3       data     extern E:\3.46\pic18-lt\cxx-framework\src\traditional\proc\p18f97j60.asm
               MACON4bits   0x000ea3       data     extern E:\3.46\pic18-lt\cxx-framework\src\traditional\proc\p18f97j60.asm
                    MACPC   0x000e32       data     extern C:\GIT-REPOS\Siebwalde\TrackController3.X\Command_Machine.c
             MAC_IP_READY   0x000e3e       data     extern C:\GIT-REPOS\Siebwalde\TrackController3.X\Command_Machine.c
                    MAIPG   0x000ea6       data     extern E:\3.46\pic18-lt\cxx-framework\src\traditional\proc\p18f97j60.asm
                   MAIPGH   0x000ea7       data     extern E:\3.46\pic18-lt\cxx-framework\src\traditional\proc\p18f97j60.asm
                   MAIPGL   0x000ea6       data     extern E:\3.46\pic18-lt\cxx-framework\src\traditional\proc\p18f97j60.asm
                   MAMXFL   0x000eaa       data     extern E:\3.46\pic18-lt\cxx-framework\src\traditional\proc\p18f97j60.asm
                  MAMXFLH   0x000eab       data     extern E:\3.46\pic18-lt\cxx-framework\src\traditional\proc\p18f97j60.asm
                  MAMXFLL   0x000eaa       data     extern E:\3.46\pic18-lt\cxx-framework\src\traditional\proc\p18f97j60.asm
        MASTER_SLAVE_DATA   0x000e57       data     static C:\GIT-REPOS\Siebwalde\TrackController3.X\modbus\PetitModbus.c
                   MEMCON   0x000f9c       data     extern E:\3.46\pic18-lt\cxx-framework\src\traditional\proc\p18f97j60.asm
               MEMCONbits   0x000f9c       data     extern E:\3.46\pic18-lt\cxx-framework\src\traditional\proc\p18f97j60.asm
                    MICMD   0x000eb2       data     extern E:\3.46\pic18-lt\cxx-framework\src\traditional\proc\p18f97j60.asm
                MICMDbits   0x000eb2       data     extern E:\3.46\pic18-lt\cxx-framework\src\traditional\proc\p18f97j60.asm
                     MIRD   0x000eb8       data     extern E:\3.46\pic18-lt\cxx-framework\src\traditional\proc\p18f97j60.asm
                    MIRDH   0x000eb9       data     extern E:\3.46\pic18-lt\cxx-framework\src\traditional\proc\p18f97j60.asm
                    MIRDL   0x000eb8       data     extern E:\3.46\pic18-lt\cxx-framework\src\traditional\proc\p18f97j60.asm
                 MIREGADR   0x000eb4       data     extern E:\3.46\pic18-lt\cxx-framework\src\traditional\proc\p18f97j60.asm
                   MISTAT   0x000e8a       data     extern E:\3.46\pic18-lt\cxx-framework\src\traditional\proc\p18f97j60.asm
               MISTATbits   0x000e8a       data     extern E:\3.46\pic18-lt\cxx-framework\src\traditional\proc\p18f97j60.asm
                     MIWR   0x000eb6       data     extern E:\3.46\pic18-lt\cxx-framework\src\traditional\proc\p18f97j60.asm
                    MIWRH   0x000eb7       data     extern E:\3.46\pic18-lt\cxx-framework\src\traditional\proc\p18f97j60.asm
                    MIWRL   0x000eb6       data     extern E:\3.46\pic18-lt\cxx-framework\src\traditional\proc\p18f97j60.asm
                 MySocket   0x00042a       data     static C:\GIT-REPOS\Siebwalde\TrackController3.X\Microchip\TCPIPStack\Announce.c
                 MySocket   0x0003ff       data     static C:\GIT-REPOS\Siebwalde\TrackController3.X\Microchip\TCPIPStack\NBNS.c
       NextPacketLocation   0x000e71       data     static C:\GIT-REPOS\Siebwalde\TrackController3.X\Microchip\TCPIPStack\ETH97J60.c
                 NextPort   0x000f50       data     static C:\GIT-REPOS\Siebwalde\TrackController3.X\Microchip\TCPIPStack\UDP.c
                   OSCCON   0x000fd3       data     extern E:\3.46\pic18-lt\cxx-framework\src\traditional\proc\p18f97j60.asm
               OSCCONbits   0x000fd3       data     extern E:\3.46\pic18-lt\cxx-framework\src\traditional\proc\p18f97j60.asm
                  OSCTUNE   0x000f9b       data     extern E:\3.46\pic18-lt\cxx-framework\src\traditional\proc\p18f97j60.asm
              OSCTUNEbits   0x000f9b       data     extern E:\3.46\pic18-lt\cxx-framework\src\traditional\proc\p18f97j60.asm
                       PC   0x000ff9       data     extern E:\3.46\pic18-lt\cxx-framework\src\traditional\proc\p18f97j60.asm
                      PCL   0x000ff9       data     extern E:\3.46\pic18-lt\cxx-framework\src\traditional\proc\p18f97j60.asm
                   PCLATH   0x000ffa       data     extern E:\3.46\pic18-lt\cxx-framework\src\traditional\proc\p18f97j60.asm
                   PCLATU   0x000ffb       data     extern E:\3.46\pic18-lt\cxx-framework\src\traditional\proc\p18f97j60.asm
                     PIE1   0x000f9d       data     extern E:\3.46\pic18-lt\cxx-framework\src\traditional\proc\p18f97j60.asm
                 PIE1bits   0x000f9d       data     extern E:\3.46\pic18-lt\cxx-framework\src\traditional\proc\p18f97j60.asm
                     PIE2   0x000fa0       data     extern E:\3.46\pic18-lt\cxx-framework\src\traditional\proc\p18f97j60.asm
                 PIE2bits   0x000fa0       data     extern E:\3.46\pic18-lt\cxx-framework\src\traditional\proc\p18f97j60.asm
                     PIE3   0x000fa3       data     extern E:\3.46\pic18-lt\cxx-framework\src\traditional\proc\p18f97j60.asm
                 PIE3bits   0x000fa3       data     extern E:\3.46\pic18-lt\cxx-framework\src\traditional\proc\p18f97j60.asm
                     PIR1   0x000f9e       data     extern E:\3.46\pic18-lt\cxx-framework\src\traditional\proc\p18f97j60.asm
                 PIR1bits   0x000f9e       data     extern E:\3.46\pic18-lt\cxx-framework\src\traditional\proc\p18f97j60.asm
                     PIR2   0x000fa1       data     extern E:\3.46\pic18-lt\cxx-framework\src\traditional\proc\p18f97j60.asm
                 PIR2bits   0x000fa1       data     extern E:\3.46\pic18-lt\cxx-framework\src\traditional\proc\p18f97j60.asm
                     PIR3   0x000fa4       data     extern E:\3.46\pic18-lt\cxx-framework\src\traditional\proc\p18f97j60.asm
                 PIR3bits   0x000fa4       data     extern E:\3.46\pic18-lt\cxx-framework\src\traditional\proc\p18f97j60.asm
             PLATFORMS_IO   0x000e00       data     static C:\GIT-REPOS\Siebwalde\TrackController3.X\Shift_Register.c
                   PLUSW0   0x000feb       data     extern E:\3.46\pic18-lt\cxx-framework\src\traditional\proc\p18f97j60.asm
                   PLUSW1   0x000fe3       data     extern E:\3.46\pic18-lt\cxx-framework\src\traditional\proc\p18f97j60.asm
                   PLUSW2   0x000fdb       data     extern E:\3.46\pic18-lt\cxx-framework\src\traditional\proc\p18f97j60.asm
                    PORTA   0x000f80       data     extern E:\3.46\pic18-lt\cxx-framework\src\traditional\proc\p18f97j60.asm
                PORTAbits   0x000f80       data     extern E:\3.46\pic18-lt\cxx-framework\src\traditional\proc\p18f97j60.asm
                    PORTB   0x000f81       data     extern E:\3.46\pic18-lt\cxx-framework\src\traditional\proc\p18f97j60.asm
                PORTBbits   0x000f81       data     extern E:\3.46\pic18-lt\cxx-framework\src\traditional\proc\p18f97j60.asm
                    PORTC   0x000f82       data     extern E:\3.46\pic18-lt\cxx-framework\src\traditional\proc\p18f97j60.asm
                PORTCbits   0x000f82       data     extern E:\3.46\pic18-lt\cxx-framework\src\traditional\proc\p18f97j60.asm
                    PORTD   0x000f83       data     extern E:\3.46\pic18-lt\cxx-framework\src\traditional\proc\p18f97j60.asm
                PORTDbits   0x000f83       data     extern E:\3.46\pic18-lt\cxx-framework\src\traditional\proc\p18f97j60.asm
                    PORTE   0x000f84       data     extern E:\3.46\pic18-lt\cxx-framework\src\traditional\proc\p18f97j60.asm
                PORTEbits   0x000f84       data     extern E:\3.46\pic18-lt\cxx-framework\src\traditional\proc\p18f97j60.asm
                    PORTF   0x000f85       data     extern E:\3.46\pic18-lt\cxx-framework\src\traditional\proc\p18f97j60.asm
                PORTFbits   0x000f85       data     extern E:\3.46\pic18-lt\cxx-framework\src\traditional\proc\p18f97j60.asm
                    PORTG   0x000f86       data     extern E:\3.46\pic18-lt\cxx-framework\src\traditional\proc\p18f97j60.asm
                PORTGbits   0x000f86       data     extern E:\3.46\pic18-lt\cxx-framework\src\traditional\proc\p18f97j60.asm
                    PORTH   0x000f87       data     extern E:\3.46\pic18-lt\cxx-framework\src\traditional\proc\p18f97j60.asm
                PORTHbits   0x000f87       data     extern E:\3.46\pic18-lt\cxx-framework\src\traditional\proc\p18f97j60.asm
                    PORTJ   0x000f88       data     extern E:\3.46\pic18-lt\cxx-framework\src\traditional\proc\p18f97j60.asm
                PORTJbits   0x000f88       data     extern E:\3.46\pic18-lt\cxx-framework\src\traditional\proc\p18f97j60.asm
                   PORTPC   0x000e3c       data     extern C:\GIT-REPOS\Siebwalde\TrackController3.X\Command_Machine.c
                 POSTDEC0   0x000fed       data     extern E:\3.46\pic18-lt\cxx-framework\src\traditional\proc\p18f97j60.asm
                 POSTDEC1   0x000fe5       data     extern E:\3.46\pic18-lt\cxx-framework\src\traditional\proc\p18f97j60.asm
                 POSTDEC2   0x000fdd       data     extern E:\3.46\pic18-lt\cxx-framework\src\traditional\proc\p18f97j60.asm
                 POSTINC0   0x000fee       data     extern E:\3.46\pic18-lt\cxx-framework\src\traditional\proc\p18f97j60.asm
                 POSTINC1   0x000fe6       data     extern E:\3.46\pic18-lt\cxx-framework\src\traditional\proc\p18f97j60.asm
                 POSTINC2   0x000fde       data     extern E:\3.46\pic18-lt\cxx-framework\src\traditional\proc\p18f97j60.asm
                      PR2   0x000fcb       data     extern E:\3.46\pic18-lt\cxx-framework\src\traditional\proc\p18f97j60.asm
                      PR4   0x000f77       data     extern E:\3.46\pic18-lt\cxx-framework\src\traditional\proc\p18f97j60.asm
                  PREINC0   0x000fec       data     extern E:\3.46\pic18-lt\cxx-framework\src\traditional\proc\p18f97j60.asm
                  PREINC1   0x000fe4       data     extern E:\3.46\pic18-lt\cxx-framework\src\traditional\proc\p18f97j60.asm
                  PREINC2   0x000fdc       data     extern E:\3.46\pic18-lt\cxx-framework\src\traditional\proc\p18f97j60.asm
                     PROD   0x000ff3       data     extern E:\3.46\pic18-lt\cxx-framework\src\traditional\proc\p18f97j60.asm
                    PRODH   0x000ff4       data     extern E:\3.46\pic18-lt\cxx-framework\src\traditional\proc\p18f97j60.asm
                    PRODL   0x000ff3       data     extern E:\3.46\pic18-lt\cxx-framework\src\traditional\proc\p18f97j60.asm
                   PSPCON   0x000fb0       data     extern E:\3.46\pic18-lt\cxx-framework\src\traditional\proc\p18f97j60.asm
               PSPCONbits   0x000fb0       data     extern E:\3.46\pic18-lt\cxx-framework\src\traditional\proc\p18f97j60.asm
               Pcomm_List   0x0003b5       data     static C:\GIT-REPOS\Siebwalde\TrackController3.X\Diagnostic_ret.c
              Pcomm_List2   0x0003b7       data     static C:\GIT-REPOS\Siebwalde\TrackController3.X\Diagnostic_ret.c
    PetitModbusTimerValue   0x000e64       data     extern C:\GIT-REPOS\Siebwalde\TrackController3.X\modbus\PetitModbus.c
       PetitReceiveBuffer   0x0003e7       data     extern C:\GIT-REPOS\Siebwalde\TrackController3.X\modbus\PetitModbusPort.c
      PetitReceiveCounter   0x00042c       data     extern C:\GIT-REPOS\Siebwalde\TrackController3.X\modbus\PetitModbusPort.c
           Petit_Rx_CRC16   0x000e60       data     extern C:\GIT-REPOS\Siebwalde\TrackController3.X\modbus\PetitModbus.c
            Petit_Rx_Data   0x0002c8       data     extern C:\GIT-REPOS\Siebwalde\TrackController3.X\modbus\PetitModbus.c
  Petit_Rx_Data_Available   0x000e63       data     extern C:\GIT-REPOS\Siebwalde\TrackController3.X\modbus\PetitModbus.c
           Petit_Rx_State   0x000e62       data     extern C:\GIT-REPOS\Siebwalde\TrackController3.X\modbus\PetitModbus.c
             Petit_Tx_Buf   0x0002b0       data     extern C:\GIT-REPOS\Siebwalde\TrackController3.X\modbus\PetitModbus.c
        Petit_Tx_Buf_Size   0x000e5e       data     extern C:\GIT-REPOS\Siebwalde\TrackController3.X\modbus\PetitModbus.c
           Petit_Tx_CRC16   0x000e5b       data     extern C:\GIT-REPOS\Siebwalde\TrackController3.X\modbus\PetitModbus.c
         Petit_Tx_Current   0x000e59       data     extern C:\GIT-REPOS\Siebwalde\TrackController3.X\modbus\PetitModbus.c
            Petit_Tx_Data   0x000294       data     extern C:\GIT-REPOS\Siebwalde\TrackController3.X\modbus\PetitModbus.c
           Petit_Tx_State   0x000e5d       data     extern C:\GIT-REPOS\Siebwalde\TrackController3.X\modbus\PetitModbus.c
                     RCON   0x000fd0       data     extern E:\3.46\pic18-lt\cxx-framework\src\traditional\proc\p18f97j60.asm
                 RCONbits   0x000fd0       data     extern E:\3.46\pic18-lt\cxx-framework\src\traditional\proc\p18f97j60.asm
                    RCREG   0x000fae       data     extern E:\3.46\pic18-lt\cxx-framework\src\traditional\proc\p18f97j60.asm
                   RCREG1   0x000fae       data     extern E:\3.46\pic18-lt\cxx-framework\src\traditional\proc\p18f97j60.asm
                   RCREG2   0x000f6e       data     extern E:\3.46\pic18-lt\cxx-framework\src\traditional\proc\p18f97j60.asm
                    RCSTA   0x000fab       data     extern E:\3.46\pic18-lt\cxx-framework\src\traditional\proc\p18f97j60.asm
                   RCSTA1   0x000fab       data     extern E:\3.46\pic18-lt\cxx-framework\src\traditional\proc\p18f97j60.asm
               RCSTA1bits   0x000fab       data     extern E:\3.46\pic18-lt\cxx-framework\src\traditional\proc\p18f97j60.asm
                   RCSTA2   0x000f6b       data     extern E:\3.46\pic18-lt\cxx-framework\src\traditional\proc\p18f97j60.asm
               RCSTA2bits   0x000f6b       data     extern E:\3.46\pic18-lt\cxx-framework\src\traditional\proc\p18f97j60.asm
                RCSTAbits   0x000fab       data     extern E:\3.46\pic18-lt\cxx-framework\src\traditional\proc\p18f97j60.asm
                     SIGN   0x000000       data     extern E:\3.46\pic18-lt\cxx-framework\src\traditional\math\cmath18.asm
                    SPBRG   0x000faf       data     extern E:\3.46\pic18-lt\cxx-framework\src\traditional\proc\p18f97j60.asm
                   SPBRG1   0x000faf       data     extern E:\3.46\pic18-lt\cxx-framework\src\traditional\proc\p18f97j60.asm
                   SPBRG2   0x000f6f       data     extern E:\3.46\pic18-lt\cxx-framework\src\traditional\proc\p18f97j60.asm
                   SPBRGH   0x000f7f       data     extern E:\3.46\pic18-lt\cxx-framework\src\traditional\proc\p18f97j60.asm
                  SPBRGH1   0x000f7f       data     extern E:\3.46\pic18-lt\cxx-framework\src\traditional\proc\p18f97j60.asm
                  SPBRGH2   0x000f7d       data     extern E:\3.46\pic18-lt\cxx-framework\src\traditional\proc\p18f97j60.asm
                  SSP1ADD   0x000fc8       data     extern E:\3.46\pic18-lt\cxx-framework\src\traditional\proc\p18f97j60.asm
                  SSP1BUF   0x000fc9       data     extern E:\3.46\pic18-lt\cxx-framework\src\traditional\proc\p18f97j60.asm
                 SSP1CON1   0x000fc6       data     extern E:\3.46\pic18-lt\cxx-framework\src\traditional\proc\p18f97j60.asm
             SSP1CON1bits   0x000fc6       data     extern E:\3.46\pic18-lt\cxx-framework\src\traditional\proc\p18f97j60.asm
                 SSP1CON2   0x000fc5       data     extern E:\3.46\pic18-lt\cxx-framework\src\traditional\proc\p18f97j60.asm
             SSP1CON2bits   0x000fc5       data     extern E:\3.46\pic18-lt\cxx-framework\src\traditional\proc\p18f97j60.asm
                 SSP1STAT   0x000fc7       data     extern E:\3.46\pic18-lt\cxx-framework\src\traditional\proc\p18f97j60.asm
             SSP1STATbits   0x000fc7       data     extern E:\3.46\pic18-lt\cxx-framework\src\traditional\proc\p18f97j60.asm
                  SSP2ADD   0x000f65       data     extern E:\3.46\pic18-lt\cxx-framework\src\traditional\proc\p18f97j60.asm
                  SSP2BUF   0x000f66       data     extern E:\3.46\pic18-lt\cxx-framework\src\traditional\proc\p18f97j60.asm
                 SSP2CON1   0x000f63       data     extern E:\3.46\pic18-lt\cxx-framework\src\traditional\proc\p18f97j60.asm
             SSP2CON1bits   0x000f63       data     extern E:\3.46\pic18-lt\cxx-framework\src\traditional\proc\p18f97j60.asm
                 SSP2CON2   0x000f62       data     extern E:\3.46\pic18-lt\cxx-framework\src\traditional\proc\p18f97j60.asm
             SSP2CON2bits   0x000f62       data     extern E:\3.46\pic18-lt\cxx-framework\src\traditional\proc\p18f97j60.asm
                 SSP2STAT   0x000f64       data     extern E:\3.46\pic18-lt\cxx-framework\src\traditional\proc\p18f97j60.asm
             SSP2STATbits   0x000f64       data     extern E:\3.46\pic18-lt\cxx-framework\src\traditional\proc\p18f97j60.asm
                   SSPADD   0x000fc8       data     extern E:\3.46\pic18-lt\cxx-framework\src\traditional\proc\p18f97j60.asm
                   SSPBUF   0x000fc9       data     extern E:\3.46\pic18-lt\cxx-framework\src\traditional\proc\p18f97j60.asm
                  SSPCON1   0x000fc6       data     extern E:\3.46\pic18-lt\cxx-framework\src\traditional\proc\p18f97j60.asm
              SSPCON1bits   0x000fc6       data     extern E:\3.46\pic18-lt\cxx-framework\src\traditional\proc\p18f97j60.asm
                  SSPCON2   0x000fc5       data     extern E:\3.46\pic18-lt\cxx-framework\src\traditional\proc\p18f97j60.asm
              SSPCON2bits   0x000fc5       data     extern E:\3.46\pic18-lt\cxx-framework\src\traditional\proc\p18f97j60.asm
                  SSPSTAT   0x000fc7       data     extern E:\3.46\pic18-lt\cxx-framework\src\traditional\proc\p18f97j60.asm
              SSPSTATbits   0x000fc7       data     extern E:\3.46\pic18-lt\cxx-framework\src\traditional\proc\p18f97j60.asm
                   STATUS   0x000fd8       data     extern E:\3.46\pic18-lt\cxx-framework\src\traditional\proc\p18f97j60.asm
               STATUSbits   0x000fd8       data     extern E:\3.46\pic18-lt\cxx-framework\src\traditional\proc\p18f97j60.asm
                   STKPTR   0x000ffc       data     extern E:\3.46\pic18-lt\cxx-framework\src\traditional\proc\p18f97j60.asm
               STKPTRbits   0x000ffc       data     extern E:\3.46\pic18-lt\cxx-framework\src\traditional\proc\p18f97j60.asm
             Send_Var_Out   0x00041c       data     static C:\GIT-REPOS\Siebwalde\TrackController3.X\Var_Out.c
SlaveAnswerTimeoutCounter   0x000e66       data     extern C:\GIT-REPOS\Siebwalde\TrackController3.X\modbus\PetitModbus.c
                SlaveInfo   0x000300       data     static C:\GIT-REPOS\Siebwalde\TrackController3.X\FiddleYard.c
         SocketWithRxData   0x000427       data     static C:\GIT-REPOS\Siebwalde\TrackController3.X\Microchip\TCPIPStack\UDP.c
          SuccesFull_Read   0x000e31       data     static C:\GIT-REPOS\Siebwalde\TrackController3.X\Command_Machine.c
                    T0CON   0x000fd5       data     extern E:\3.46\pic18-lt\cxx-framework\src\traditional\proc\p18f97j60.asm
                T0CONbits   0x000fd5       data     extern E:\3.46\pic18-lt\cxx-framework\src\traditional\proc\p18f97j60.asm
                    T1CON   0x000fcd       data     extern E:\3.46\pic18-lt\cxx-framework\src\traditional\proc\p18f97j60.asm
                T1CONbits   0x000fcd       data     extern E:\3.46\pic18-lt\cxx-framework\src\traditional\proc\p18f97j60.asm
                    T2CON   0x000fca       data     extern E:\3.46\pic18-lt\cxx-framework\src\traditional\proc\p18f97j60.asm
                T2CONbits   0x000fca       data     extern E:\3.46\pic18-lt\cxx-framework\src\traditional\proc\p18f97j60.asm
                    T3CON   0x000fb1       data     extern E:\3.46\pic18-lt\cxx-framework\src\traditional\proc\p18f97j60.asm
                T3CONbits   0x000fb1       data     extern E:\3.46\pic18-lt\cxx-framework\src\traditional\proc\p18f97j60.asm
                    T4CON   0x000f76       data     extern E:\3.46\pic18-lt\cxx-framework\src\traditional\proc\p18f97j60.asm
                T4CONbits   0x000f76       data     extern E:\3.46\pic18-lt\cxx-framework\src\traditional\proc\p18f97j60.asm
                   TABLAT   0x000ff5       data     extern E:\3.46\pic18-lt\cxx-framework\src\traditional\proc\p18f97j60.asm
                   TBLPTR   0x000ff6       data     extern E:\3.46\pic18-lt\cxx-framework\src\traditional\proc\p18f97j60.asm
                  TBLPTRH   0x000ff7       data     extern E:\3.46\pic18-lt\cxx-framework\src\traditional\proc\p18f97j60.asm
                  TBLPTRL   0x000ff6       data     extern E:\3.46\pic18-lt\cxx-framework\src\traditional\proc\p18f97j60.asm
                  TBLPTRU   0x000ff8       data     extern E:\3.46\pic18-lt\cxx-framework\src\traditional\proc\p18f97j60.asm
                    TMR0H   0x000fd7       data     extern E:\3.46\pic18-lt\cxx-framework\src\traditional\proc\p18f97j60.asm
                    TMR0L   0x000fd6       data     extern E:\3.46\pic18-lt\cxx-framework\src\traditional\proc\p18f97j60.asm
                    TMR1H   0x000fcf       data     extern E:\3.46\pic18-lt\cxx-framework\src\traditional\proc\p18f97j60.asm
                    TMR1L   0x000fce       data     extern E:\3.46\pic18-lt\cxx-framework\src\traditional\proc\p18f97j60.asm
                     TMR2   0x000fcc       data     extern E:\3.46\pic18-lt\cxx-framework\src\traditional\proc\p18f97j60.asm
                    TMR3H   0x000fb3       data     extern E:\3.46\pic18-lt\cxx-framework\src\traditional\proc\p18f97j60.asm
                    TMR3L   0x000fb2       data     extern E:\3.46\pic18-lt\cxx-framework\src\traditional\proc\p18f97j60.asm
                     TMR4   0x000f78       data     extern E:\3.46\pic18-lt\cxx-framework\src\traditional\proc\p18f97j60.asm
                      TOS   0x000ffd       data     extern E:\3.46\pic18-lt\cxx-framework\src\traditional\proc\p18f97j60.asm
                     TOSH   0x000ffe       data     extern E:\3.46\pic18-lt\cxx-framework\src\traditional\proc\p18f97j60.asm
                     TOSL   0x000ffd       data     extern E:\3.46\pic18-lt\cxx-framework\src\traditional\proc\p18f97j60.asm
                     TOSU   0x000fff       data     extern E:\3.46\pic18-lt\cxx-framework\src\traditional\proc\p18f97j60.asm
                    TRISA   0x000f92       data     extern E:\3.46\pic18-lt\cxx-framework\src\traditional\proc\p18f97j60.asm
                TRISAbits   0x000f92       data     extern E:\3.46\pic18-lt\cxx-framework\src\traditional\proc\p18f97j60.asm
                    TRISB   0x000f93       data     extern E:\3.46\pic18-lt\cxx-framework\src\traditional\proc\p18f97j60.asm
                TRISBbits   0x000f93       data     extern E:\3.46\pic18-lt\cxx-framework\src\traditional\proc\p18f97j60.asm
                    TRISC   0x000f94       data     extern E:\3.46\pic18-lt\cxx-framework\src\traditional\proc\p18f97j60.asm
                TRISCbits   0x000f94       data     extern E:\3.46\pic18-lt\cxx-framework\src\traditional\proc\p18f97j60.asm
                    TRISD   0x000f95       data     extern E:\3.46\pic18-lt\cxx-framework\src\traditional\proc\p18f97j60.asm
                TRISDbits   0x000f95       data     extern E:\3.46\pic18-lt\cxx-framework\src\traditional\proc\p18f97j60.asm
                    TRISE   0x000f96       data     extern E:\3.46\pic18-lt\cxx-framework\src\traditional\proc\p18f97j60.asm
                TRISEbits   0x000f96       data     extern E:\3.46\pic18-lt\cxx-framework\src\traditional\proc\p18f97j60.asm
                    TRISF   0x000f97       data     extern E:\3.46\pic18-lt\cxx-framework\src\traditional\proc\p18f97j60.asm
                TRISFbits   0x000f97       data     extern E:\3.46\pic18-lt\cxx-framework\src\traditional\proc\p18f97j60.asm
                    TRISG   0x000f98       data     extern E:\3.46\pic18-lt\cxx-framework\src\traditional\proc\p18f97j60.asm
                TRISGbits   0x000f98       data     extern E:\3.46\pic18-lt\cxx-framework\src\traditional\proc\p18f97j60.asm
                    TRISH   0x000f99       data     extern E:\3.46\pic18-lt\cxx-framework\src\traditional\proc\p18f97j60.asm
                TRISHbits   0x000f99       data     extern E:\3.46\pic18-lt\cxx-framework\src\traditional\proc\p18f97j60.asm
                    TRISJ   0x000f9a       data     extern E:\3.46\pic18-lt\cxx-framework\src\traditional\proc\p18f97j60.asm
                TRISJbits   0x000f9a       data     extern E:\3.46\pic18-lt\cxx-framework\src\traditional\proc\p18f97j60.asm
                    TXREG   0x000fad       data     extern E:\3.46\pic18-lt\cxx-framework\src\traditional\proc\p18f97j60.asm
                   TXREG1   0x000fad       data     extern E:\3.46\pic18-lt\cxx-framework\src\traditional\proc\p18f97j60.asm
                   TXREG2   0x000f6d       data     extern E:\3.46\pic18-lt\cxx-framework\src\traditional\proc\p18f97j60.asm
                    TXSTA   0x000fac       data     extern E:\3.46\pic18-lt\cxx-framework\src\traditional\proc\p18f97j60.asm
                   TXSTA1   0x000fac       data     extern E:\3.46\pic18-lt\cxx-framework\src\traditional\proc\p18f97j60.asm
               TXSTA1bits   0x000fac       data     extern E:\3.46\pic18-lt\cxx-framework\src\traditional\proc\p18f97j60.asm
                   TXSTA2   0x000f6c       data     extern E:\3.46\pic18-lt\cxx-framework\src\traditional\proc\p18f97j60.asm
               TXSTA2bits   0x000f6c       data     extern E:\3.46\pic18-lt\cxx-framework\src\traditional\proc\p18f97j60.asm
                TXSTAbits   0x000fac       data     extern E:\3.46\pic18-lt\cxx-framework\src\traditional\proc\p18f97j60.asm
                   Target   0x000e4d       data     static C:\GIT-REPOS\Siebwalde\TrackController3.X\Microchip\TCPIPStack\ARP.c
               TestTarget   0x00038b       data     static C:\GIT-REPOS\Siebwalde\TrackController3.X\Diagnostic_ret.c
      Timer1_Tick_Counter   0x000422       data     extern C:\GIT-REPOS\Siebwalde\TrackController3.X\modbus\General.c
               UDPRxCount   0x000f49       data     extern C:\GIT-REPOS\Siebwalde\TrackController3.X\Microchip\TCPIPStack\UDP.c
            UDPSocketInfo   0x000f00       data     extern C:\GIT-REPOS\Siebwalde\TrackController3.X\Microchip\TCPIPStack\UDP.c
               UDPTxCount   0x000f47       data     extern C:\GIT-REPOS\Siebwalde\TrackController3.X\Microchip\TCPIPStack\UDP.c
               VAR_OUT_FY   0x0003b9       data     static C:\GIT-REPOS\Siebwalde\TrackController3.X\Var_Out.c
                   WDTCON   0x000fd1       data     extern E:\3.46\pic18-lt\cxx-framework\src\traditional\proc\p18f97j60.asm
               WDTCONbits   0x000fd1       data     extern E:\3.46\pic18-lt\cxx-framework\src\traditional\proc\p18f97j60.asm
                     WREG   0x000fe8       data     extern E:\3.46\pic18-lt\cxx-framework\src\traditional\proc\p18f97j60.asm
              _Identifier   0x000428       data     static C:\GIT-REPOS\Siebwalde\TrackController3.X\Microchip\TCPIPStack\IP.c
                 __AARGB0   0x000009       data     extern E:\3.46\pic18-lt\cxx-framework\src\traditional\math\aarg.asm
                 __AARGB1   0x000008       data     extern E:\3.46\pic18-lt\cxx-framework\src\traditional\math\aarg.asm
                 __AARGB2   0x000007       data     extern E:\3.46\pic18-lt\cxx-framework\src\traditional\math\aarg.asm
                 __AARGB3   0x000006       data     extern E:\3.46\pic18-lt\cxx-framework\src\traditional\math\aarg.asm
                 __AARGB4   0x000005       data     extern E:\3.46\pic18-lt\cxx-framework\src\traditional\math\aarg.asm
                 __AARGB5   0x000004       data     extern E:\3.46\pic18-lt\cxx-framework\src\traditional\math\aarg.asm
                 __AARGB6   0x000003       data     extern E:\3.46\pic18-lt\cxx-framework\src\traditional\math\aarg.asm
                 __AARGB7   0x000002       data     extern E:\3.46\pic18-lt\cxx-framework\src\traditional\math\aarg.asm
                   __AEXP   0x00000a       data     extern E:\3.46\pic18-lt\cxx-framework\src\traditional\math\aarg.asm
                 __BARGB0   0x00000e       data     extern E:\3.46\pic18-lt\cxx-framework\src\traditional\math\barg.asm
                 __BARGB1   0x00000d       data     extern E:\3.46\pic18-lt\cxx-framework\src\traditional\math\barg.asm
                 __BARGB2   0x00000c       data     extern E:\3.46\pic18-lt\cxx-framework\src\traditional\math\barg.asm
                 __BARGB3   0x00000b       data     extern E:\3.46\pic18-lt\cxx-framework\src\traditional\math\barg.asm
                   __BEXP   0x00000f       data     extern E:\3.46\pic18-lt\cxx-framework\src\traditional\math\barg.asm
                __FPFLAGS   0x000001       data     extern E:\3.46\pic18-lt\cxx-framework\src\traditional\math\cmath18.asm
            __FPFLAGSbits   0x000001       data     extern E:\3.46\pic18-lt\cxx-framework\src\traditional\math\cmath18.asm
                  __REMB0   0x000005       data     extern E:\3.46\pic18-lt\cxx-framework\src\traditional\math\aarg.asm
                  __REMB1   0x000004       data     extern E:\3.46\pic18-lt\cxx-framework\src\traditional\math\aarg.asm
                  __REMB2   0x000003       data     extern E:\3.46\pic18-lt\cxx-framework\src\traditional\math\aarg.asm
                  __REMB3   0x000002       data     extern E:\3.46\pic18-lt\cxx-framework\src\traditional\math\aarg.asm
                   __TEMP   0x000013       data     extern E:\3.46\pic18-lt\cxx-framework\src\traditional\math\temparg.asm
                 __TEMPB0   0x000013       data     extern E:\3.46\pic18-lt\cxx-framework\src\traditional\math\temparg.asm
                 __TEMPB1   0x000012       data     extern E:\3.46\pic18-lt\cxx-framework\src\traditional\math\temparg.asm
                 __TEMPB2   0x000011       data     extern E:\3.46\pic18-lt\cxx-framework\src\traditional\math\temparg.asm
                 __TEMPB3   0x000010       data     extern E:\3.46\pic18-lt\cxx-framework\src\traditional\math\temparg.asm
                  __tmp_0   0x000014       data     static E:\3.46\pic18-lt\cxx-framework\src\traditional\stdclib\printf.c
                  __tmp_0   0x000014       data     static E:\3.46\pic18-lt\cxx-framework\src\traditional\stdclib\vfprintf.c
                  __tmp_0   0x000014       data     static E:\3.46\pic18-lt\cxx-framework\src\traditional\stdclib\putc.c
                  __tmp_0   0x000014       data     static C:\GIT-REPOS\Siebwalde\TrackController3.X\Microchip\TCPIPStack\UDP.c
                  __tmp_0   0x000014       data     static C:\GIT-REPOS\Siebwalde\TrackController3.X\I2c2\i2c1eeap.c
                  __tmp_0   0x000014       data     static C:\GIT-REPOS\Siebwalde\TrackController3.X\I2c2\i2c1eebw.c
                  __tmp_0   0x000014       data     static C:\GIT-REPOS\Siebwalde\TrackController3.X\Microchip\TCPIPStack\StackTsk.c
                  __tmp_0   0x000014       data     static C:\GIT-REPOS\Siebwalde\TrackController3.X\I2c2\i2c1eecr.c
                  __tmp_0   0x000014       data     static C:\GIT-REPOS\Siebwalde\TrackController3.X\I2c2\i2c1eepw.c
                  __tmp_0   0x000014       data     static C:\GIT-REPOS\Siebwalde\TrackController3.X\Microchip\TCPIPStack\NBNS.c
                  __tmp_0   0x000014       data     static C:\GIT-REPOS\Siebwalde\TrackController3.X\I2c2\i2c1eerr.c
                  __tmp_0   0x000014       data     static C:\GIT-REPOS\Siebwalde\TrackController3.X\Microchip\TCPIPStack\IP.c
                  __tmp_0   0x000014       data     static C:\GIT-REPOS\Siebwalde\TrackController3.X\Microchip\TCPIPStack\ICMP.c
                  __tmp_0   0x000014       data     static C:\GIT-REPOS\Siebwalde\TrackController3.X\Microchip\TCPIPStack\Helpers.c
                  __tmp_0   0x000014       data     static C:\GIT-REPOS\Siebwalde\TrackController3.X\I2c2\i2c1eesr.c
                  __tmp_0   0x000014       data     static C:\GIT-REPOS\Siebwalde\TrackController3.X\Microchip\TCPIPStack\ETH97J60.c
                  __tmp_0   0x000014       data     static C:\GIT-REPOS\Siebwalde\TrackController3.X\I2c2\i2c1idle.c
                  __tmp_0   0x000014       data     static C:\GIT-REPOS\Siebwalde\TrackController3.X\Microchip\TCPIPStack\DHCP.c
                  __tmp_0   0x000014       data     static C:\GIT-REPOS\Siebwalde\TrackController3.X\Microchip\TCPIPStack\ARP.c
                  __tmp_0   0x000014       data     static C:\GIT-REPOS\Siebwalde\TrackController3.X\I2c2\i2c1read.c
                  __tmp_0   0x000014       data     static C:\GIT-REPOS\Siebwalde\TrackController3.X\Microchip\TCPIPStack\Announce.c
                  __tmp_0   0x000014       data     static C:\GIT-REPOS\Siebwalde\TrackController3.X\Microchip\PIC18Salloc\salloc.c
                  __tmp_0   0x000014       data     static C:\GIT-REPOS\Siebwalde\TrackController3.X\Microchip\Common\TimeDelay.c
                  __tmp_0   0x000014       data     static C:\GIT-REPOS\Siebwalde\TrackController3.X\I2c2\i2c2writ.c
                  __tmp_0   0x000014       data     static C:\GIT-REPOS\Siebwalde\TrackController3.X\I2c2\i2c2read.c
                  __tmp_0   0x000014       data     static C:\GIT-REPOS\Siebwalde\TrackController3.X\I2c2\i2c1writ.c
                  __tmp_0   0x000014       data     static C:\GIT-REPOS\Siebwalde\TrackController3.X\I2c2\i2c2idle.c
                  __tmp_0   0x000014       data     static C:\GIT-REPOS\Siebwalde\TrackController3.X\I2c2\i2c2eesr.c
                  __tmp_0   0x000014       data     static C:\GIT-REPOS\Siebwalde\TrackController3.X\I2c2\i2c2eerr.c
                  __tmp_0   0x000014       data     static C:\GIT-REPOS\Siebwalde\TrackController3.X\I2c2\i2c2eepw.c
                  __tmp_0   0x000014       data     static C:\GIT-REPOS\Siebwalde\TrackController3.X\I2c2\i2c2eecr.c
                  __tmp_0   0x000014       data     static C:\GIT-REPOS\Siebwalde\TrackController3.X\I2c2\i2c2eebw.c
                  __tmp_0   0x000014       data     static C:\GIT-REPOS\Siebwalde\TrackController3.X\I2c2\i2c2eeap.c
                  __tmp_0   0x000014       data     static C:\GIT-REPOS\Siebwalde\TrackController3.X\eusart2.c
                  __tmp_0   0x000014       data     static C:\GIT-REPOS\Siebwalde\TrackController3.X\eusart1.c
                  __tmp_0   0x000014       data     static C:\GIT-REPOS\Siebwalde\TrackController3.X\FiddleYard.c
                  __tmp_0   0x000014       data     static C:\GIT-REPOS\Siebwalde\TrackController3.X\Var_Out.c
                  __tmp_0   0x000014       data     static C:\GIT-REPOS\Siebwalde\TrackController3.X\Diagnostic_ret.c
                  __tmp_0   0x000014       data     static C:\GIT-REPOS\Siebwalde\TrackController3.X\Command_Machine.c
                  __tmp_0   0x000014       data     static C:\GIT-REPOS\Siebwalde\TrackController3.X\modbus\PetitModbus.c
                  __tmp_0   0x000014       data     static C:\GIT-REPOS\Siebwalde\TrackController3.X\modbus\PetitModbusPort.c
                  _return   0x00040a       data     extern C:\GIT-REPOS\Siebwalde\TrackController3.X\I2c2\i2c2read.c
            _uDynamicHeap   0x000100       data     extern C:\GIT-REPOS\Siebwalde\TrackController3.X\Microchip\PIC18Salloc\salloc.c
          activeUDPSocket   0x000f46       data     extern C:\GIT-REPOS\Siebwalde\TrackController3.X\Microchip\TCPIPStack\UDP.c
           bLastLinkState   0x00042b       data     static C:\GIT-REPOS\Siebwalde\TrackController3.X\Microchip\TCPIPStack\StackTsk.c
                curr_byte   0x000f55       data     static E:\3.46\pic18-lt\cxx-framework\src\traditional\startup\c018i.c
               curr_entry   0x000f57       data     static E:\3.46\pic18-lt\cxx-framework\src\traditional\startup\c018i.c
                 data_ptr   0x000f59       data     static E:\3.46\pic18-lt\cxx-framework\src\traditional\startup\c018i.c
          dwInternalTicks   0x000414       data     static C:\GIT-REPOS\Siebwalde\TrackController3.X\Microchip\TCPIPStack\Tick.c
           dwLFSRRandSeed   0x000418       data     static C:\GIT-REPOS\Siebwalde\TrackController3.X\Microchip\TCPIPStack\Helpers.c
                 dwLastIP   0x000e68       data     static C:\GIT-REPOS\Siebwalde\TrackController3.X\FiddleYard.c
                  dwTimer   0x000e3f       data     static C:\GIT-REPOS\Siebwalde\TrackController3.X\Command_Machine.c
                  dwTimer   0x000e7b       data     static C:\GIT-REPOS\Siebwalde\TrackController3.X\Diagnostic_ret.c
          eusart1RxBuffer   0x000215       data     static C:\GIT-REPOS\Siebwalde\TrackController3.X\eusart1.c
           eusart1RxCount   0x000293       data     extern C:\GIT-REPOS\Siebwalde\TrackController3.X\eusart1.c
            eusart1RxHead   0x000412       data     static C:\GIT-REPOS\Siebwalde\TrackController3.X\eusart1.c
            eusart1RxTail   0x000413       data     static C:\GIT-REPOS\Siebwalde\TrackController3.X\eusart1.c
          eusart1TxBuffer   0x000200       data     static C:\GIT-REPOS\Siebwalde\TrackController3.X\eusart1.c
 eusart1TxBufferRemaining   0x000214       data     extern C:\GIT-REPOS\Siebwalde\TrackController3.X\eusart1.c
            eusart1TxHead   0x000410       data     static C:\GIT-REPOS\Siebwalde\TrackController3.X\eusart1.c
            eusart1TxTail   0x000411       data     static C:\GIT-REPOS\Siebwalde\TrackController3.X\eusart1.c
          eusart2RxBuffer   0x000075       data     static C:\GIT-REPOS\Siebwalde\TrackController3.X\eusart2.c
           eusart2RxCount   0x0000f3       data     extern C:\GIT-REPOS\Siebwalde\TrackController3.X\eusart2.c
            eusart2RxHead   0x00040e       data     static C:\GIT-REPOS\Siebwalde\TrackController3.X\eusart2.c
            eusart2RxTail   0x00040f       data     static C:\GIT-REPOS\Siebwalde\TrackController3.X\eusart2.c
          eusart2TxBuffer   0x000060       data     static C:\GIT-REPOS\Siebwalde\TrackController3.X\eusart2.c
 eusart2TxBufferRemaining   0x000074       data     extern C:\GIT-REPOS\Siebwalde\TrackController3.X\eusart2.c
            eusart2TxHead   0x00040c       data     static C:\GIT-REPOS\Siebwalde\TrackController3.X\eusart2.c
            eusart2TxTail   0x00040d       data     static C:\GIT-REPOS\Siebwalde\TrackController3.X\eusart2.c
                    flags   0x000e75       data     static C:\GIT-REPOS\Siebwalde\TrackController3.X\Microchip\TCPIPStack\ETH97J60.c
                     prom   0x000f52       data     static E:\3.46\pic18-lt\cxx-framework\src\traditional\startup\c018i.c
               remoteNode   0x0000f5       data     extern C:\GIT-REPOS\Siebwalde\TrackController3.X\Microchip\TCPIPStack\StackTsk.c
                    smARP   0x000430       data     static C:\GIT-REPOS\Siebwalde\TrackController3.X\Microchip\TCPIPStack\ARP.c
                   smNBNS   0x00042d       data     static C:\GIT-REPOS\Siebwalde\TrackController3.X\Microchip\TCPIPStack\NBNS.c
                  smStack   0x0000f4       data     static C:\GIT-REPOS\Siebwalde\TrackController3.X\Microchip\TCPIPStack\StackTsk.c
                  socket1   0x000e78       data     static C:\GIT-REPOS\Siebwalde\TrackController3.X\Diagnostic_ret.c
                  socket2   0x000e2c       data     static C:\GIT-REPOS\Siebwalde\TrackController3.X\Command_Machine.c
                   stdout   0x000424       data     extern E:\3.46\pic18-lt\cxx-framework\src\traditional\stdclib\stdout.c
              tblptru_sav   0x0000ff       data     static E:\3.46\pic18-lt\cxx-framework\src\traditional\stdclib\mcpyp2r.asm
                    temp3   0x000e6d       data     extern C:\GIT-REPOS\Siebwalde\TrackController3.X\FiddleYard.c
                  timeout   0x000406       data     extern C:\GIT-REPOS\Siebwalde\TrackController3.X\I2c2\i2c2read.c
                 toRotate   0x000f5c       data     extern C:\GIT-REPOS\Siebwalde\TrackController3.X\Microchip\TCPIPStack\Helpers.c
             vTickReading   0x000400       data     static C:\GIT-REPOS\Siebwalde\TrackController3.X\Microchip\TCPIPStack\Tick.c
               wGetOffset   0x000f4d       data     static C:\GIT-REPOS\Siebwalde\TrackController3.X\Microchip\TCPIPStack\UDP.c
               wPutOffset   0x000f4b       data     static C:\GIT-REPOS\Siebwalde\TrackController3.X\Microchip\TCPIPStack\UDP.c
              wTXWatchdog   0x000e76       data     static C:\GIT-REPOS\Siebwalde\TrackController3.X\Microchip\TCPIPStack\ETH97J60.c



                              Symbols - Sorted by Address
                     Name    Address   Location    Storage File                     
                ---------  ---------  ---------  --------- ---------                
                   _entry   0x000000    program     extern E:\3.46\pic18-lt\cxx-framework\src\traditional\startup\c018i.c
       ___return_lbl00000   0x000004    program     static                          
                   __init   0x000006    program     extern E:\3.46\pic18-lt\cxx-framework\src\traditional\stdclib\__init.c
 interrupt_at_high_vector   0x000008    program     extern C:\GIT-REPOS\Siebwalde\TrackController3.X\FiddleYard.c
       ___return_lbl00005   0x00000c    program     static                          
     SerializedMACAddress   0x00000e    program     static C:\GIT-REPOS\Siebwalde\TrackController3.X\FiddleYard.c
                StartI2C2   0x000014    program     extern C:\GIT-REPOS\Siebwalde\TrackController3.X\I2c2\i2c2strt.c
  interrupt_at_low_vector   0x000018    program     extern C:\GIT-REPOS\Siebwalde\TrackController3.X\FiddleYard.c
       ___return_lbl00007   0x00001c    program     static                          
         Var_Out_Programm   0x000110    program     extern C:\GIT-REPOS\Siebwalde\TrackController3.X\Var_Out.c
         Var_Out_Switcher   0x000252    program     extern C:\GIT-REPOS\Siebwalde\TrackController3.X\Var_Out.c
       ___case_3_lbl00035   0x000acc    program     static                          
       ___case_4_lbl00042   0x000d22    program     static                          
      ___default_lbl00047   0x001006    program     static                          
   ___switchexit_lbl00007   0x001020    program     static                          
        Fiddle_Yard_Reset   0x001028    program     extern C:\GIT-REPOS\Siebwalde\TrackController3.X\Var_Out.c
             Target_Ready   0x00106c    program     extern C:\GIT-REPOS\Siebwalde\TrackController3.X\Var_Out.c
Sent_Track_Power_Meassage   0x0010b0    program     extern C:\GIT-REPOS\Siebwalde\TrackController3.X\Var_Out.c
             LFSRSeedRand   0x0010f4    program     extern C:\GIT-REPOS\Siebwalde\TrackController3.X\Microchip\TCPIPStack\Helpers.c
                 LFSRRand   0x0011ac    program     extern C:\GIT-REPOS\Siebwalde\TrackController3.X\Microchip\TCPIPStack\Helpers.c
      GenerateRandomDWORD   0x001246    program     extern C:\GIT-REPOS\Siebwalde\TrackController3.X\Microchip\TCPIPStack\Helpers.c
        ___while_lbl00010   0x0012b4    program     static                          
        ___while_lbl00012   0x0012bc    program     static                          
        ___while_lbl00013   0x0012c0    program     static                          
               __tmplbl_0   0x00131e    program     static                          
           ___if_lbl00014   0x00135a    program     static                          
           ___if_lbl00015   0x001378    program     static                          
           ___if_lbl00016   0x00140a    program     static                          
           ___if_lbl00017   0x001410    program     static                          
        ___while_lbl00011   0x001412    program     static                          
       ___return_lbl00009   0x00145a    program     static                          
        StringToIPAddress   0x00146e    program     extern C:\GIT-REPOS\Siebwalde\TrackController3.X\Microchip\TCPIPStack\Helpers.c
     ROMStringToIPAddress   0x0016c2    program     extern C:\GIT-REPOS\Siebwalde\TrackController3.X\Microchip\TCPIPStack\Helpers.c
                    uitoa   0x001928    program     extern C:\GIT-REPOS\Siebwalde\TrackController3.X\Microchip\TCPIPStack\Helpers.c
                  hexatob   0x001a74    program     extern C:\GIT-REPOS\Siebwalde\TrackController3.X\Microchip\TCPIPStack\Helpers.c
             btohexa_high   0x001b32    program     extern C:\GIT-REPOS\Siebwalde\TrackController3.X\Microchip\TCPIPStack\Helpers.c
              btohexa_low   0x001b6a    program     extern C:\GIT-REPOS\Siebwalde\TrackController3.X\Microchip\TCPIPStack\Helpers.c
           stricmppgm2ram   0x001b9e    program     extern C:\GIT-REPOS\Siebwalde\TrackController3.X\Microchip\TCPIPStack\Helpers.c
                    swaps   0x001cb6    program     extern C:\GIT-REPOS\Siebwalde\TrackController3.X\Microchip\TCPIPStack\Helpers.c
                    swapl   0x001d0a    program     extern C:\GIT-REPOS\Siebwalde\TrackController3.X\Microchip\TCPIPStack\Helpers.c
           CalcIPChecksum   0x001db0    program     extern C:\GIT-REPOS\Siebwalde\TrackController3.X\Microchip\TCPIPStack\Helpers.c
          leftRotateDWORD   0x001f0e    program     extern C:\GIT-REPOS\Siebwalde\TrackController3.X\Microchip\TCPIPStack\Helpers.c
          ___for_lbl00102   0x001f38    program     static                          
          ___for_lbl00100   0x001f56    program     static                          
          ___for_lbl00105   0x001f5c    program     static                          
          ___for_lbl00101   0x001f5c    program     static                          
          ___for_lbl00103   0x001f70    program     static                          
          ___for_lbl00104   0x001f74    program     static                          
       ___return_lbl00099   0x001f86    program     static                          
        FormatNetBIOSName   0x001f9a    program     extern C:\GIT-REPOS\Siebwalde\TrackController3.X\Microchip\TCPIPStack\Helpers.c
                  strnchr   0x00202c    program     extern C:\GIT-REPOS\Siebwalde\TrackController3.X\Microchip\TCPIPStack\Helpers.c
                  UDPInit   0x0020a4    program     extern C:\GIT-REPOS\Siebwalde\TrackController3.X\Microchip\TCPIPStack\UDP.c
                  UDPTask   0x0020d0    program     extern C:\GIT-REPOS\Siebwalde\TrackController3.X\Microchip\TCPIPStack\UDP.c
                  UDPOpen   0x0020d6    program     extern C:\GIT-REPOS\Siebwalde\TrackController3.X\Microchip\TCPIPStack\UDP.c
                 UDPClose   0x002282    program     extern C:\GIT-REPOS\Siebwalde\TrackController3.X\Microchip\TCPIPStack\UDP.c
           UDPSetTxBuffer   0x0022e4    program     extern C:\GIT-REPOS\Siebwalde\TrackController3.X\Microchip\TCPIPStack\UDP.c
           UDPSetRxBuffer   0x00235c    program     extern C:\GIT-REPOS\Siebwalde\TrackController3.X\Microchip\TCPIPStack\UDP.c
            UDPIsPutReady   0x0023a0    program     extern C:\GIT-REPOS\Siebwalde\TrackController3.X\Microchip\TCPIPStack\UDP.c
                   UDPPut   0x002420    program     extern C:\GIT-REPOS\Siebwalde\TrackController3.X\Microchip\TCPIPStack\UDP.c
              UDPPutArray   0x002484    program     extern C:\GIT-REPOS\Siebwalde\TrackController3.X\Microchip\TCPIPStack\UDP.c
           UDPPutROMArray   0x00257a    program     extern C:\GIT-REPOS\Siebwalde\TrackController3.X\Microchip\TCPIPStack\UDP.c
             UDPPutString   0x002676    program     extern C:\GIT-REPOS\Siebwalde\TrackController3.X\Microchip\TCPIPStack\UDP.c
          UDPPutROMString   0x0026f6    program     extern C:\GIT-REPOS\Siebwalde\TrackController3.X\Microchip\TCPIPStack\UDP.c
                 UDPFlush   0x002784    program     extern C:\GIT-REPOS\Siebwalde\TrackController3.X\Microchip\TCPIPStack\UDP.c
            UDPIsGetReady   0x0028d4    program     extern C:\GIT-REPOS\Siebwalde\TrackController3.X\Microchip\TCPIPStack\UDP.c
                   UDPGet   0x00292c    program     extern C:\GIT-REPOS\Siebwalde\TrackController3.X\Microchip\TCPIPStack\UDP.c
              UDPGetArray   0x002980    program     extern C:\GIT-REPOS\Siebwalde\TrackController3.X\Microchip\TCPIPStack\UDP.c
               UDPDiscard   0x002a6c    program     extern C:\GIT-REPOS\Siebwalde\TrackController3.X\Microchip\TCPIPStack\UDP.c
               UDPProcess   0x002a86    program     extern C:\GIT-REPOS\Siebwalde\TrackController3.X\Microchip\TCPIPStack\UDP.c
       FindMatchingSocket   0x002cbc    program     static C:\GIT-REPOS\Siebwalde\TrackController3.X\Microchip\TCPIPStack\UDP.c
                  MACInit   0x002eb4    program     extern C:\GIT-REPOS\Siebwalde\TrackController3.X\Microchip\TCPIPStack\ETH97J60.c
        ___while_lbl00001   0x002ec6    program     static                          
        ___while_lbl00002   0x002ecc    program     static                          
       ___return_lbl00000   0x002fb6    program     static                          
              MACIsLinked   0x002fc0    program     extern C:\GIT-REPOS\Siebwalde\TrackController3.X\Microchip\TCPIPStack\ETH97J60.c
             MACIsTxReady   0x002fe2    program     extern C:\GIT-REPOS\Siebwalde\TrackController3.X\Microchip\TCPIPStack\ETH97J60.c
             MACDiscardRx   0x00301c    program     extern C:\GIT-REPOS\Siebwalde\TrackController3.X\Microchip\TCPIPStack\ETH97J60.c
         MACGetFreeRxSize   0x0030b0    program     extern C:\GIT-REPOS\Siebwalde\TrackController3.X\Microchip\TCPIPStack\ETH97J60.c
             MACGetHeader   0x0031a8    program     extern C:\GIT-REPOS\Siebwalde\TrackController3.X\Microchip\TCPIPStack\ETH97J60.c
           ___if_lbl00020   0x0031be    program     static                          
           ___if_lbl00021   0x0031ce    program     static                          
              __tmplbl_11   0x003236    program     static                          
              __tmplbl_10   0x003238    program     static                          
               __tmplbl_9   0x003246    program     static                          
               __tmplbl_8   0x00325c    program     static                          
               __tmplbl_7   0x003270    program     static                          
               __tmplbl_6   0x003286    program     static                          
               __tmplbl_5   0x00329a    program     static                          
           ___if_lbl00027   0x00329c    program     static                          
              __tmplbl_13   0x0032f4    program     static                          
              __tmplbl_14   0x0032fa    program     static                          
              __tmplbl_12   0x003302    program     static                          
           ___if_lbl00030   0x003314    program     static                          
       ___return_lbl00019   0x00331c    program     static                          
             MACPutHeader   0x003334    program     extern C:\GIT-REPOS\Siebwalde\TrackController3.X\Microchip\TCPIPStack\ETH97J60.c
                 MACFlush   0x0033bc    program     extern C:\GIT-REPOS\Siebwalde\TrackController3.X\Microchip\TCPIPStack\ETH97J60.c
        MACSetReadPtrInRx   0x0033f2    program     extern C:\GIT-REPOS\Siebwalde\TrackController3.X\Microchip\TCPIPStack\ETH97J60.c
           MACSetWritePtr   0x003472    program     extern C:\GIT-REPOS\Siebwalde\TrackController3.X\Microchip\TCPIPStack\ETH97J60.c
            MACSetReadPtr   0x0034b8    program     extern C:\GIT-REPOS\Siebwalde\TrackController3.X\Microchip\TCPIPStack\ETH97J60.c
        MACCalcRxChecksum   0x0034fe    program     extern C:\GIT-REPOS\Siebwalde\TrackController3.X\Microchip\TCPIPStack\ETH97J60.c
     CalcIPBufferChecksum   0x0035c0    program     extern C:\GIT-REPOS\Siebwalde\TrackController3.X\Microchip\TCPIPStack\ETH97J60.c
          MACMemCopyAsync   0x0037c4    program     extern C:\GIT-REPOS\Siebwalde\TrackController3.X\Microchip\TCPIPStack\ETH97J60.c
         MACIsMemCopyDone   0x003a34    program     extern C:\GIT-REPOS\Siebwalde\TrackController3.X\Microchip\TCPIPStack\ETH97J60.c
                   MACGet   0x003a42    program     extern C:\GIT-REPOS\Siebwalde\TrackController3.X\Microchip\TCPIPStack\ETH97J60.c
              MACGetArray   0x003a48    program     extern C:\GIT-REPOS\Siebwalde\TrackController3.X\Microchip\TCPIPStack\ETH97J60.c
                   MACPut   0x003ae8    program     extern C:\GIT-REPOS\Siebwalde\TrackController3.X\Microchip\TCPIPStack\ETH97J60.c
       ___return_lbl00079   0x003afa    program     static                          
              MACPutArray   0x003b02    program     extern C:\GIT-REPOS\Siebwalde\TrackController3.X\Microchip\TCPIPStack\ETH97J60.c
        ___while_lbl00081   0x003b0a    program     static                          
        ___while_lbl00082   0x003b3e    program     static                          
       ___return_lbl00080   0x003b3e    program     static                          
           MACPutROMArray   0x003b46    program     extern C:\GIT-REPOS\Siebwalde\TrackController3.X\Microchip\TCPIPStack\ETH97J60.c
        ___while_lbl00084   0x003b4e    program     static                          
       ___return_lbl00083   0x003b94    program     static                          
        ___while_lbl00085   0x003b94    program     static                          
               ReadPHYReg   0x003b9c    program     extern C:\GIT-REPOS\Siebwalde\TrackController3.X\Microchip\TCPIPStack\ETH97J60.c
        ___while_lbl00087   0x003bb8    program     static                          
        ___while_lbl00088   0x003bbe    program     static                          
       ___return_lbl00086   0x003be2    program     static                          
              WritePHYReg   0x003bf6    program     extern C:\GIT-REPOS\Siebwalde\TrackController3.X\Microchip\TCPIPStack\ETH97J60.c
        ___while_lbl00090   0x003c2a    program     static                          
       ___return_lbl00089   0x003c30    program     static                          
        ___while_lbl00091   0x003c30    program     static                          
             MACPowerDown   0x003c3a    program     extern C:\GIT-REPOS\Siebwalde\TrackController3.X\Microchip\TCPIPStack\ETH97J60.c
               MACPowerUp   0x003c4c    program     extern C:\GIT-REPOS\Siebwalde\TrackController3.X\Microchip\TCPIPStack\ETH97J60.c
                 DHCPInit   0x003c5c    program     extern C:\GIT-REPOS\Siebwalde\TrackController3.X\Microchip\TCPIPStack\DHCP.c
              DHCPDisable   0x003cb4    program     extern C:\GIT-REPOS\Siebwalde\TrackController3.X\Microchip\TCPIPStack\DHCP.c
               DHCPEnable   0x003cde    program     extern C:\GIT-REPOS\Siebwalde\TrackController3.X\Microchip\TCPIPStack\DHCP.c
            DHCPIsEnabled   0x003cfe    program     extern C:\GIT-REPOS\Siebwalde\TrackController3.X\Microchip\TCPIPStack\DHCP.c
              DHCPIsBound   0x003d1c    program     extern C:\GIT-REPOS\Siebwalde\TrackController3.X\Microchip\TCPIPStack\DHCP.c
         DHCPStateChanged   0x003d34    program     extern C:\GIT-REPOS\Siebwalde\TrackController3.X\Microchip\TCPIPStack\DHCP.c
     DHCPIsServerDetected   0x003d56    program     extern C:\GIT-REPOS\Siebwalde\TrackController3.X\Microchip\TCPIPStack\DHCP.c
                 DHCPTask   0x003d72    program     extern C:\GIT-REPOS\Siebwalde\TrackController3.X\Microchip\TCPIPStack\DHCP.c
             _DHCPReceive   0x004234    program     static C:\GIT-REPOS\Siebwalde\TrackController3.X\Microchip\TCPIPStack\DHCP.c
                _DHCPSend   0x004686    program     static C:\GIT-REPOS\Siebwalde\TrackController3.X\Microchip\TCPIPStack\DHCP.c
            s_put_n_chars   0x004938    program     static E:\3.46\pic18-lt\cxx-framework\src\traditional\stdclib\vfprintf.c
                 vfprintf   0x004964    program     extern E:\3.46\pic18-lt\cxx-framework\src\traditional\stdclib\vfprintf.c
              __tmplbl_85   0x00498e    program     static                          
              __tmplbl_44   0x00523c    program     static                          
              __tmplbl_43   0x005256    program     static                          
                   __pa_0   0x005278    program     static E:\3.46\pic18-lt\cxx-framework\src\traditional\stdclib\vfprintf.c
                   __pa_1   0x005280    program     static E:\3.46\pic18-lt\cxx-framework\src\traditional\stdclib\vfprintf.c
                   __pa_2   0x00528a    program     static E:\3.46\pic18-lt\cxx-framework\src\traditional\stdclib\vfprintf.c
                   __pa_3   0x005294    program     static E:\3.46\pic18-lt\cxx-framework\src\traditional\stdclib\vfprintf.c
                   __pa_4   0x0052ac    program     static E:\3.46\pic18-lt\cxx-framework\src\traditional\stdclib\vfprintf.c
                   __pa_5   0x0052c0    program     static E:\3.46\pic18-lt\cxx-framework\src\traditional\stdclib\vfprintf.c
                   __pa_6   0x0052dc    program     static E:\3.46\pic18-lt\cxx-framework\src\traditional\stdclib\vfprintf.c
                   __pa_7   0x0052e6    program     static E:\3.46\pic18-lt\cxx-framework\src\traditional\stdclib\vfprintf.c
                   __pa_8   0x0052f2    program     static E:\3.46\pic18-lt\cxx-framework\src\traditional\stdclib\vfprintf.c
                   __pa_9   0x005314    program     static E:\3.46\pic18-lt\cxx-framework\src\traditional\stdclib\vfprintf.c
                  __pa_10   0x005334    program     static E:\3.46\pic18-lt\cxx-framework\src\traditional\stdclib\vfprintf.c
                  __pa_11   0x005342    program     static E:\3.46\pic18-lt\cxx-framework\src\traditional\stdclib\vfprintf.c
                  __pa_12   0x005358    program     static E:\3.46\pic18-lt\cxx-framework\src\traditional\stdclib\vfprintf.c
                  __pa_13   0x005372    program     static E:\3.46\pic18-lt\cxx-framework\src\traditional\stdclib\vfprintf.c
                  __pa_14   0x00538a    program     static E:\3.46\pic18-lt\cxx-framework\src\traditional\stdclib\vfprintf.c
                  __pa_15   0x00539a    program     static E:\3.46\pic18-lt\cxx-framework\src\traditional\stdclib\vfprintf.c
                  __pa_16   0x0053b0    program     static E:\3.46\pic18-lt\cxx-framework\src\traditional\stdclib\vfprintf.c
                  __pa_17   0x0053c2    program     static E:\3.46\pic18-lt\cxx-framework\src\traditional\stdclib\vfprintf.c
                  __pa_18   0x0053d4    program     static E:\3.46\pic18-lt\cxx-framework\src\traditional\stdclib\vfprintf.c
                  __pa_19   0x0053de    program     static E:\3.46\pic18-lt\cxx-framework\src\traditional\stdclib\vfprintf.c
                  __pa_20   0x0053ee    program     static E:\3.46\pic18-lt\cxx-framework\src\traditional\stdclib\vfprintf.c
                  __pa_21   0x0053fe    program     static E:\3.46\pic18-lt\cxx-framework\src\traditional\stdclib\vfprintf.c
              __tmplbl_42   0x00540e    program     static                          
                  __pa_22   0x00540e    program     static E:\3.46\pic18-lt\cxx-framework\src\traditional\stdclib\vfprintf.c
                  __pa_23   0x00541a    program     static E:\3.46\pic18-lt\cxx-framework\src\traditional\stdclib\vfprintf.c
                  __pa_24   0x005428    program     static E:\3.46\pic18-lt\cxx-framework\src\traditional\stdclib\vfprintf.c
                  __pa_25   0x005430    program     static E:\3.46\pic18-lt\cxx-framework\src\traditional\stdclib\vfprintf.c
                  __pa_26   0x00543a    program     static E:\3.46\pic18-lt\cxx-framework\src\traditional\stdclib\vfprintf.c
                  __pa_27   0x005444    program     static E:\3.46\pic18-lt\cxx-framework\src\traditional\stdclib\vfprintf.c
                  __pa_28   0x00544c    program     static E:\3.46\pic18-lt\cxx-framework\src\traditional\stdclib\vfprintf.c
                  __pa_29   0x00545a    program     static E:\3.46\pic18-lt\cxx-framework\src\traditional\stdclib\vfprintf.c
                  __pa_30   0x005476    program     static E:\3.46\pic18-lt\cxx-framework\src\traditional\stdclib\vfprintf.c
                  __pa_31   0x005490    program     static E:\3.46\pic18-lt\cxx-framework\src\traditional\stdclib\vfprintf.c
                  __pa_32   0x0054aa    program     static E:\3.46\pic18-lt\cxx-framework\src\traditional\stdclib\vfprintf.c
                  __pa_33   0x0054c2    program     static E:\3.46\pic18-lt\cxx-framework\src\traditional\stdclib\vfprintf.c
                  __pa_34   0x0054cc    program     static E:\3.46\pic18-lt\cxx-framework\src\traditional\stdclib\vfprintf.c
                  __pa_35   0x0054da    program     static E:\3.46\pic18-lt\cxx-framework\src\traditional\stdclib\vfprintf.c
                  __pa_36   0x0054e2    program     static E:\3.46\pic18-lt\cxx-framework\src\traditional\stdclib\vfprintf.c
                  __pa_37   0x0054ec    program     static E:\3.46\pic18-lt\cxx-framework\src\traditional\stdclib\vfprintf.c
                  __pa_38   0x0054fc    program     static E:\3.46\pic18-lt\cxx-framework\src\traditional\stdclib\vfprintf.c
                  __pa_39   0x00550a    program     static E:\3.46\pic18-lt\cxx-framework\src\traditional\stdclib\vfprintf.c
                  __pa_40   0x005516    program     static E:\3.46\pic18-lt\cxx-framework\src\traditional\stdclib\vfprintf.c
                  __pa_41   0x005522    program     static E:\3.46\pic18-lt\cxx-framework\src\traditional\stdclib\vfprintf.c
                  __pa_42   0x00552a    program     static E:\3.46\pic18-lt\cxx-framework\src\traditional\stdclib\vfprintf.c
                  __pa_43   0x005534    program     static E:\3.46\pic18-lt\cxx-framework\src\traditional\stdclib\vfprintf.c
                  __pa_44   0x00553a    program     static E:\3.46\pic18-lt\cxx-framework\src\traditional\stdclib\vfprintf.c
                  __pa_45   0x005544    program     static E:\3.46\pic18-lt\cxx-framework\src\traditional\stdclib\vfprintf.c
                  __pa_46   0x005550    program     static E:\3.46\pic18-lt\cxx-framework\src\traditional\stdclib\vfprintf.c
              Petit_CRC16   0x00555a    program     extern C:\GIT-REPOS\Siebwalde\TrackController3.X\modbus\PetitModbus.c
          Petit_DoSlaveTX   0x00569c    program     extern C:\GIT-REPOS\Siebwalde\TrackController3.X\modbus\PetitModbus.c
         PetitSendMessage   0x0056c4    program     extern C:\GIT-REPOS\Siebwalde\TrackController3.X\modbus\PetitModbus.c
    Petit_RxDataAvailable   0x0056e0    program     extern C:\GIT-REPOS\Siebwalde\TrackController3.X\modbus\PetitModbus.c
     Petit_CheckRxTimeout   0x005700    program     extern C:\GIT-REPOS\Siebwalde\TrackController3.X\modbus\PetitModbus.c
CheckPetitModbusBufferComplete   0x005720    program     extern C:\GIT-REPOS\Siebwalde\TrackController3.X\modbus\PetitModbus.c
              Petit_RxRTU   0x0057ba    program     extern C:\GIT-REPOS\Siebwalde\TrackController3.X\modbus\PetitModbus.c
              Petit_TxRTU   0x005922    program     extern C:\GIT-REPOS\Siebwalde\TrackController3.X\modbus\PetitModbus.c
       ProcessPetitModbus   0x005a82    program     extern C:\GIT-REPOS\Siebwalde\TrackController3.X\modbus\PetitModbus.c
          InitPetitModbus   0x005b00    program     extern C:\GIT-REPOS\Siebwalde\TrackController3.X\modbus\PetitModbus.c
          SendPetitModbus   0x005b24    program     extern C:\GIT-REPOS\Siebwalde\TrackController3.X\modbus\PetitModbus.c
HandlePetitModbusWriteSingleRegisterSlaveReadback   0x005c00    program     extern C:\GIT-REPOS\Siebwalde\TrackController3.X\modbus\PetitModbus.c
HandlePetitModbusReadHoldingRegistersSlaveReadback   0x005cb8    program     extern C:\GIT-REPOS\Siebwalde\TrackController3.X\modbus\PetitModbus.c
HandleMPetitodbusWriteMultipleRegistersSlaveReadback   0x005f1e    program     extern C:\GIT-REPOS\Siebwalde\TrackController3.X\modbus\PetitModbus.c
HandleMPetitodbusMbExceptionCodesSlaveReadback   0x006070    program     extern C:\GIT-REPOS\Siebwalde\TrackController3.X\modbus\PetitModbus.c
                       IO   0x0060fa    program     extern C:\GIT-REPOS\Siebwalde\TrackController3.X\Shift_Register.c
            Calc_Track_Nr   0x006312    program     static C:\GIT-REPOS\Siebwalde\TrackController3.X\Shift_Register.c
                  TR_MEAS   0x006522    program     extern C:\GIT-REPOS\Siebwalde\TrackController3.X\Shift_Register.c
                    CL_10   0x00654c    program     extern C:\GIT-REPOS\Siebwalde\TrackController3.X\Shift_Register.c
              CL_10_Heart   0x006578    program     extern C:\GIT-REPOS\Siebwalde\TrackController3.X\Shift_Register.c
                   SPARE2   0x0065aa    program     extern C:\GIT-REPOS\Siebwalde\TrackController3.X\Shift_Register.c
                      F11   0x0065dc    program     extern C:\GIT-REPOS\Siebwalde\TrackController3.X\Shift_Register.c
                   EOS_10   0x00660e    program     extern C:\GIT-REPOS\Siebwalde\TrackController3.X\Shift_Register.c
                   EOS_11   0x006640    program     extern C:\GIT-REPOS\Siebwalde\TrackController3.X\Shift_Register.c
                   SPARE3   0x006672    program     extern C:\GIT-REPOS\Siebwalde\TrackController3.X\Shift_Register.c
                      F13   0x0066a4    program     extern C:\GIT-REPOS\Siebwalde\TrackController3.X\Shift_Register.c
                      F10   0x0066d6    program     extern C:\GIT-REPOS\Siebwalde\TrackController3.X\Shift_Register.c
                      F12   0x006708    program     extern C:\GIT-REPOS\Siebwalde\TrackController3.X\Shift_Register.c
             Bezet_Uit_5B   0x00673a    program     extern C:\GIT-REPOS\Siebwalde\TrackController3.X\Shift_Register.c
              Bezet_Uit_6   0x00676c    program     extern C:\GIT-REPOS\Siebwalde\TrackController3.X\Shift_Register.c
              Bezet_Uit_7   0x00679e    program     extern C:\GIT-REPOS\Siebwalde\TrackController3.X\Shift_Register.c
             Bezet_Uit_8A   0x0067d0    program     extern C:\GIT-REPOS\Siebwalde\TrackController3.X\Shift_Register.c
                 Track_Nr   0x006802    program     extern C:\GIT-REPOS\Siebwalde\TrackController3.X\Shift_Register.c
               M10_Status   0x006834    program     extern C:\GIT-REPOS\Siebwalde\TrackController3.X\Shift_Register.c
      Enable_Track_Status   0x006866    program     extern C:\GIT-REPOS\Siebwalde\TrackController3.X\Shift_Register.c
       Bezet_In_5B_Status   0x006898    program     extern C:\GIT-REPOS\Siebwalde\TrackController3.X\Shift_Register.c
        Bezet_In_6_Status   0x0068ca    program     extern C:\GIT-REPOS\Siebwalde\TrackController3.X\Shift_Register.c
        Bezet_In_7_Status   0x0068fc    program     extern C:\GIT-REPOS\Siebwalde\TrackController3.X\Shift_Register.c
   Bezet_Weerstand_Status   0x00692e    program     extern C:\GIT-REPOS\Siebwalde\TrackController3.X\Shift_Register.c
                      M10   0x006960    program     extern C:\GIT-REPOS\Siebwalde\TrackController3.X\Shift_Register.c
             Enable_Track   0x006994    program     extern C:\GIT-REPOS\Siebwalde\TrackController3.X\Shift_Register.c
              Bezet_In_5B   0x0069c8    program     extern C:\GIT-REPOS\Siebwalde\TrackController3.X\Shift_Register.c
               Bezet_In_6   0x0069fc    program     extern C:\GIT-REPOS\Siebwalde\TrackController3.X\Shift_Register.c
               Bezet_In_7   0x006a30    program     extern C:\GIT-REPOS\Siebwalde\TrackController3.X\Shift_Register.c
          Bezet_Weerstand   0x006a64    program     extern C:\GIT-REPOS\Siebwalde\TrackController3.X\Shift_Register.c
               Diagnostic   0x006a98    program     extern C:\GIT-REPOS\Siebwalde\TrackController3.X\Diagnostic_ret.c
           Send_Diag_Comm   0x006e8c    program     extern C:\GIT-REPOS\Siebwalde\TrackController3.X\Diagnostic_ret.c
                 Exe_Cmd_   0x00736a    program     extern C:\GIT-REPOS\Siebwalde\TrackController3.X\Command_Machine.c
              Exe_Cmd_Ret   0x00738c    program     extern C:\GIT-REPOS\Siebwalde\TrackController3.X\Command_Machine.c
           Exe_Cmd_Resume   0x0073b2    program     extern C:\GIT-REPOS\Siebwalde\TrackController3.X\Command_Machine.c
                  Command   0x0073d6    program     extern C:\GIT-REPOS\Siebwalde\TrackController3.X\Command_Machine.c
                Clear_Cmd   0x007508    program     extern C:\GIT-REPOS\Siebwalde\TrackController3.X\Command_Machine.c
              Command_Exe   0x00751a    program     static C:\GIT-REPOS\Siebwalde\TrackController3.X\Command_Machine.c
                   ARPPut   0x00799e    program     static C:\GIT-REPOS\Siebwalde\TrackController3.X\Microchip\TCPIPStack\ARP.c
                  ARPInit   0x007af8    program     extern C:\GIT-REPOS\Siebwalde\TrackController3.X\Microchip\TCPIPStack\ARP.c
               ARPProcess   0x007b1c    program     extern C:\GIT-REPOS\Siebwalde\TrackController3.X\Microchip\TCPIPStack\ARP.c
               ARPResolve   0x007cfa    program     extern C:\GIT-REPOS\Siebwalde\TrackController3.X\Microchip\TCPIPStack\ARP.c
            ARPIsResolved   0x007de2    program     extern C:\GIT-REPOS\Siebwalde\TrackController3.X\Microchip\TCPIPStack\ARP.c
            SwapARPPacket   0x007ec4    program     extern C:\GIT-REPOS\Siebwalde\TrackController3.X\Microchip\TCPIPStack\ARP.c
                 NBNSTask   0x007f9c    program     extern C:\GIT-REPOS\Siebwalde\TrackController3.X\Microchip\TCPIPStack\NBNS.c
              NBNSPutName   0x0083e6    program     static C:\GIT-REPOS\Siebwalde\TrackController3.X\Microchip\TCPIPStack\NBNS.c
              NBNSGetName   0x00845c    program     static C:\GIT-REPOS\Siebwalde\TrackController3.X\Microchip\TCPIPStack\NBNS.c
                SRAMalloc   0x008574    program     extern C:\GIT-REPOS\Siebwalde\TrackController3.X\Microchip\PIC18Salloc\salloc.c
                 SRAMfree   0x0087ca    program     extern C:\GIT-REPOS\Siebwalde\TrackController3.X\Microchip\PIC18Salloc\salloc.c
             SRAMInitHeap   0x0087f6    program     extern C:\GIT-REPOS\Siebwalde\TrackController3.X\Microchip\PIC18Salloc\salloc.c
               _SRAMmerge   0x0088f0    program     extern C:\GIT-REPOS\Siebwalde\TrackController3.X\Microchip\PIC18Salloc\salloc.c
              IPGetHeader   0x008ae8    program     extern C:\GIT-REPOS\Siebwalde\TrackController3.X\Microchip\TCPIPStack\IP.c
              IPPutHeader   0x008c5c    program     extern C:\GIT-REPOS\Siebwalde\TrackController3.X\Microchip\TCPIPStack\IP.c
            IPSetRxBuffer   0x008dc2    program     extern C:\GIT-REPOS\Siebwalde\TrackController3.X\Microchip\TCPIPStack\IP.c
             SwapIPHeader   0x008dfc    program     static C:\GIT-REPOS\Siebwalde\TrackController3.X\Microchip\TCPIPStack\IP.c
                     main   0x008ee4    program     extern C:\GIT-REPOS\Siebwalde\TrackController3.X\FiddleYard.c
                 high_isr   0x00902a    program     extern C:\GIT-REPOS\Siebwalde\TrackController3.X\FiddleYard.c
                  low_isr   0x00903c    program     extern C:\GIT-REPOS\Siebwalde\TrackController3.X\FiddleYard.c
              Init_Timers   0x00911c    program     static C:\GIT-REPOS\Siebwalde\TrackController3.X\FiddleYard.c
                 Init_Pwm   0x00914a    program     static C:\GIT-REPOS\Siebwalde\TrackController3.X\FiddleYard.c
            InitAppConfig   0x00915c    program     static C:\GIT-REPOS\Siebwalde\TrackController3.X\FiddleYard.c
               AnnounceIP   0x00922c    program     extern C:\GIT-REPOS\Siebwalde\TrackController3.X\Microchip\TCPIPStack\Announce.c
            DiscoveryTask   0x009342    program     extern C:\GIT-REPOS\Siebwalde\TrackController3.X\Microchip\TCPIPStack\Announce.c
                StackInit   0x0094de    program     extern C:\GIT-REPOS\Siebwalde\TrackController3.X\Microchip\TCPIPStack\StackTsk.c
                StackTask   0x00953a    program     extern C:\GIT-REPOS\Siebwalde\TrackController3.X\Microchip\TCPIPStack\StackTsk.c
        StackApplications   0x00975c    program     extern C:\GIT-REPOS\Siebwalde\TrackController3.X\Microchip\TCPIPStack\StackTsk.c
                Delay10us   0x009766    program     extern C:\GIT-REPOS\Siebwalde\TrackController3.X\Microchip\Common\TimeDelay.c
         ___else_lbl00006   0x009776    program     static                          
               __tmplbl_0   0x009818    program     static                          
        ___while_lbl00001   0x00981c    program     static                          
         ___else_lbl00004   0x00981c    program     static                          
               __tmplbl_1   0x00984a    program     static                          
        ___while_lbl00002   0x009868    program     static                          
           ___if_lbl00005   0x009868    program     static                          
           ___if_lbl00003   0x009868    program     static                          
       ___return_lbl00000   0x009868    program     static                          
                  DelayMs   0x00987c    program     extern C:\GIT-REPOS\Siebwalde\TrackController3.X\Microchip\Common\TimeDelay.c
               __tmplbl_2   0x009924    program     static                          
        ___while_lbl00008   0x00992a    program     static                          
         ___else_lbl00011   0x00992a    program     static                          
               __tmplbl_3   0x009958    program     static                          
           ___if_lbl00010   0x009976    program     static                          
       ___return_lbl00007   0x009976    program     static                          
        ___while_lbl00009   0x009976    program     static                          
                   memcmp   0x00998a    program     extern E:\3.46\pic18-lt\cxx-framework\src\traditional\stdclib\memcmp.asm
                    jLoop   0x0099aa    program     static E:\3.46\pic18-lt\cxx-framework\src\traditional\stdclib\memcmp.asm
              _4jContinue   0x0099b6    program     static E:\3.46\pic18-lt\cxx-framework\src\traditional\stdclib\memcmp.asm
                   _5jEnd   0x0099c0    program     static E:\3.46\pic18-lt\cxx-framework\src\traditional\stdclib\memcmp.asm
                     jEnd   0x0099c6    program     static E:\3.46\pic18-lt\cxx-framework\src\traditional\stdclib\memcmp.asm
                   memcpy   0x0099dc    program     extern E:\3.46\pic18-lt\cxx-framework\src\traditional\stdclib\memcpy.asm
                    jLoop   0x009a04    program     static E:\3.46\pic18-lt\cxx-framework\src\traditional\stdclib\memcpy.asm
              _4jContinue   0x009a10    program     static E:\3.46\pic18-lt\cxx-framework\src\traditional\stdclib\memcpy.asm
                   _5jEnd   0x009a1a    program     static E:\3.46\pic18-lt\cxx-framework\src\traditional\stdclib\memcpy.asm
                     jEnd   0x009a20    program     static E:\3.46\pic18-lt\cxx-framework\src\traditional\stdclib\memcpy.asm
            memcpypgm2ram   0x009a32    program     extern E:\3.46\pic18-lt\cxx-framework\src\traditional\stdclib\mcpyp2r.asm
                    jLoop   0x009a58    program     static E:\3.46\pic18-lt\cxx-framework\src\traditional\stdclib\mcpyp2r.asm
              _3jContinue   0x009a64    program     static E:\3.46\pic18-lt\cxx-framework\src\traditional\stdclib\mcpyp2r.asm
                   _4jEnd   0x009a6e    program     static E:\3.46\pic18-lt\cxx-framework\src\traditional\stdclib\mcpyp2r.asm
                     jEnd   0x009a76    program     static E:\3.46\pic18-lt\cxx-framework\src\traditional\stdclib\mcpyp2r.asm
                   memset   0x009a78    program     extern E:\3.46\pic18-lt\cxx-framework\src\traditional\stdclib\memset.asm
                    jLoop   0x009a8c    program     static E:\3.46\pic18-lt\cxx-framework\src\traditional\stdclib\memset.asm
              _2jContinue   0x009a98    program     static E:\3.46\pic18-lt\cxx-framework\src\traditional\stdclib\memset.asm
                   _3jEnd   0x009aa2    program     static E:\3.46\pic18-lt\cxx-framework\src\traditional\stdclib\memset.asm
                     jEnd   0x009aaa    program     static E:\3.46\pic18-lt\cxx-framework\src\traditional\stdclib\memset.asm
                   strlen   0x009aac    program     extern E:\3.46\pic18-lt\cxx-framework\src\traditional\stdclib\strlen.asm
                    jLoop   0x009abc    program     static E:\3.46\pic18-lt\cxx-framework\src\traditional\stdclib\strlen.asm
                     jEnd   0x009ac6    program     static E:\3.46\pic18-lt\cxx-framework\src\traditional\stdclib\strlen.asm
                strlenpgm   0x009ac8    program     extern E:\3.46\pic18-lt\cxx-framework\src\traditional\stdclib\slenpgm.asm
                    jLoop   0x009ae6    program     static E:\3.46\pic18-lt\cxx-framework\src\traditional\stdclib\slenpgm.asm
                   _2jEnd   0x009afc    program     static E:\3.46\pic18-lt\cxx-framework\src\traditional\stdclib\slenpgm.asm
                     jEnd   0x009afe    program     static E:\3.46\pic18-lt\cxx-framework\src\traditional\stdclib\slenpgm.asm
                   strupr   0x009b12    program     extern E:\3.46\pic18-lt\cxx-framework\src\traditional\stdclib\strupr.asm
                    jLoop   0x009b26    program     static E:\3.46\pic18-lt\cxx-framework\src\traditional\stdclib\strupr.asm
                    jSkip   0x009b36    program     static E:\3.46\pic18-lt\cxx-framework\src\traditional\stdclib\strupr.asm
                     jEnd   0x009b3a    program     static E:\3.46\pic18-lt\cxx-framework\src\traditional\stdclib\strupr.asm
       EUSART1_Initialize   0x009b3c    program     extern C:\GIT-REPOS\Siebwalde\TrackController3.X\eusart1.c
             EUSART1_Read   0x009b76    program     extern C:\GIT-REPOS\Siebwalde\TrackController3.X\eusart1.c
            EUSART1_Write   0x009bca    program     extern C:\GIT-REPOS\Siebwalde\TrackController3.X\eusart1.c
               _user_putc   0x009c22    program     extern C:\GIT-REPOS\Siebwalde\TrackController3.X\eusart1.c
     EUSART1_Transmit_ISR   0x009c3c    program     extern C:\GIT-REPOS\Siebwalde\TrackController3.X\eusart1.c
      EUSART1_Receive_ISR   0x009c82    program     extern C:\GIT-REPOS\Siebwalde\TrackController3.X\eusart1.c
       EUSART2_Initialize   0x009cc6    program     extern C:\GIT-REPOS\Siebwalde\TrackController3.X\eusart2.c
             EUSART2_Read   0x009cfc    program     extern C:\GIT-REPOS\Siebwalde\TrackController3.X\eusart2.c
            EUSART2_Write   0x009d50    program     extern C:\GIT-REPOS\Siebwalde\TrackController3.X\eusart2.c
     EUSART2_Transmit_ISR   0x009da8    program     extern C:\GIT-REPOS\Siebwalde\TrackController3.X\eusart2.c
      EUSART2_Receive_ISR   0x009dee    program     extern C:\GIT-REPOS\Siebwalde\TrackController3.X\eusart2.c
              ICMPProcess   0x009e32    program     extern C:\GIT-REPOS\Siebwalde\TrackController3.X\Microchip\TCPIPStack\ICMP.c
                 TickInit   0x009f7c    program     extern C:\GIT-REPOS\Siebwalde\TrackController3.X\Microchip\TCPIPStack\Tick.c
              GetTickCopy   0x009f8c    program     static C:\GIT-REPOS\Siebwalde\TrackController3.X\Microchip\TCPIPStack\Tick.c
           ___do_lbl00004   0x009f8c    program     static                          
           ___do_lbl00002   0x009faa    program     static                          
           ___do_lbl00003   0x009fae    program     static                          
       ___return_lbl00001   0x009fb0    program     static                          
                  TickGet   0x009fb2    program     extern C:\GIT-REPOS\Siebwalde\TrackController3.X\Microchip\TCPIPStack\Tick.c
            TickGetDiv256   0x009fc8    program     extern C:\GIT-REPOS\Siebwalde\TrackController3.X\Microchip\TCPIPStack\Tick.c
            TickGetDiv64K   0x00a016    program     extern C:\GIT-REPOS\Siebwalde\TrackController3.X\Microchip\TCPIPStack\Tick.c
TickConvertToMilliseconds   0x00a064    program     extern C:\GIT-REPOS\Siebwalde\TrackController3.X\Microchip\TCPIPStack\Tick.c
               TickUpdate   0x00a0ac    program     extern C:\GIT-REPOS\Siebwalde\TrackController3.X\Microchip\TCPIPStack\Tick.c
            EERandomRead2   0x00a0c0    program     extern C:\GIT-REPOS\Siebwalde\TrackController3.X\I2c2\i2c2eerr.c
            EERandomRead1   0x00a1da    program     extern C:\GIT-REPOS\Siebwalde\TrackController3.X\I2c2\i2c1eerr.c
        EESequentialRead2   0x00a2f4    program     extern C:\GIT-REPOS\Siebwalde\TrackController3.X\I2c2\i2c2eesr.c
        EESequentialRead1   0x00a400    program     extern C:\GIT-REPOS\Siebwalde\TrackController3.X\I2c2\i2c1eesr.c
                auchCRCLo   0x00a506    program     extern C:\GIT-REPOS\Siebwalde\TrackController3.X\modbus\PetitModbus.c
                auchCRCHi   0x00a606    program     extern C:\GIT-REPOS\Siebwalde\TrackController3.X\modbus\PetitModbus.c
PetitModBus_UART_Initialise   0x00a706    program     extern C:\GIT-REPOS\Siebwalde\TrackController3.X\modbus\PetitModbusPort.c
PetitModBus_TIMER_Initialise   0x00a70c    program     extern C:\GIT-REPOS\Siebwalde\TrackController3.X\modbus\PetitModbusPort.c
   PetitModBus_UART_Putch   0x00a712    program     extern C:\GIT-REPOS\Siebwalde\TrackController3.X\modbus\PetitModbusPort.c
  PetitModBus_UART_String   0x00a72c    program     extern C:\GIT-REPOS\Siebwalde\TrackController3.X\modbus\PetitModbusPort.c
         ReceiveInterrupt   0x00a7a0    program     extern C:\GIT-REPOS\Siebwalde\TrackController3.X\modbus\PetitModbusPort.c
  PetitModBus_TimerValues   0x00a7e0    program     extern C:\GIT-REPOS\Siebwalde\TrackController3.X\modbus\PetitModbusPort.c
             EEPageWrite2   0x00a7ea    program     extern C:\GIT-REPOS\Siebwalde\TrackController3.X\I2c2\i2c2eepw.c
             EEPageWrite1   0x00a8ae    program     extern C:\GIT-REPOS\Siebwalde\TrackController3.X\I2c2\i2c1eepw.c
             EEByteWrite2   0x00a972    program     extern C:\GIT-REPOS\Siebwalde\TrackController3.X\I2c2\i2c2eebw.c
             EEByteWrite1   0x00aa2e    program     extern C:\GIT-REPOS\Siebwalde\TrackController3.X\I2c2\i2c1eebw.c
        EECurrentAddRead2   0x00aaea    program     extern C:\GIT-REPOS\Siebwalde\TrackController3.X\I2c2\i2c2eecr.c
        EECurrentAddRead1   0x00ab8c    program     extern C:\GIT-REPOS\Siebwalde\TrackController3.X\I2c2\i2c1eecr.c
                _do_cinit   0x00ac2e    program     extern E:\3.46\pic18-lt\cxx-framework\src\traditional\startup\c018i.c
                     test   0x00ac48    program     static                          
                copy_loop   0x00aca0    program     static                          
            copy_one_byte   0x00aca6    program     static                          
             done_copying   0x00acb4    program     static                          
       ___return_lbl00002   0x00acca    program     static                          
                     done   0x00acca    program     static                          
            EEAckPolling2   0x00accc    program     extern C:\GIT-REPOS\Siebwalde\TrackController3.X\I2c2\i2c2eeap.c
            EEAckPolling1   0x00ad66    program     extern C:\GIT-REPOS\Siebwalde\TrackController3.X\I2c2\i2c1eeap.c
                   printf   0x00ae00    program     extern E:\3.46\pic18-lt\cxx-framework\src\traditional\stdclib\printf.c
                 FXM1616U   0x00ae98    program     extern E:\3.46\pic18-lt\cxx-framework\src\traditional\math\fxm1616u.asm
                 FXM1616S   0x00aed4    program     extern E:\3.46\pic18-lt\cxx-framework\src\traditional\math\fxm1616s.asm
               TSIGN1616A   0x00af20    program     static E:\3.46\pic18-lt\cxx-framework\src\traditional\math\fxm1616s.asm
                     putc   0x00af2e    program     extern E:\3.46\pic18-lt\cxx-framework\src\traditional\stdclib\putc.c
                WriteI2C1   0x00afb2    program     extern C:\GIT-REPOS\Siebwalde\TrackController3.X\I2c2\i2c1writ.c
                 putsI2C2   0x00b036    program     extern C:\GIT-REPOS\Siebwalde\TrackController3.X\I2c2\i2c2puts.c
                 putsI2C1   0x00b0b8    program     extern C:\GIT-REPOS\Siebwalde\TrackController3.X\I2c2\i2c1puts.c
                WriteI2C2   0x00b13a    program     extern C:\GIT-REPOS\Siebwalde\TrackController3.X\I2c2\i2c2writ.c
                  FXM3232   0x00b1b8    program     extern E:\3.46\pic18-lt\cxx-framework\src\traditional\math\fxm3232.c
       ___return_lbl00000   0x00b226    program     static                          
                 getsI2C2   0x00b228    program     extern C:\GIT-REPOS\Siebwalde\TrackController3.X\I2c2\i2c2gets.c
                 getsI2C1   0x00b296    program     extern C:\GIT-REPOS\Siebwalde\TrackController3.X\I2c2\i2c1gets.c
                 ReadI2C2   0x00b304    program     extern C:\GIT-REPOS\Siebwalde\TrackController3.X\I2c2\i2c2read.c
                 InitUART   0x00b36c    program     extern C:\GIT-REPOS\Siebwalde\TrackController3.X\modbus\Init.c
                  InitTMR   0x00b39a    program     extern C:\GIT-REPOS\Siebwalde\TrackController3.X\modbus\Init.c
    PetitModbusIntHandler   0x00b3d0    program     extern C:\GIT-REPOS\Siebwalde\TrackController3.X\modbus\Interrupts.c
               __string_0   0x00b430    program     static C:\GIT-REPOS\Siebwalde\TrackController3.X\Microchip\TCPIPStack\Announce.c
               __string_3   0x00b44c    program     static C:\GIT-REPOS\Siebwalde\TrackController3.X\FiddleYard.c
               __string_2   0x00b457    program     static C:\GIT-REPOS\Siebwalde\TrackController3.X\FiddleYard.c
               __string_1   0x00b45f    program     static C:\GIT-REPOS\Siebwalde\TrackController3.X\FiddleYard.c
               __string_0   0x00b461    program     static C:\GIT-REPOS\Siebwalde\TrackController3.X\FiddleYard.c
                 FXD3232U   0x00b47e    program     extern E:\3.46\pic18-lt\cxx-framework\src\traditional\math\fxd3232u.c
                     loop   0x00b48c    program     static                          
                   _false   0x00b4c0    program     static                          
       ___return_lbl00000   0x00b4c4    program     static                          
                 FXD1616U   0x00b4c6    program     extern E:\3.46\pic18-lt\cxx-framework\src\traditional\math\fxd1616u.c
                     loop   0x00b4d0    program     static                          
                  endloop   0x00b4ec    program     static                          
       ___return_lbl00000   0x00b4f0    program     static                          
            __zero_memory   0x00b4f2    program     extern E:\3.46\pic18-lt\cxx-framework\src\traditional\proc\p18f97j60.asm
                   loop_h   0x00b50c    program     static E:\3.46\pic18-lt\cxx-framework\src\traditional\proc\p18f97j60.asm
               zero_block   0x00b50c    program     static E:\3.46\pic18-lt\cxx-framework\src\traditional\proc\p18f97j60.asm
                compare_l   0x00b514    program     static E:\3.46\pic18-lt\cxx-framework\src\traditional\proc\p18f97j60.asm
                   loop_l   0x00b516    program     static E:\3.46\pic18-lt\cxx-framework\src\traditional\proc\p18f97j60.asm
                 OpenI2C2   0x00b51e    program     extern C:\GIT-REPOS\Siebwalde\TrackController3.X\I2c2\i2c2open.c
                 OpenI2C1   0x00b548    program     extern C:\GIT-REPOS\Siebwalde\TrackController3.X\I2c2\i2c1open.c
                 ReadI2C1   0x00b572    program     extern C:\GIT-REPOS\Siebwalde\TrackController3.X\I2c2\i2c1read.c
                  isdigit   0x00b59a    program     extern E:\3.46\pic18-lt\cxx-framework\src\traditional\stdclib\isdigit.asm
                   jMatch   0x00b5ba    program     static E:\3.46\pic18-lt\cxx-framework\src\traditional\stdclib\isdigit.asm
                 jNoMatch   0x00b5bc    program     static E:\3.46\pic18-lt\cxx-framework\src\traditional\stdclib\isdigit.asm
     TCPSocketInitializer   0x00b5be    program     extern C:\GIT-REPOS\Siebwalde\TrackController3.X\TCPIPConfig.h
                 _startup   0x00b5e2    program     extern E:\3.46\pic18-lt\cxx-framework\src\traditional\startup\c018i.c
                     loop   0x00b5f2    program     static                          
       ___return_lbl00001   0x00b5fc    program     static                          
              _usart_putc   0x00b5fe    program     extern E:\3.46\pic18-lt\cxx-framework\src\pmc_common\USART\_usartpc.asm
                     loop   0x00b60e    program     static E:\3.46\pic18-lt\cxx-framework\src\pmc_common\USART\_usartpc.asm
                 IdleI2C2   0x00b61a    program     extern C:\GIT-REPOS\Siebwalde\TrackController3.X\I2c2\i2c2idle.c
                 IdleI2C1   0x00b632    program     extern C:\GIT-REPOS\Siebwalde\TrackController3.X\I2c2\i2c1idle.c
                 s_digits   0x00b64a    program     static E:\3.46\pic18-lt\cxx-framework\src\traditional\stdclib\vfprintf.c
              DataRdyI2C2   0x00b65c    program     extern C:\GIT-REPOS\Siebwalde\TrackController3.X\I2c2\i2c2dtrd.c
              DataRdyI2C1   0x00b66c    program     extern C:\GIT-REPOS\Siebwalde\TrackController3.X\I2c2\i2c1dtrd.c
               NotAckI2C2   0x00b67c    program     extern C:\GIT-REPOS\Siebwalde\TrackController3.X\I2c2\i2c2nack.c
                  AckI2C2   0x00b682    program     extern C:\GIT-REPOS\Siebwalde\TrackController3.X\I2c2\i2c2ack.c
               NotAckI2C1   0x00b688    program     extern C:\GIT-REPOS\Siebwalde\TrackController3.X\I2c2\i2c1nack.c
                  AckI2C1   0x00b68e    program     extern C:\GIT-REPOS\Siebwalde\TrackController3.X\I2c2\i2c1ack.c
                 StopI2C2   0x00b694    program     extern C:\GIT-REPOS\Siebwalde\TrackController3.X\I2c2\i2c2stop.c
              RestartI2C2   0x00b698    program     extern C:\GIT-REPOS\Siebwalde\TrackController3.X\I2c2\i2c2rstr.c
                CloseI2C2   0x00b69c    program     extern C:\GIT-REPOS\Siebwalde\TrackController3.X\I2c2\i2c2clos.c
                StartI2C1   0x00b6a0    program     extern C:\GIT-REPOS\Siebwalde\TrackController3.X\I2c2\i2c1strt.c
                 StopI2C1   0x00b6a4    program     extern C:\GIT-REPOS\Siebwalde\TrackController3.X\I2c2\i2c1stop.c
              RestartI2C1   0x00b6a8    program     extern C:\GIT-REPOS\Siebwalde\TrackController3.X\I2c2\i2c1rstr.c
                CloseI2C1   0x00b6ac    program     extern C:\GIT-REPOS\Siebwalde\TrackController3.X\I2c2\i2c1clos.c
       StatexMachinexInit   0x00b6b0    program     extern C:\GIT-REPOS\Siebwalde\TrackController3.X\State_Machine.c
               __config_0   0x01fff8    program     static C:\GIT-REPOS\Siebwalde\TrackController3.X\FiddleYard.c
               __config_1   0x01fff9    program     static C:\GIT-REPOS\Siebwalde\TrackController3.X\FiddleYard.c
               __config_2   0x01fffa    program     static C:\GIT-REPOS\Siebwalde\TrackController3.X\FiddleYard.c
               __config_3   0x01fffb    program     static C:\GIT-REPOS\Siebwalde\TrackController3.X\FiddleYard.c
               __config_4   0x01fffc    program     static C:\GIT-REPOS\Siebwalde\TrackController3.X\FiddleYard.c
               __config_5   0x01fffd    program     static C:\GIT-REPOS\Siebwalde\TrackController3.X\FiddleYard.c
                     SIGN   0x000000       data     extern E:\3.46\pic18-lt\cxx-framework\src\traditional\math\cmath18.asm
                __FPFLAGS   0x000001       data     extern E:\3.46\pic18-lt\cxx-framework\src\traditional\math\cmath18.asm
            __FPFLAGSbits   0x000001       data     extern E:\3.46\pic18-lt\cxx-framework\src\traditional\math\cmath18.asm
                 __AARGB7   0x000002       data     extern E:\3.46\pic18-lt\cxx-framework\src\traditional\math\aarg.asm
                  __REMB3   0x000002       data     extern E:\3.46\pic18-lt\cxx-framework\src\traditional\math\aarg.asm
                  __REMB2   0x000003       data     extern E:\3.46\pic18-lt\cxx-framework\src\traditional\math\aarg.asm
                 __AARGB6   0x000003       data     extern E:\3.46\pic18-lt\cxx-framework\src\traditional\math\aarg.asm
                  __REMB1   0x000004       data     extern E:\3.46\pic18-lt\cxx-framework\src\traditional\math\aarg.asm
                 __AARGB5   0x000004       data     extern E:\3.46\pic18-lt\cxx-framework\src\traditional\math\aarg.asm
                 __AARGB4   0x000005       data     extern E:\3.46\pic18-lt\cxx-framework\src\traditional\math\aarg.asm
                  __REMB0   0x000005       data     extern E:\3.46\pic18-lt\cxx-framework\src\traditional\math\aarg.asm
                 __AARGB3   0x000006       data     extern E:\3.46\pic18-lt\cxx-framework\src\traditional\math\aarg.asm
                 __AARGB2   0x000007       data     extern E:\3.46\pic18-lt\cxx-framework\src\traditional\math\aarg.asm
                 __AARGB1   0x000008       data     extern E:\3.46\pic18-lt\cxx-framework\src\traditional\math\aarg.asm
                 __AARGB0   0x000009       data     extern E:\3.46\pic18-lt\cxx-framework\src\traditional\math\aarg.asm
                   __AEXP   0x00000a       data     extern E:\3.46\pic18-lt\cxx-framework\src\traditional\math\aarg.asm
                 __BARGB3   0x00000b       data     extern E:\3.46\pic18-lt\cxx-framework\src\traditional\math\barg.asm
                 __BARGB2   0x00000c       data     extern E:\3.46\pic18-lt\cxx-framework\src\traditional\math\barg.asm
                 __BARGB1   0x00000d       data     extern E:\3.46\pic18-lt\cxx-framework\src\traditional\math\barg.asm
                 __BARGB0   0x00000e       data     extern E:\3.46\pic18-lt\cxx-framework\src\traditional\math\barg.asm
                   __BEXP   0x00000f       data     extern E:\3.46\pic18-lt\cxx-framework\src\traditional\math\barg.asm
                 __TEMPB3   0x000010       data     extern E:\3.46\pic18-lt\cxx-framework\src\traditional\math\temparg.asm
                 __TEMPB2   0x000011       data     extern E:\3.46\pic18-lt\cxx-framework\src\traditional\math\temparg.asm
                 __TEMPB1   0x000012       data     extern E:\3.46\pic18-lt\cxx-framework\src\traditional\math\temparg.asm
                 __TEMPB0   0x000013       data     extern E:\3.46\pic18-lt\cxx-framework\src\traditional\math\temparg.asm
                   __TEMP   0x000013       data     extern E:\3.46\pic18-lt\cxx-framework\src\traditional\math\temparg.asm
                  __tmp_0   0x000014       data     static E:\3.46\pic18-lt\cxx-framework\src\traditional\stdclib\putc.c
                  __tmp_0   0x000014       data     static C:\GIT-REPOS\Siebwalde\TrackController3.X\Microchip\TCPIPStack\UDP.c
                  __tmp_0   0x000014       data     static C:\GIT-REPOS\Siebwalde\TrackController3.X\I2c2\i2c2eepw.c
                  __tmp_0   0x000014       data     static E:\3.46\pic18-lt\cxx-framework\src\traditional\stdclib\vfprintf.c
                  __tmp_0   0x000014       data     static E:\3.46\pic18-lt\cxx-framework\src\traditional\stdclib\printf.c
                  __tmp_0   0x000014       data     static C:\GIT-REPOS\Siebwalde\TrackController3.X\I2c2\i2c2eecr.c
                  __tmp_0   0x000014       data     static C:\GIT-REPOS\Siebwalde\TrackController3.X\I2c2\i2c2eebw.c
                  __tmp_0   0x000014       data     static C:\GIT-REPOS\Siebwalde\TrackController3.X\I2c2\i2c2eeap.c
                  __tmp_0   0x000014       data     static C:\GIT-REPOS\Siebwalde\TrackController3.X\eusart2.c
                  __tmp_0   0x000014       data     static C:\GIT-REPOS\Siebwalde\TrackController3.X\eusart1.c
                  __tmp_0   0x000014       data     static C:\GIT-REPOS\Siebwalde\TrackController3.X\Microchip\Common\TimeDelay.c
                  __tmp_0   0x000014       data     static C:\GIT-REPOS\Siebwalde\TrackController3.X\I2c2\i2c2writ.c
                  __tmp_0   0x000014       data     static C:\GIT-REPOS\Siebwalde\TrackController3.X\I2c2\i2c2read.c
                  __tmp_0   0x000014       data     static C:\GIT-REPOS\Siebwalde\TrackController3.X\I2c2\i2c1writ.c
                  __tmp_0   0x000014       data     static C:\GIT-REPOS\Siebwalde\TrackController3.X\I2c2\i2c2idle.c
                  __tmp_0   0x000014       data     static C:\GIT-REPOS\Siebwalde\TrackController3.X\Microchip\PIC18Salloc\salloc.c
                  __tmp_0   0x000014       data     static C:\GIT-REPOS\Siebwalde\TrackController3.X\Microchip\TCPIPStack\Announce.c
                  __tmp_0   0x000014       data     static C:\GIT-REPOS\Siebwalde\TrackController3.X\I2c2\i2c1read.c
                  __tmp_0   0x000014       data     static C:\GIT-REPOS\Siebwalde\TrackController3.X\Microchip\TCPIPStack\ARP.c
                  __tmp_0   0x000014       data     static C:\GIT-REPOS\Siebwalde\TrackController3.X\Microchip\TCPIPStack\DHCP.c
                  __tmp_0   0x000014       data     static C:\GIT-REPOS\Siebwalde\TrackController3.X\I2c2\i2c1idle.c
                  __tmp_0   0x000014       data     static C:\GIT-REPOS\Siebwalde\TrackController3.X\Microchip\TCPIPStack\ETH97J60.c
                  __tmp_0   0x000014       data     static C:\GIT-REPOS\Siebwalde\TrackController3.X\I2c2\i2c1eesr.c
                  __tmp_0   0x000014       data     static C:\GIT-REPOS\Siebwalde\TrackController3.X\Microchip\TCPIPStack\Helpers.c
                  __tmp_0   0x000014       data     static C:\GIT-REPOS\Siebwalde\TrackController3.X\Microchip\TCPIPStack\ICMP.c
                  __tmp_0   0x000014       data     static C:\GIT-REPOS\Siebwalde\TrackController3.X\Microchip\TCPIPStack\IP.c
                  __tmp_0   0x000014       data     static C:\GIT-REPOS\Siebwalde\TrackController3.X\I2c2\i2c1eerr.c
                  __tmp_0   0x000014       data     static C:\GIT-REPOS\Siebwalde\TrackController3.X\Microchip\TCPIPStack\NBNS.c
                  __tmp_0   0x000014       data     static C:\GIT-REPOS\Siebwalde\TrackController3.X\I2c2\i2c1eepw.c
                  __tmp_0   0x000014       data     static C:\GIT-REPOS\Siebwalde\TrackController3.X\I2c2\i2c1eecr.c
                  __tmp_0   0x000014       data     static C:\GIT-REPOS\Siebwalde\TrackController3.X\I2c2\i2c2eesr.c
                  __tmp_0   0x000014       data     static C:\GIT-REPOS\Siebwalde\TrackController3.X\Microchip\TCPIPStack\StackTsk.c
                  __tmp_0   0x000014       data     static C:\GIT-REPOS\Siebwalde\TrackController3.X\I2c2\i2c2eerr.c
                  __tmp_0   0x000014       data     static C:\GIT-REPOS\Siebwalde\TrackController3.X\I2c2\i2c1eebw.c
                  __tmp_0   0x000014       data     static C:\GIT-REPOS\Siebwalde\TrackController3.X\I2c2\i2c1eeap.c
                  __tmp_0   0x000014       data     static C:\GIT-REPOS\Siebwalde\TrackController3.X\modbus\PetitModbusPort.c
                  __tmp_0   0x000014       data     static C:\GIT-REPOS\Siebwalde\TrackController3.X\modbus\PetitModbus.c
                  __tmp_0   0x000014       data     static C:\GIT-REPOS\Siebwalde\TrackController3.X\Command_Machine.c
                  __tmp_0   0x000014       data     static C:\GIT-REPOS\Siebwalde\TrackController3.X\Diagnostic_ret.c
                  __tmp_0   0x000014       data     static C:\GIT-REPOS\Siebwalde\TrackController3.X\FiddleYard.c
                  __tmp_0   0x000014       data     static C:\GIT-REPOS\Siebwalde\TrackController3.X\Var_Out.c
          eusart2TxBuffer   0x000060       data     static C:\GIT-REPOS\Siebwalde\TrackController3.X\eusart2.c
 eusart2TxBufferRemaining   0x000074       data     extern C:\GIT-REPOS\Siebwalde\TrackController3.X\eusart2.c
          eusart2RxBuffer   0x000075       data     static C:\GIT-REPOS\Siebwalde\TrackController3.X\eusart2.c
           eusart2RxCount   0x0000f3       data     extern C:\GIT-REPOS\Siebwalde\TrackController3.X\eusart2.c
                  smStack   0x0000f4       data     static C:\GIT-REPOS\Siebwalde\TrackController3.X\Microchip\TCPIPStack\StackTsk.c
               remoteNode   0x0000f5       data     extern C:\GIT-REPOS\Siebwalde\TrackController3.X\Microchip\TCPIPStack\StackTsk.c
              tblptru_sav   0x0000ff       data     static E:\3.46\pic18-lt\cxx-framework\src\traditional\stdclib\mcpyp2r.asm
            _uDynamicHeap   0x000100       data     extern C:\GIT-REPOS\Siebwalde\TrackController3.X\Microchip\PIC18Salloc\salloc.c
          eusart1TxBuffer   0x000200       data     static C:\GIT-REPOS\Siebwalde\TrackController3.X\eusart1.c
 eusart1TxBufferRemaining   0x000214       data     extern C:\GIT-REPOS\Siebwalde\TrackController3.X\eusart1.c
          eusart1RxBuffer   0x000215       data     static C:\GIT-REPOS\Siebwalde\TrackController3.X\eusart1.c
           eusart1RxCount   0x000293       data     extern C:\GIT-REPOS\Siebwalde\TrackController3.X\eusart1.c
            Petit_Tx_Data   0x000294       data     extern C:\GIT-REPOS\Siebwalde\TrackController3.X\modbus\PetitModbus.c
             Petit_Tx_Buf   0x0002b0       data     extern C:\GIT-REPOS\Siebwalde\TrackController3.X\modbus\PetitModbus.c
            Petit_Rx_Data   0x0002c8       data     extern C:\GIT-REPOS\Siebwalde\TrackController3.X\modbus\PetitModbus.c
               DHCPClient   0x0002e4       data     static C:\GIT-REPOS\Siebwalde\TrackController3.X\Microchip\TCPIPStack\DHCP.c
                SlaveInfo   0x000300       data     static C:\GIT-REPOS\Siebwalde\TrackController3.X\FiddleYard.c
                AppConfig   0x000350       data     extern C:\GIT-REPOS\Siebwalde\TrackController3.X\FiddleYard.c
                AN0String   0x000383       data     extern C:\GIT-REPOS\Siebwalde\TrackController3.X\FiddleYard.c
               TestTarget   0x00038b       data     static C:\GIT-REPOS\Siebwalde\TrackController3.X\Diagnostic_ret.c
                Comm_List   0x000395       data     static C:\GIT-REPOS\Siebwalde\TrackController3.X\Diagnostic_ret.c
               Pcomm_List   0x0003b5       data     static C:\GIT-REPOS\Siebwalde\TrackController3.X\Diagnostic_ret.c
              Pcomm_List2   0x0003b7       data     static C:\GIT-REPOS\Siebwalde\TrackController3.X\Diagnostic_ret.c
               VAR_OUT_FY   0x0003b9       data     static C:\GIT-REPOS\Siebwalde\TrackController3.X\Var_Out.c
       PetitReceiveBuffer   0x0003e7       data     extern C:\GIT-REPOS\Siebwalde\TrackController3.X\modbus\PetitModbusPort.c
                 MySocket   0x0003ff       data     static C:\GIT-REPOS\Siebwalde\TrackController3.X\Microchip\TCPIPStack\NBNS.c
             vTickReading   0x000400       data     static C:\GIT-REPOS\Siebwalde\TrackController3.X\Microchip\TCPIPStack\Tick.c
                  timeout   0x000406       data     extern C:\GIT-REPOS\Siebwalde\TrackController3.X\I2c2\i2c2read.c
                  _return   0x00040a       data     extern C:\GIT-REPOS\Siebwalde\TrackController3.X\I2c2\i2c2read.c
            eusart2TxHead   0x00040c       data     static C:\GIT-REPOS\Siebwalde\TrackController3.X\eusart2.c
            eusart2TxTail   0x00040d       data     static C:\GIT-REPOS\Siebwalde\TrackController3.X\eusart2.c
            eusart2RxHead   0x00040e       data     static C:\GIT-REPOS\Siebwalde\TrackController3.X\eusart2.c
            eusart2RxTail   0x00040f       data     static C:\GIT-REPOS\Siebwalde\TrackController3.X\eusart2.c
            eusart1TxHead   0x000410       data     static C:\GIT-REPOS\Siebwalde\TrackController3.X\eusart1.c
            eusart1TxTail   0x000411       data     static C:\GIT-REPOS\Siebwalde\TrackController3.X\eusart1.c
            eusart1RxHead   0x000412       data     static C:\GIT-REPOS\Siebwalde\TrackController3.X\eusart1.c
            eusart1RxTail   0x000413       data     static C:\GIT-REPOS\Siebwalde\TrackController3.X\eusart1.c
          dwInternalTicks   0x000414       data     static C:\GIT-REPOS\Siebwalde\TrackController3.X\Microchip\TCPIPStack\Tick.c
           dwLFSRRandSeed   0x000418       data     static C:\GIT-REPOS\Siebwalde\TrackController3.X\Microchip\TCPIPStack\Helpers.c
             Send_Var_Out   0x00041c       data     static C:\GIT-REPOS\Siebwalde\TrackController3.X\Var_Out.c
                      Cmd   0x00041f       data     static C:\GIT-REPOS\Siebwalde\TrackController3.X\Command_Machine.c
      Timer1_Tick_Counter   0x000422       data     extern C:\GIT-REPOS\Siebwalde\TrackController3.X\modbus\General.c
                   stdout   0x000424       data     extern E:\3.46\pic18-lt\cxx-framework\src\traditional\stdclib\stdout.c
            LastPutSocket   0x000426       data     static C:\GIT-REPOS\Siebwalde\TrackController3.X\Microchip\TCPIPStack\UDP.c
         SocketWithRxData   0x000427       data     static C:\GIT-REPOS\Siebwalde\TrackController3.X\Microchip\TCPIPStack\UDP.c
              _Identifier   0x000428       data     static C:\GIT-REPOS\Siebwalde\TrackController3.X\Microchip\TCPIPStack\IP.c
                 MySocket   0x00042a       data     static C:\GIT-REPOS\Siebwalde\TrackController3.X\Microchip\TCPIPStack\Announce.c
           bLastLinkState   0x00042b       data     static C:\GIT-REPOS\Siebwalde\TrackController3.X\Microchip\TCPIPStack\StackTsk.c
      PetitReceiveCounter   0x00042c       data     extern C:\GIT-REPOS\Siebwalde\TrackController3.X\modbus\PetitModbusPort.c
                   smNBNS   0x00042d       data     static C:\GIT-REPOS\Siebwalde\TrackController3.X\Microchip\TCPIPStack\NBNS.c
DHCPClientInitializedOnce   0x00042e       data     extern C:\GIT-REPOS\Siebwalde\TrackController3.X\Microchip\TCPIPStack\DHCP.c
              DiscoverySM   0x00042f       data     static C:\GIT-REPOS\Siebwalde\TrackController3.X\Microchip\TCPIPStack\Announce.c
                    smARP   0x000430       data     static C:\GIT-REPOS\Siebwalde\TrackController3.X\Microchip\TCPIPStack\ARP.c
             PLATFORMS_IO   0x000e00       data     static C:\GIT-REPOS\Siebwalde\TrackController3.X\Shift_Register.c
                  socket2   0x000e2c       data     static C:\GIT-REPOS\Siebwalde\TrackController3.X\Command_Machine.c
          Cmd_Read_Switch   0x000e2d       data     static C:\GIT-REPOS\Siebwalde\TrackController3.X\Command_Machine.c
                  Exe_Cmd   0x000e2e       data     static C:\GIT-REPOS\Siebwalde\TrackController3.X\Command_Machine.c
            Exe_Cmd_Ret_1   0x000e30       data     static C:\GIT-REPOS\Siebwalde\TrackController3.X\Command_Machine.c
          SuccesFull_Read   0x000e31       data     static C:\GIT-REPOS\Siebwalde\TrackController3.X\Command_Machine.c
                    MACPC   0x000e32       data     extern C:\GIT-REPOS\Siebwalde\TrackController3.X\Command_Machine.c
                     IPPC   0x000e38       data     extern C:\GIT-REPOS\Siebwalde\TrackController3.X\Command_Machine.c
                   PORTPC   0x000e3c       data     extern C:\GIT-REPOS\Siebwalde\TrackController3.X\Command_Machine.c
             MAC_IP_READY   0x000e3e       data     extern C:\GIT-REPOS\Siebwalde\TrackController3.X\Command_Machine.c
                  dwTimer   0x000e3f       data     static C:\GIT-REPOS\Siebwalde\TrackController3.X\Command_Machine.c
                    Cache   0x000e43       data     static C:\GIT-REPOS\Siebwalde\TrackController3.X\Microchip\TCPIPStack\ARP.c
                   Target   0x000e4d       data     static C:\GIT-REPOS\Siebwalde\TrackController3.X\Microchip\TCPIPStack\ARP.c
        MASTER_SLAVE_DATA   0x000e57       data     static C:\GIT-REPOS\Siebwalde\TrackController3.X\modbus\PetitModbus.c
         Petit_Tx_Current   0x000e59       data     extern C:\GIT-REPOS\Siebwalde\TrackController3.X\modbus\PetitModbus.c
           Petit_Tx_CRC16   0x000e5b       data     extern C:\GIT-REPOS\Siebwalde\TrackController3.X\modbus\PetitModbus.c
           Petit_Tx_State   0x000e5d       data     extern C:\GIT-REPOS\Siebwalde\TrackController3.X\modbus\PetitModbus.c
        Petit_Tx_Buf_Size   0x000e5e       data     extern C:\GIT-REPOS\Siebwalde\TrackController3.X\modbus\PetitModbus.c
           Petit_Rx_CRC16   0x000e60       data     extern C:\GIT-REPOS\Siebwalde\TrackController3.X\modbus\PetitModbus.c
           Petit_Rx_State   0x000e62       data     extern C:\GIT-REPOS\Siebwalde\TrackController3.X\modbus\PetitModbus.c
  Petit_Rx_Data_Available   0x000e63       data     extern C:\GIT-REPOS\Siebwalde\TrackController3.X\modbus\PetitModbus.c
    PetitModbusTimerValue   0x000e64       data     extern C:\GIT-REPOS\Siebwalde\TrackController3.X\modbus\PetitModbus.c
SlaveAnswerTimeoutCounter   0x000e66       data     extern C:\GIT-REPOS\Siebwalde\TrackController3.X\modbus\PetitModbus.c
                 dwLastIP   0x000e68       data     static C:\GIT-REPOS\Siebwalde\TrackController3.X\FiddleYard.c
Enable_State_Machine_Update   0x000e6c       data     extern C:\GIT-REPOS\Siebwalde\TrackController3.X\FiddleYard.c
                    temp3   0x000e6d       data     extern C:\GIT-REPOS\Siebwalde\TrackController3.X\FiddleYard.c
       NextPacketLocation   0x000e71       data     static C:\GIT-REPOS\Siebwalde\TrackController3.X\Microchip\TCPIPStack\ETH97J60.c
    CurrentPacketLocation   0x000e73       data     static C:\GIT-REPOS\Siebwalde\TrackController3.X\Microchip\TCPIPStack\ETH97J60.c
                    flags   0x000e75       data     static C:\GIT-REPOS\Siebwalde\TrackController3.X\Microchip\TCPIPStack\ETH97J60.c
              wTXWatchdog   0x000e76       data     static C:\GIT-REPOS\Siebwalde\TrackController3.X\Microchip\TCPIPStack\ETH97J60.c
                  socket1   0x000e78       data     static C:\GIT-REPOS\Siebwalde\TrackController3.X\Diagnostic_ret.c
                Diag_Comm   0x000e79       data     static C:\GIT-REPOS\Siebwalde\TrackController3.X\Diagnostic_ret.c
               Diag_Comm2   0x000e7a       data     static C:\GIT-REPOS\Siebwalde\TrackController3.X\Diagnostic_ret.c
                  dwTimer   0x000e7b       data     static C:\GIT-REPOS\Siebwalde\TrackController3.X\Diagnostic_ret.c
              IPHeaderLen   0x000e7f       data     static C:\GIT-REPOS\Siebwalde\TrackController3.X\Microchip\TCPIPStack\IP.c
                   MAADR5   0x000e80       data     extern E:\3.46\pic18-lt\cxx-framework\src\traditional\proc\p18f97j60.asm
                   MAADR6   0x000e81       data     extern E:\3.46\pic18-lt\cxx-framework\src\traditional\proc\p18f97j60.asm
                   MAADR3   0x000e82       data     extern E:\3.46\pic18-lt\cxx-framework\src\traditional\proc\p18f97j60.asm
                   MAADR4   0x000e83       data     extern E:\3.46\pic18-lt\cxx-framework\src\traditional\proc\p18f97j60.asm
                   MAADR1   0x000e84       data     extern E:\3.46\pic18-lt\cxx-framework\src\traditional\proc\p18f97j60.asm
                   MAADR2   0x000e85       data     extern E:\3.46\pic18-lt\cxx-framework\src\traditional\proc\p18f97j60.asm
               MISTATbits   0x000e8a       data     extern E:\3.46\pic18-lt\cxx-framework\src\traditional\proc\p18f97j60.asm
                   MISTAT   0x000e8a       data     extern E:\3.46\pic18-lt\cxx-framework\src\traditional\proc\p18f97j60.asm
                  EFLOCON   0x000e97       data     extern E:\3.46\pic18-lt\cxx-framework\src\traditional\proc\p18f97j60.asm
              EFLOCONbits   0x000e97       data     extern E:\3.46\pic18-lt\cxx-framework\src\traditional\proc\p18f97j60.asm
                    EPAUS   0x000e98       data     extern E:\3.46\pic18-lt\cxx-framework\src\traditional\proc\p18f97j60.asm
                   EPAUSL   0x000e98       data     extern E:\3.46\pic18-lt\cxx-framework\src\traditional\proc\p18f97j60.asm
                   EPAUSH   0x000e99       data     extern E:\3.46\pic18-lt\cxx-framework\src\traditional\proc\p18f97j60.asm
                   MACON1   0x000ea0       data     extern E:\3.46\pic18-lt\cxx-framework\src\traditional\proc\p18f97j60.asm
               MACON1bits   0x000ea0       data     extern E:\3.46\pic18-lt\cxx-framework\src\traditional\proc\p18f97j60.asm
                   MACON3   0x000ea2       data     extern E:\3.46\pic18-lt\cxx-framework\src\traditional\proc\p18f97j60.asm
               MACON3bits   0x000ea2       data     extern E:\3.46\pic18-lt\cxx-framework\src\traditional\proc\p18f97j60.asm
                   MACON4   0x000ea3       data     extern E:\3.46\pic18-lt\cxx-framework\src\traditional\proc\p18f97j60.asm
               MACON4bits   0x000ea3       data     extern E:\3.46\pic18-lt\cxx-framework\src\traditional\proc\p18f97j60.asm
                  MABBIPG   0x000ea4       data     extern E:\3.46\pic18-lt\cxx-framework\src\traditional\proc\p18f97j60.asm
              MABBIPGbits   0x000ea4       data     extern E:\3.46\pic18-lt\cxx-framework\src\traditional\proc\p18f97j60.asm
                   MAIPGL   0x000ea6       data     extern E:\3.46\pic18-lt\cxx-framework\src\traditional\proc\p18f97j60.asm
                    MAIPG   0x000ea6       data     extern E:\3.46\pic18-lt\cxx-framework\src\traditional\proc\p18f97j60.asm
                   MAIPGH   0x000ea7       data     extern E:\3.46\pic18-lt\cxx-framework\src\traditional\proc\p18f97j60.asm
                   MAMXFL   0x000eaa       data     extern E:\3.46\pic18-lt\cxx-framework\src\traditional\proc\p18f97j60.asm
                  MAMXFLL   0x000eaa       data     extern E:\3.46\pic18-lt\cxx-framework\src\traditional\proc\p18f97j60.asm
                  MAMXFLH   0x000eab       data     extern E:\3.46\pic18-lt\cxx-framework\src\traditional\proc\p18f97j60.asm
                    MICMD   0x000eb2       data     extern E:\3.46\pic18-lt\cxx-framework\src\traditional\proc\p18f97j60.asm
                MICMDbits   0x000eb2       data     extern E:\3.46\pic18-lt\cxx-framework\src\traditional\proc\p18f97j60.asm
                 MIREGADR   0x000eb4       data     extern E:\3.46\pic18-lt\cxx-framework\src\traditional\proc\p18f97j60.asm
                    MIWRL   0x000eb6       data     extern E:\3.46\pic18-lt\cxx-framework\src\traditional\proc\p18f97j60.asm
                     MIWR   0x000eb6       data     extern E:\3.46\pic18-lt\cxx-framework\src\traditional\proc\p18f97j60.asm
                    MIWRH   0x000eb7       data     extern E:\3.46\pic18-lt\cxx-framework\src\traditional\proc\p18f97j60.asm
                     MIRD   0x000eb8       data     extern E:\3.46\pic18-lt\cxx-framework\src\traditional\proc\p18f97j60.asm
                    MIRDL   0x000eb8       data     extern E:\3.46\pic18-lt\cxx-framework\src\traditional\proc\p18f97j60.asm
                    MIRDH   0x000eb9       data     extern E:\3.46\pic18-lt\cxx-framework\src\traditional\proc\p18f97j60.asm
                     EHT0   0x000ec0       data     extern E:\3.46\pic18-lt\cxx-framework\src\traditional\proc\p18f97j60.asm
                     EHT1   0x000ec1       data     extern E:\3.46\pic18-lt\cxx-framework\src\traditional\proc\p18f97j60.asm
                     EHT2   0x000ec2       data     extern E:\3.46\pic18-lt\cxx-framework\src\traditional\proc\p18f97j60.asm
                     EHT3   0x000ec3       data     extern E:\3.46\pic18-lt\cxx-framework\src\traditional\proc\p18f97j60.asm
                     EHT4   0x000ec4       data     extern E:\3.46\pic18-lt\cxx-framework\src\traditional\proc\p18f97j60.asm
                     EHT5   0x000ec5       data     extern E:\3.46\pic18-lt\cxx-framework\src\traditional\proc\p18f97j60.asm
                     EHT6   0x000ec6       data     extern E:\3.46\pic18-lt\cxx-framework\src\traditional\proc\p18f97j60.asm
                     EHT7   0x000ec7       data     extern E:\3.46\pic18-lt\cxx-framework\src\traditional\proc\p18f97j60.asm
                    EPMM0   0x000ec8       data     extern E:\3.46\pic18-lt\cxx-framework\src\traditional\proc\p18f97j60.asm
                    EPMM1   0x000ec9       data     extern E:\3.46\pic18-lt\cxx-framework\src\traditional\proc\p18f97j60.asm
                    EPMM2   0x000eca       data     extern E:\3.46\pic18-lt\cxx-framework\src\traditional\proc\p18f97j60.asm
                    EPMM3   0x000ecb       data     extern E:\3.46\pic18-lt\cxx-framework\src\traditional\proc\p18f97j60.asm
                    EPMM4   0x000ecc       data     extern E:\3.46\pic18-lt\cxx-framework\src\traditional\proc\p18f97j60.asm
                    EPMM5   0x000ecd       data     extern E:\3.46\pic18-lt\cxx-framework\src\traditional\proc\p18f97j60.asm
                    EPMM6   0x000ece       data     extern E:\3.46\pic18-lt\cxx-framework\src\traditional\proc\p18f97j60.asm
                    EPMM7   0x000ecf       data     extern E:\3.46\pic18-lt\cxx-framework\src\traditional\proc\p18f97j60.asm
                    EPMCS   0x000ed0       data     extern E:\3.46\pic18-lt\cxx-framework\src\traditional\proc\p18f97j60.asm
                   EPMCSL   0x000ed0       data     extern E:\3.46\pic18-lt\cxx-framework\src\traditional\proc\p18f97j60.asm
                   EPMCSH   0x000ed1       data     extern E:\3.46\pic18-lt\cxx-framework\src\traditional\proc\p18f97j60.asm
                     EPMO   0x000ed4       data     extern E:\3.46\pic18-lt\cxx-framework\src\traditional\proc\p18f97j60.asm
                    EPMOL   0x000ed4       data     extern E:\3.46\pic18-lt\cxx-framework\src\traditional\proc\p18f97j60.asm
                    EPMOH   0x000ed5       data     extern E:\3.46\pic18-lt\cxx-framework\src\traditional\proc\p18f97j60.asm
                  ERXFCON   0x000ed8       data     extern E:\3.46\pic18-lt\cxx-framework\src\traditional\proc\p18f97j60.asm
              ERXFCONbits   0x000ed8       data     extern E:\3.46\pic18-lt\cxx-framework\src\traditional\proc\p18f97j60.asm
                  EPKTCNT   0x000ed9       data     extern E:\3.46\pic18-lt\cxx-framework\src\traditional\proc\p18f97j60.asm
                   EWRPTL   0x000ee2       data     extern E:\3.46\pic18-lt\cxx-framework\src\traditional\proc\p18f97j60.asm
                    EWRPT   0x000ee2       data     extern E:\3.46\pic18-lt\cxx-framework\src\traditional\proc\p18f97j60.asm
                   EWRPTH   0x000ee3       data     extern E:\3.46\pic18-lt\cxx-framework\src\traditional\proc\p18f97j60.asm
                    ETXST   0x000ee4       data     extern E:\3.46\pic18-lt\cxx-framework\src\traditional\proc\p18f97j60.asm
                   ETXSTL   0x000ee4       data     extern E:\3.46\pic18-lt\cxx-framework\src\traditional\proc\p18f97j60.asm
                   ETXSTH   0x000ee5       data     extern E:\3.46\pic18-lt\cxx-framework\src\traditional\proc\p18f97j60.asm
                    ETXND   0x000ee6       data     extern E:\3.46\pic18-lt\cxx-framework\src\traditional\proc\p18f97j60.asm
                   ETXNDL   0x000ee6       data     extern E:\3.46\pic18-lt\cxx-framework\src\traditional\proc\p18f97j60.asm
                   ETXNDH   0x000ee7       data     extern E:\3.46\pic18-lt\cxx-framework\src\traditional\proc\p18f97j60.asm
                   ERXSTL   0x000ee8       data     extern E:\3.46\pic18-lt\cxx-framework\src\traditional\proc\p18f97j60.asm
                    ERXST   0x000ee8       data     extern E:\3.46\pic18-lt\cxx-framework\src\traditional\proc\p18f97j60.asm
                   ERXSTH   0x000ee9       data     extern E:\3.46\pic18-lt\cxx-framework\src\traditional\proc\p18f97j60.asm
                    ERXND   0x000eea       data     extern E:\3.46\pic18-lt\cxx-framework\src\traditional\proc\p18f97j60.asm
                   ERXNDL   0x000eea       data     extern E:\3.46\pic18-lt\cxx-framework\src\traditional\proc\p18f97j60.asm
                   ERXNDH   0x000eeb       data     extern E:\3.46\pic18-lt\cxx-framework\src\traditional\proc\p18f97j60.asm
                 ERXRDPTL   0x000eec       data     extern E:\3.46\pic18-lt\cxx-framework\src\traditional\proc\p18f97j60.asm
                  ERXRDPT   0x000eec       data     extern E:\3.46\pic18-lt\cxx-framework\src\traditional\proc\p18f97j60.asm
                 ERXRDPTH   0x000eed       data     extern E:\3.46\pic18-lt\cxx-framework\src\traditional\proc\p18f97j60.asm
                 ERXWRPTL   0x000eee       data     extern E:\3.46\pic18-lt\cxx-framework\src\traditional\proc\p18f97j60.asm
                  ERXWRPT   0x000eee       data     extern E:\3.46\pic18-lt\cxx-framework\src\traditional\proc\p18f97j60.asm
                 ERXWRPTH   0x000eef       data     extern E:\3.46\pic18-lt\cxx-framework\src\traditional\proc\p18f97j60.asm
                  EDMASTL   0x000ef0       data     extern E:\3.46\pic18-lt\cxx-framework\src\traditional\proc\p18f97j60.asm
                   EDMAST   0x000ef0       data     extern E:\3.46\pic18-lt\cxx-framework\src\traditional\proc\p18f97j60.asm
                  EDMASTH   0x000ef1       data     extern E:\3.46\pic18-lt\cxx-framework\src\traditional\proc\p18f97j60.asm
                   EDMAND   0x000ef2       data     extern E:\3.46\pic18-lt\cxx-framework\src\traditional\proc\p18f97j60.asm
                  EDMANDL   0x000ef2       data     extern E:\3.46\pic18-lt\cxx-framework\src\traditional\proc\p18f97j60.asm
                  EDMANDH   0x000ef3       data     extern E:\3.46\pic18-lt\cxx-framework\src\traditional\proc\p18f97j60.asm
                 EDMADSTL   0x000ef4       data     extern E:\3.46\pic18-lt\cxx-framework\src\traditional\proc\p18f97j60.asm
                  EDMADST   0x000ef4       data     extern E:\3.46\pic18-lt\cxx-framework\src\traditional\proc\p18f97j60.asm
                 EDMADSTH   0x000ef5       data     extern E:\3.46\pic18-lt\cxx-framework\src\traditional\proc\p18f97j60.asm
                   EDMACS   0x000ef6       data     extern E:\3.46\pic18-lt\cxx-framework\src\traditional\proc\p18f97j60.asm
                  EDMACSL   0x000ef6       data     extern E:\3.46\pic18-lt\cxx-framework\src\traditional\proc\p18f97j60.asm
                  EDMACSH   0x000ef7       data     extern E:\3.46\pic18-lt\cxx-framework\src\traditional\proc\p18f97j60.asm
                  EIEbits   0x000efb       data     extern E:\3.46\pic18-lt\cxx-framework\src\traditional\proc\p18f97j60.asm
                      EIE   0x000efb       data     extern E:\3.46\pic18-lt\cxx-framework\src\traditional\proc\p18f97j60.asm
                    ESTAT   0x000efd       data     extern E:\3.46\pic18-lt\cxx-framework\src\traditional\proc\p18f97j60.asm
                ESTATbits   0x000efd       data     extern E:\3.46\pic18-lt\cxx-framework\src\traditional\proc\p18f97j60.asm
                    ECON2   0x000efe       data     extern E:\3.46\pic18-lt\cxx-framework\src\traditional\proc\p18f97j60.asm
                ECON2bits   0x000efe       data     extern E:\3.46\pic18-lt\cxx-framework\src\traditional\proc\p18f97j60.asm
            UDPSocketInfo   0x000f00       data     extern C:\GIT-REPOS\Siebwalde\TrackController3.X\Microchip\TCPIPStack\UDP.c
          activeUDPSocket   0x000f46       data     extern C:\GIT-REPOS\Siebwalde\TrackController3.X\Microchip\TCPIPStack\UDP.c
               UDPTxCount   0x000f47       data     extern C:\GIT-REPOS\Siebwalde\TrackController3.X\Microchip\TCPIPStack\UDP.c
               UDPRxCount   0x000f49       data     extern C:\GIT-REPOS\Siebwalde\TrackController3.X\Microchip\TCPIPStack\UDP.c
               wPutOffset   0x000f4b       data     static C:\GIT-REPOS\Siebwalde\TrackController3.X\Microchip\TCPIPStack\UDP.c
               wGetOffset   0x000f4d       data     static C:\GIT-REPOS\Siebwalde\TrackController3.X\Microchip\TCPIPStack\UDP.c
                    Flags   0x000f4f       data     static C:\GIT-REPOS\Siebwalde\TrackController3.X\Microchip\TCPIPStack\UDP.c
                 NextPort   0x000f50       data     static C:\GIT-REPOS\Siebwalde\TrackController3.X\Microchip\TCPIPStack\UDP.c
                     prom   0x000f52       data     static E:\3.46\pic18-lt\cxx-framework\src\traditional\startup\c018i.c
                curr_byte   0x000f55       data     static E:\3.46\pic18-lt\cxx-framework\src\traditional\startup\c018i.c
               curr_entry   0x000f57       data     static E:\3.46\pic18-lt\cxx-framework\src\traditional\startup\c018i.c
                 data_ptr   0x000f59       data     static E:\3.46\pic18-lt\cxx-framework\src\traditional\startup\c018i.c
                 toRotate   0x000f5c       data     extern C:\GIT-REPOS\Siebwalde\TrackController3.X\Microchip\TCPIPStack\Helpers.c
                  EIRbits   0x000f60       data     extern E:\3.46\pic18-lt\cxx-framework\src\traditional\proc\p18f97j60.asm
                      EIR   0x000f60       data     extern E:\3.46\pic18-lt\cxx-framework\src\traditional\proc\p18f97j60.asm
                    EDATA   0x000f61       data     extern E:\3.46\pic18-lt\cxx-framework\src\traditional\proc\p18f97j60.asm
                EDATAbits   0x000f61       data     extern E:\3.46\pic18-lt\cxx-framework\src\traditional\proc\p18f97j60.asm
             SSP2CON2bits   0x000f62       data     extern E:\3.46\pic18-lt\cxx-framework\src\traditional\proc\p18f97j60.asm
                 SSP2CON2   0x000f62       data     extern E:\3.46\pic18-lt\cxx-framework\src\traditional\proc\p18f97j60.asm
             SSP2CON1bits   0x000f63       data     extern E:\3.46\pic18-lt\cxx-framework\src\traditional\proc\p18f97j60.asm
                 SSP2CON1   0x000f63       data     extern E:\3.46\pic18-lt\cxx-framework\src\traditional\proc\p18f97j60.asm
                 SSP2STAT   0x000f64       data     extern E:\3.46\pic18-lt\cxx-framework\src\traditional\proc\p18f97j60.asm
             SSP2STATbits   0x000f64       data     extern E:\3.46\pic18-lt\cxx-framework\src\traditional\proc\p18f97j60.asm
                  SSP2ADD   0x000f65       data     extern E:\3.46\pic18-lt\cxx-framework\src\traditional\proc\p18f97j60.asm
                  SSP2BUF   0x000f66       data     extern E:\3.46\pic18-lt\cxx-framework\src\traditional\proc\p18f97j60.asm
             ECCP2DELbits   0x000f67       data     extern E:\3.46\pic18-lt\cxx-framework\src\traditional\proc\p18f97j60.asm
                 ECCP2DEL   0x000f67       data     extern E:\3.46\pic18-lt\cxx-framework\src\traditional\proc\p18f97j60.asm
                  ECCP2AS   0x000f68       data     extern E:\3.46\pic18-lt\cxx-framework\src\traditional\proc\p18f97j60.asm
              ECCP2ASbits   0x000f68       data     extern E:\3.46\pic18-lt\cxx-framework\src\traditional\proc\p18f97j60.asm
             ECCP3DELbits   0x000f69       data     extern E:\3.46\pic18-lt\cxx-framework\src\traditional\proc\p18f97j60.asm
                 ECCP3DEL   0x000f69       data     extern E:\3.46\pic18-lt\cxx-framework\src\traditional\proc\p18f97j60.asm
              ECCP3ASbits   0x000f6a       data     extern E:\3.46\pic18-lt\cxx-framework\src\traditional\proc\p18f97j60.asm
                  ECCP3AS   0x000f6a       data     extern E:\3.46\pic18-lt\cxx-framework\src\traditional\proc\p18f97j60.asm
               RCSTA2bits   0x000f6b       data     extern E:\3.46\pic18-lt\cxx-framework\src\traditional\proc\p18f97j60.asm
                   RCSTA2   0x000f6b       data     extern E:\3.46\pic18-lt\cxx-framework\src\traditional\proc\p18f97j60.asm
               TXSTA2bits   0x000f6c       data     extern E:\3.46\pic18-lt\cxx-framework\src\traditional\proc\p18f97j60.asm
                   TXSTA2   0x000f6c       data     extern E:\3.46\pic18-lt\cxx-framework\src\traditional\proc\p18f97j60.asm
                   TXREG2   0x000f6d       data     extern E:\3.46\pic18-lt\cxx-framework\src\traditional\proc\p18f97j60.asm
                   RCREG2   0x000f6e       data     extern E:\3.46\pic18-lt\cxx-framework\src\traditional\proc\p18f97j60.asm
                   SPBRG2   0x000f6f       data     extern E:\3.46\pic18-lt\cxx-framework\src\traditional\proc\p18f97j60.asm
                  CCP5CON   0x000f70       data     extern E:\3.46\pic18-lt\cxx-framework\src\traditional\proc\p18f97j60.asm
              CCP5CONbits   0x000f70       data     extern E:\3.46\pic18-lt\cxx-framework\src\traditional\proc\p18f97j60.asm
                    CCPR5   0x000f71       data     extern E:\3.46\pic18-lt\cxx-framework\src\traditional\proc\p18f97j60.asm
                   CCPR5L   0x000f71       data     extern E:\3.46\pic18-lt\cxx-framework\src\traditional\proc\p18f97j60.asm
                   CCPR5H   0x000f72       data     extern E:\3.46\pic18-lt\cxx-framework\src\traditional\proc\p18f97j60.asm
              CCP4CONbits   0x000f73       data     extern E:\3.46\pic18-lt\cxx-framework\src\traditional\proc\p18f97j60.asm
                  CCP4CON   0x000f73       data     extern E:\3.46\pic18-lt\cxx-framework\src\traditional\proc\p18f97j60.asm
                    CCPR4   0x000f74       data     extern E:\3.46\pic18-lt\cxx-framework\src\traditional\proc\p18f97j60.asm
                   CCPR4L   0x000f74       data     extern E:\3.46\pic18-lt\cxx-framework\src\traditional\proc\p18f97j60.asm
                   CCPR4H   0x000f75       data     extern E:\3.46\pic18-lt\cxx-framework\src\traditional\proc\p18f97j60.asm
                T4CONbits   0x000f76       data     extern E:\3.46\pic18-lt\cxx-framework\src\traditional\proc\p18f97j60.asm
                    T4CON   0x000f76       data     extern E:\3.46\pic18-lt\cxx-framework\src\traditional\proc\p18f97j60.asm
                      PR4   0x000f77       data     extern E:\3.46\pic18-lt\cxx-framework\src\traditional\proc\p18f97j60.asm
                     TMR4   0x000f78       data     extern E:\3.46\pic18-lt\cxx-framework\src\traditional\proc\p18f97j60.asm
             ECCP1DELbits   0x000f79       data     extern E:\3.46\pic18-lt\cxx-framework\src\traditional\proc\p18f97j60.asm
                 ECCP1DEL   0x000f79       data     extern E:\3.46\pic18-lt\cxx-framework\src\traditional\proc\p18f97j60.asm
                   ERDPTL   0x000f7a       data     extern E:\3.46\pic18-lt\cxx-framework\src\traditional\proc\p18f97j60.asm
                    ERDPT   0x000f7a       data     extern E:\3.46\pic18-lt\cxx-framework\src\traditional\proc\p18f97j60.asm
                   ERDPTH   0x000f7b       data     extern E:\3.46\pic18-lt\cxx-framework\src\traditional\proc\p18f97j60.asm
             BAUDCON2bits   0x000f7c       data     extern E:\3.46\pic18-lt\cxx-framework\src\traditional\proc\p18f97j60.asm
                 BAUDCTL2   0x000f7c       data     extern E:\3.46\pic18-lt\cxx-framework\src\traditional\proc\p18f97j60.asm
                 BAUDCON2   0x000f7c       data     extern E:\3.46\pic18-lt\cxx-framework\src\traditional\proc\p18f97j60.asm
             BAUDCTL2bits   0x000f7c       data     extern E:\3.46\pic18-lt\cxx-framework\src\traditional\proc\p18f97j60.asm
                  SPBRGH2   0x000f7d       data     extern E:\3.46\pic18-lt\cxx-framework\src\traditional\proc\p18f97j60.asm
              BAUDCONbits   0x000f7e       data     extern E:\3.46\pic18-lt\cxx-framework\src\traditional\proc\p18f97j60.asm
                  BAUDCTL   0x000f7e       data     extern E:\3.46\pic18-lt\cxx-framework\src\traditional\proc\p18f97j60.asm
                 BAUDCTL1   0x000f7e       data     extern E:\3.46\pic18-lt\cxx-framework\src\traditional\proc\p18f97j60.asm
             BAUDCTL1bits   0x000f7e       data     extern E:\3.46\pic18-lt\cxx-framework\src\traditional\proc\p18f97j60.asm
              BAUDCTLbits   0x000f7e       data     extern E:\3.46\pic18-lt\cxx-framework\src\traditional\proc\p18f97j60.asm
                  BAUDCON   0x000f7e       data     extern E:\3.46\pic18-lt\cxx-framework\src\traditional\proc\p18f97j60.asm
                 BAUDCON1   0x000f7e       data     extern E:\3.46\pic18-lt\cxx-framework\src\traditional\proc\p18f97j60.asm
             BAUDCON1bits   0x000f7e       data     extern E:\3.46\pic18-lt\cxx-framework\src\traditional\proc\p18f97j60.asm
                  SPBRGH1   0x000f7f       data     extern E:\3.46\pic18-lt\cxx-framework\src\traditional\proc\p18f97j60.asm
                   SPBRGH   0x000f7f       data     extern E:\3.46\pic18-lt\cxx-framework\src\traditional\proc\p18f97j60.asm
                    PORTA   0x000f80       data     extern E:\3.46\pic18-lt\cxx-framework\src\traditional\proc\p18f97j60.asm
                PORTAbits   0x000f80       data     extern E:\3.46\pic18-lt\cxx-framework\src\traditional\proc\p18f97j60.asm
                    PORTB   0x000f81       data     extern E:\3.46\pic18-lt\cxx-framework\src\traditional\proc\p18f97j60.asm
                PORTBbits   0x000f81       data     extern E:\3.46\pic18-lt\cxx-framework\src\traditional\proc\p18f97j60.asm
                    PORTC   0x000f82       data     extern E:\3.46\pic18-lt\cxx-framework\src\traditional\proc\p18f97j60.asm
                PORTCbits   0x000f82       data     extern E:\3.46\pic18-lt\cxx-framework\src\traditional\proc\p18f97j60.asm
                    PORTD   0x000f83       data     extern E:\3.46\pic18-lt\cxx-framework\src\traditional\proc\p18f97j60.asm
                PORTDbits   0x000f83       data     extern E:\3.46\pic18-lt\cxx-framework\src\traditional\proc\p18f97j60.asm
                    PORTE   0x000f84       data     extern E:\3.46\pic18-lt\cxx-framework\src\traditional\proc\p18f97j60.asm
                PORTEbits   0x000f84       data     extern E:\3.46\pic18-lt\cxx-framework\src\traditional\proc\p18f97j60.asm
                    PORTF   0x000f85       data     extern E:\3.46\pic18-lt\cxx-framework\src\traditional\proc\p18f97j60.asm
                PORTFbits   0x000f85       data     extern E:\3.46\pic18-lt\cxx-framework\src\traditional\proc\p18f97j60.asm
                    PORTG   0x000f86       data     extern E:\3.46\pic18-lt\cxx-framework\src\traditional\proc\p18f97j60.asm
                PORTGbits   0x000f86       data     extern E:\3.46\pic18-lt\cxx-framework\src\traditional\proc\p18f97j60.asm
                PORTHbits   0x000f87       data     extern E:\3.46\pic18-lt\cxx-framework\src\traditional\proc\p18f97j60.asm
                    PORTH   0x000f87       data     extern E:\3.46\pic18-lt\cxx-framework\src\traditional\proc\p18f97j60.asm
                PORTJbits   0x000f88       data     extern E:\3.46\pic18-lt\cxx-framework\src\traditional\proc\p18f97j60.asm
                    PORTJ   0x000f88       data     extern E:\3.46\pic18-lt\cxx-framework\src\traditional\proc\p18f97j60.asm
                     LATA   0x000f89       data     extern E:\3.46\pic18-lt\cxx-framework\src\traditional\proc\p18f97j60.asm
                 LATAbits   0x000f89       data     extern E:\3.46\pic18-lt\cxx-framework\src\traditional\proc\p18f97j60.asm
                     LATB   0x000f8a       data     extern E:\3.46\pic18-lt\cxx-framework\src\traditional\proc\p18f97j60.asm
                 LATBbits   0x000f8a       data     extern E:\3.46\pic18-lt\cxx-framework\src\traditional\proc\p18f97j60.asm
                     LATC   0x000f8b       data     extern E:\3.46\pic18-lt\cxx-framework\src\traditional\proc\p18f97j60.asm
                 LATCbits   0x000f8b       data     extern E:\3.46\pic18-lt\cxx-framework\src\traditional\proc\p18f97j60.asm
                     LATD   0x000f8c       data     extern E:\3.46\pic18-lt\cxx-framework\src\traditional\proc\p18f97j60.asm
                 LATDbits   0x000f8c       data     extern E:\3.46\pic18-lt\cxx-framework\src\traditional\proc\p18f97j60.asm
                 LATEbits   0x000f8d       data     extern E:\3.46\pic18-lt\cxx-framework\src\traditional\proc\p18f97j60.asm
                     LATE   0x000f8d       data     extern E:\3.46\pic18-lt\cxx-framework\src\traditional\proc\p18f97j60.asm
                     LATF   0x000f8e       data     extern E:\3.46\pic18-lt\cxx-framework\src\traditional\proc\p18f97j60.asm
                 LATFbits   0x000f8e       data     extern E:\3.46\pic18-lt\cxx-framework\src\traditional\proc\p18f97j60.asm
                     LATG   0x000f8f       data     extern E:\3.46\pic18-lt\cxx-framework\src\traditional\proc\p18f97j60.asm
                 LATGbits   0x000f8f       data     extern E:\3.46\pic18-lt\cxx-framework\src\traditional\proc\p18f97j60.asm
                     LATH   0x000f90       data     extern E:\3.46\pic18-lt\cxx-framework\src\traditional\proc\p18f97j60.asm
                 LATHbits   0x000f90       data     extern E:\3.46\pic18-lt\cxx-framework\src\traditional\proc\p18f97j60.asm
                 LATJbits   0x000f91       data     extern E:\3.46\pic18-lt\cxx-framework\src\traditional\proc\p18f97j60.asm
                     LATJ   0x000f91       data     extern E:\3.46\pic18-lt\cxx-framework\src\traditional\proc\p18f97j60.asm
                    TRISA   0x000f92       data     extern E:\3.46\pic18-lt\cxx-framework\src\traditional\proc\p18f97j60.asm
                TRISAbits   0x000f92       data     extern E:\3.46\pic18-lt\cxx-framework\src\traditional\proc\p18f97j60.asm
                     DDRA   0x000f92       data     extern E:\3.46\pic18-lt\cxx-framework\src\traditional\proc\p18f97j60.asm
                 DDRAbits   0x000f92       data     extern E:\3.46\pic18-lt\cxx-framework\src\traditional\proc\p18f97j60.asm
                     DDRB   0x000f93       data     extern E:\3.46\pic18-lt\cxx-framework\src\traditional\proc\p18f97j60.asm
                    TRISB   0x000f93       data     extern E:\3.46\pic18-lt\cxx-framework\src\traditional\proc\p18f97j60.asm
                TRISBbits   0x000f93       data     extern E:\3.46\pic18-lt\cxx-framework\src\traditional\proc\p18f97j60.asm
                 DDRBbits   0x000f93       data     extern E:\3.46\pic18-lt\cxx-framework\src\traditional\proc\p18f97j60.asm
                    TRISC   0x000f94       data     extern E:\3.46\pic18-lt\cxx-framework\src\traditional\proc\p18f97j60.asm
                TRISCbits   0x000f94       data     extern E:\3.46\pic18-lt\cxx-framework\src\traditional\proc\p18f97j60.asm
                     DDRC   0x000f94       data     extern E:\3.46\pic18-lt\cxx-framework\src\traditional\proc\p18f97j60.asm
                 DDRCbits   0x000f94       data     extern E:\3.46\pic18-lt\cxx-framework\src\traditional\proc\p18f97j60.asm
                     DDRD   0x000f95       data     extern E:\3.46\pic18-lt\cxx-framework\src\traditional\proc\p18f97j60.asm
                 DDRDbits   0x000f95       data     extern E:\3.46\pic18-lt\cxx-framework\src\traditional\proc\p18f97j60.asm
                    TRISD   0x000f95       data     extern E:\3.46\pic18-lt\cxx-framework\src\traditional\proc\p18f97j60.asm
                TRISDbits   0x000f95       data     extern E:\3.46\pic18-lt\cxx-framework\src\traditional\proc\p18f97j60.asm
                     DDRE   0x000f96       data     extern E:\3.46\pic18-lt\cxx-framework\src\traditional\proc\p18f97j60.asm
                 DDREbits   0x000f96       data     extern E:\3.46\pic18-lt\cxx-framework\src\traditional\proc\p18f97j60.asm
                    TRISE   0x000f96       data     extern E:\3.46\pic18-lt\cxx-framework\src\traditional\proc\p18f97j60.asm
                TRISEbits   0x000f96       data     extern E:\3.46\pic18-lt\cxx-framework\src\traditional\proc\p18f97j60.asm
                     DDRF   0x000f97       data     extern E:\3.46\pic18-lt\cxx-framework\src\traditional\proc\p18f97j60.asm
                 DDRFbits   0x000f97       data     extern E:\3.46\pic18-lt\cxx-framework\src\traditional\proc\p18f97j60.asm
                    TRISF   0x000f97       data     extern E:\3.46\pic18-lt\cxx-framework\src\traditional\proc\p18f97j60.asm
                TRISFbits   0x000f97       data     extern E:\3.46\pic18-lt\cxx-framework\src\traditional\proc\p18f97j60.asm
                    TRISG   0x000f98       data     extern E:\3.46\pic18-lt\cxx-framework\src\traditional\proc\p18f97j60.asm
                TRISGbits   0x000f98       data     extern E:\3.46\pic18-lt\cxx-framework\src\traditional\proc\p18f97j60.asm
                     DDRG   0x000f98       data     extern E:\3.46\pic18-lt\cxx-framework\src\traditional\proc\p18f97j60.asm
                 DDRGbits   0x000f98       data     extern E:\3.46\pic18-lt\cxx-framework\src\traditional\proc\p18f97j60.asm
                     DDRH   0x000f99       data     extern E:\3.46\pic18-lt\cxx-framework\src\traditional\proc\p18f97j60.asm
                TRISHbits   0x000f99       data     extern E:\3.46\pic18-lt\cxx-framework\src\traditional\proc\p18f97j60.asm
                    TRISH   0x000f99       data     extern E:\3.46\pic18-lt\cxx-framework\src\traditional\proc\p18f97j60.asm
                 DDRHbits   0x000f99       data     extern E:\3.46\pic18-lt\cxx-framework\src\traditional\proc\p18f97j60.asm
                    TRISJ   0x000f9a       data     extern E:\3.46\pic18-lt\cxx-framework\src\traditional\proc\p18f97j60.asm
                TRISJbits   0x000f9a       data     extern E:\3.46\pic18-lt\cxx-framework\src\traditional\proc\p18f97j60.asm
                     DDRJ   0x000f9a       data     extern E:\3.46\pic18-lt\cxx-framework\src\traditional\proc\p18f97j60.asm
                 DDRJbits   0x000f9a       data     extern E:\3.46\pic18-lt\cxx-framework\src\traditional\proc\p18f97j60.asm
                  OSCTUNE   0x000f9b       data     extern E:\3.46\pic18-lt\cxx-framework\src\traditional\proc\p18f97j60.asm
              OSCTUNEbits   0x000f9b       data     extern E:\3.46\pic18-lt\cxx-framework\src\traditional\proc\p18f97j60.asm
                   MEMCON   0x000f9c       data     extern E:\3.46\pic18-lt\cxx-framework\src\traditional\proc\p18f97j60.asm
               MEMCONbits   0x000f9c       data     extern E:\3.46\pic18-lt\cxx-framework\src\traditional\proc\p18f97j60.asm
                 PIE1bits   0x000f9d       data     extern E:\3.46\pic18-lt\cxx-framework\src\traditional\proc\p18f97j60.asm
                     PIE1   0x000f9d       data     extern E:\3.46\pic18-lt\cxx-framework\src\traditional\proc\p18f97j60.asm
                     PIR1   0x000f9e       data     extern E:\3.46\pic18-lt\cxx-framework\src\traditional\proc\p18f97j60.asm
                 PIR1bits   0x000f9e       data     extern E:\3.46\pic18-lt\cxx-framework\src\traditional\proc\p18f97j60.asm
                 IPR1bits   0x000f9f       data     extern E:\3.46\pic18-lt\cxx-framework\src\traditional\proc\p18f97j60.asm
                     IPR1   0x000f9f       data     extern E:\3.46\pic18-lt\cxx-framework\src\traditional\proc\p18f97j60.asm
                     PIE2   0x000fa0       data     extern E:\3.46\pic18-lt\cxx-framework\src\traditional\proc\p18f97j60.asm
                 PIE2bits   0x000fa0       data     extern E:\3.46\pic18-lt\cxx-framework\src\traditional\proc\p18f97j60.asm
                     PIR2   0x000fa1       data     extern E:\3.46\pic18-lt\cxx-framework\src\traditional\proc\p18f97j60.asm
                 PIR2bits   0x000fa1       data     extern E:\3.46\pic18-lt\cxx-framework\src\traditional\proc\p18f97j60.asm
                     IPR2   0x000fa2       data     extern E:\3.46\pic18-lt\cxx-framework\src\traditional\proc\p18f97j60.asm
                 IPR2bits   0x000fa2       data     extern E:\3.46\pic18-lt\cxx-framework\src\traditional\proc\p18f97j60.asm
                     PIE3   0x000fa3       data     extern E:\3.46\pic18-lt\cxx-framework\src\traditional\proc\p18f97j60.asm
                 PIE3bits   0x000fa3       data     extern E:\3.46\pic18-lt\cxx-framework\src\traditional\proc\p18f97j60.asm
                     PIR3   0x000fa4       data     extern E:\3.46\pic18-lt\cxx-framework\src\traditional\proc\p18f97j60.asm
                 PIR3bits   0x000fa4       data     extern E:\3.46\pic18-lt\cxx-framework\src\traditional\proc\p18f97j60.asm
                     IPR3   0x000fa5       data     extern E:\3.46\pic18-lt\cxx-framework\src\traditional\proc\p18f97j60.asm
                 IPR3bits   0x000fa5       data     extern E:\3.46\pic18-lt\cxx-framework\src\traditional\proc\p18f97j60.asm
               EECON1bits   0x000fa6       data     extern E:\3.46\pic18-lt\cxx-framework\src\traditional\proc\p18f97j60.asm
                   EECON1   0x000fa6       data     extern E:\3.46\pic18-lt\cxx-framework\src\traditional\proc\p18f97j60.asm
                   EECON2   0x000fa7       data     extern E:\3.46\pic18-lt\cxx-framework\src\traditional\proc\p18f97j60.asm
                RCSTAbits   0x000fab       data     extern E:\3.46\pic18-lt\cxx-framework\src\traditional\proc\p18f97j60.asm
               RCSTA1bits   0x000fab       data     extern E:\3.46\pic18-lt\cxx-framework\src\traditional\proc\p18f97j60.asm
                   RCSTA1   0x000fab       data     extern E:\3.46\pic18-lt\cxx-framework\src\traditional\proc\p18f97j60.asm
                    RCSTA   0x000fab       data     extern E:\3.46\pic18-lt\cxx-framework\src\traditional\proc\p18f97j60.asm
               TXSTA1bits   0x000fac       data     extern E:\3.46\pic18-lt\cxx-framework\src\traditional\proc\p18f97j60.asm
                TXSTAbits   0x000fac       data     extern E:\3.46\pic18-lt\cxx-framework\src\traditional\proc\p18f97j60.asm
                   TXSTA1   0x000fac       data     extern E:\3.46\pic18-lt\cxx-framework\src\traditional\proc\p18f97j60.asm
                    TXSTA   0x000fac       data     extern E:\3.46\pic18-lt\cxx-framework\src\traditional\proc\p18f97j60.asm
                    TXREG   0x000fad       data     extern E:\3.46\pic18-lt\cxx-framework\src\traditional\proc\p18f97j60.asm
                   TXREG1   0x000fad       data     extern E:\3.46\pic18-lt\cxx-framework\src\traditional\proc\p18f97j60.asm
                   RCREG1   0x000fae       data     extern E:\3.46\pic18-lt\cxx-framework\src\traditional\proc\p18f97j60.asm
                    RCREG   0x000fae       data     extern E:\3.46\pic18-lt\cxx-framework\src\traditional\proc\p18f97j60.asm
                    SPBRG   0x000faf       data     extern E:\3.46\pic18-lt\cxx-framework\src\traditional\proc\p18f97j60.asm
                   SPBRG1   0x000faf       data     extern E:\3.46\pic18-lt\cxx-framework\src\traditional\proc\p18f97j60.asm
               PSPCONbits   0x000fb0       data     extern E:\3.46\pic18-lt\cxx-framework\src\traditional\proc\p18f97j60.asm
                   PSPCON   0x000fb0       data     extern E:\3.46\pic18-lt\cxx-framework\src\traditional\proc\p18f97j60.asm
                    T3CON   0x000fb1       data     extern E:\3.46\pic18-lt\cxx-framework\src\traditional\proc\p18f97j60.asm
                T3CONbits   0x000fb1       data     extern E:\3.46\pic18-lt\cxx-framework\src\traditional\proc\p18f97j60.asm
                    TMR3L   0x000fb2       data     extern E:\3.46\pic18-lt\cxx-framework\src\traditional\proc\p18f97j60.asm
                    TMR3H   0x000fb3       data     extern E:\3.46\pic18-lt\cxx-framework\src\traditional\proc\p18f97j60.asm
                CMCONbits   0x000fb4       data     extern E:\3.46\pic18-lt\cxx-framework\src\traditional\proc\p18f97j60.asm
                    CMCON   0x000fb4       data     extern E:\3.46\pic18-lt\cxx-framework\src\traditional\proc\p18f97j60.asm
                   CVRCON   0x000fb5       data     extern E:\3.46\pic18-lt\cxx-framework\src\traditional\proc\p18f97j60.asm
               CVRCONbits   0x000fb5       data     extern E:\3.46\pic18-lt\cxx-framework\src\traditional\proc\p18f97j60.asm
              ECCP1ASbits   0x000fb6       data     extern E:\3.46\pic18-lt\cxx-framework\src\traditional\proc\p18f97j60.asm
                  ECCP1AS   0x000fb6       data     extern E:\3.46\pic18-lt\cxx-framework\src\traditional\proc\p18f97j60.asm
              CCP3CONbits   0x000fb7       data     extern E:\3.46\pic18-lt\cxx-framework\src\traditional\proc\p18f97j60.asm
             ECCP3CONbits   0x000fb7       data     extern E:\3.46\pic18-lt\cxx-framework\src\traditional\proc\p18f97j60.asm
                 ECCP3CON   0x000fb7       data     extern E:\3.46\pic18-lt\cxx-framework\src\traditional\proc\p18f97j60.asm
                  CCP3CON   0x000fb7       data     extern E:\3.46\pic18-lt\cxx-framework\src\traditional\proc\p18f97j60.asm
                    CCPR3   0x000fb8       data     extern E:\3.46\pic18-lt\cxx-framework\src\traditional\proc\p18f97j60.asm
                   CCPR3L   0x000fb8       data     extern E:\3.46\pic18-lt\cxx-framework\src\traditional\proc\p18f97j60.asm
                   CCPR3H   0x000fb9       data     extern E:\3.46\pic18-lt\cxx-framework\src\traditional\proc\p18f97j60.asm
                 ECCP2CON   0x000fba       data     extern E:\3.46\pic18-lt\cxx-framework\src\traditional\proc\p18f97j60.asm
             ECCP2CONbits   0x000fba       data     extern E:\3.46\pic18-lt\cxx-framework\src\traditional\proc\p18f97j60.asm
              CCP2CONbits   0x000fba       data     extern E:\3.46\pic18-lt\cxx-framework\src\traditional\proc\p18f97j60.asm
                  CCP2CON   0x000fba       data     extern E:\3.46\pic18-lt\cxx-framework\src\traditional\proc\p18f97j60.asm
                    CCPR2   0x000fbb       data     extern E:\3.46\pic18-lt\cxx-framework\src\traditional\proc\p18f97j60.asm
                   CCPR2L   0x000fbb       data     extern E:\3.46\pic18-lt\cxx-framework\src\traditional\proc\p18f97j60.asm
                   CCPR2H   0x000fbc       data     extern E:\3.46\pic18-lt\cxx-framework\src\traditional\proc\p18f97j60.asm
              CCP1CONbits   0x000fbd       data     extern E:\3.46\pic18-lt\cxx-framework\src\traditional\proc\p18f97j60.asm
             ECCP1CONbits   0x000fbd       data     extern E:\3.46\pic18-lt\cxx-framework\src\traditional\proc\p18f97j60.asm
                 ECCP1CON   0x000fbd       data     extern E:\3.46\pic18-lt\cxx-framework\src\traditional\proc\p18f97j60.asm
                  CCP1CON   0x000fbd       data     extern E:\3.46\pic18-lt\cxx-framework\src\traditional\proc\p18f97j60.asm
                   CCPR1L   0x000fbe       data     extern E:\3.46\pic18-lt\cxx-framework\src\traditional\proc\p18f97j60.asm
                    CCPR1   0x000fbe       data     extern E:\3.46\pic18-lt\cxx-framework\src\traditional\proc\p18f97j60.asm
                   CCPR1H   0x000fbf       data     extern E:\3.46\pic18-lt\cxx-framework\src\traditional\proc\p18f97j60.asm
               ADCON2bits   0x000fc0       data     extern E:\3.46\pic18-lt\cxx-framework\src\traditional\proc\p18f97j60.asm
                   ADCON2   0x000fc0       data     extern E:\3.46\pic18-lt\cxx-framework\src\traditional\proc\p18f97j60.asm
                   ADCON1   0x000fc1       data     extern E:\3.46\pic18-lt\cxx-framework\src\traditional\proc\p18f97j60.asm
               ADCON1bits   0x000fc1       data     extern E:\3.46\pic18-lt\cxx-framework\src\traditional\proc\p18f97j60.asm
                   ADCON0   0x000fc2       data     extern E:\3.46\pic18-lt\cxx-framework\src\traditional\proc\p18f97j60.asm
               ADCON0bits   0x000fc2       data     extern E:\3.46\pic18-lt\cxx-framework\src\traditional\proc\p18f97j60.asm
                   ADRESL   0x000fc3       data     extern E:\3.46\pic18-lt\cxx-framework\src\traditional\proc\p18f97j60.asm
                    ADRES   0x000fc3       data     extern E:\3.46\pic18-lt\cxx-framework\src\traditional\proc\p18f97j60.asm
                   ADRESH   0x000fc4       data     extern E:\3.46\pic18-lt\cxx-framework\src\traditional\proc\p18f97j60.asm
             SSP1CON2bits   0x000fc5       data     extern E:\3.46\pic18-lt\cxx-framework\src\traditional\proc\p18f97j60.asm
                 SSP1CON2   0x000fc5       data     extern E:\3.46\pic18-lt\cxx-framework\src\traditional\proc\p18f97j60.asm
                  SSPCON2   0x000fc5       data     extern E:\3.46\pic18-lt\cxx-framework\src\traditional\proc\p18f97j60.asm
              SSPCON2bits   0x000fc5       data     extern E:\3.46\pic18-lt\cxx-framework\src\traditional\proc\p18f97j60.asm
             SSP1CON1bits   0x000fc6       data     extern E:\3.46\pic18-lt\cxx-framework\src\traditional\proc\p18f97j60.asm
                 SSP1CON1   0x000fc6       data     extern E:\3.46\pic18-lt\cxx-framework\src\traditional\proc\p18f97j60.asm
                  SSPCON1   0x000fc6       data     extern E:\3.46\pic18-lt\cxx-framework\src\traditional\proc\p18f97j60.asm
              SSPCON1bits   0x000fc6       data     extern E:\3.46\pic18-lt\cxx-framework\src\traditional\proc\p18f97j60.asm
                 SSP1STAT   0x000fc7       data     extern E:\3.46\pic18-lt\cxx-framework\src\traditional\proc\p18f97j60.asm
             SSP1STATbits   0x000fc7       data     extern E:\3.46\pic18-lt\cxx-framework\src\traditional\proc\p18f97j60.asm
              SSPSTATbits   0x000fc7       data     extern E:\3.46\pic18-lt\cxx-framework\src\traditional\proc\p18f97j60.asm
                  SSPSTAT   0x000fc7       data     extern E:\3.46\pic18-lt\cxx-framework\src\traditional\proc\p18f97j60.asm
                  SSP1ADD   0x000fc8       data     extern E:\3.46\pic18-lt\cxx-framework\src\traditional\proc\p18f97j60.asm
                   SSPADD   0x000fc8       data     extern E:\3.46\pic18-lt\cxx-framework\src\traditional\proc\p18f97j60.asm
                  SSP1BUF   0x000fc9       data     extern E:\3.46\pic18-lt\cxx-framework\src\traditional\proc\p18f97j60.asm
                   SSPBUF   0x000fc9       data     extern E:\3.46\pic18-lt\cxx-framework\src\traditional\proc\p18f97j60.asm
                T2CONbits   0x000fca       data     extern E:\3.46\pic18-lt\cxx-framework\src\traditional\proc\p18f97j60.asm
                    T2CON   0x000fca       data     extern E:\3.46\pic18-lt\cxx-framework\src\traditional\proc\p18f97j60.asm
                      PR2   0x000fcb       data     extern E:\3.46\pic18-lt\cxx-framework\src\traditional\proc\p18f97j60.asm
                     TMR2   0x000fcc       data     extern E:\3.46\pic18-lt\cxx-framework\src\traditional\proc\p18f97j60.asm
                    T1CON   0x000fcd       data     extern E:\3.46\pic18-lt\cxx-framework\src\traditional\proc\p18f97j60.asm
                T1CONbits   0x000fcd       data     extern E:\3.46\pic18-lt\cxx-framework\src\traditional\proc\p18f97j60.asm
                    TMR1L   0x000fce       data     extern E:\3.46\pic18-lt\cxx-framework\src\traditional\proc\p18f97j60.asm
                    TMR1H   0x000fcf       data     extern E:\3.46\pic18-lt\cxx-framework\src\traditional\proc\p18f97j60.asm
                 RCONbits   0x000fd0       data     extern E:\3.46\pic18-lt\cxx-framework\src\traditional\proc\p18f97j60.asm
                     RCON   0x000fd0       data     extern E:\3.46\pic18-lt\cxx-framework\src\traditional\proc\p18f97j60.asm
                   WDTCON   0x000fd1       data     extern E:\3.46\pic18-lt\cxx-framework\src\traditional\proc\p18f97j60.asm
               WDTCONbits   0x000fd1       data     extern E:\3.46\pic18-lt\cxx-framework\src\traditional\proc\p18f97j60.asm
                ECON1bits   0x000fd2       data     extern E:\3.46\pic18-lt\cxx-framework\src\traditional\proc\p18f97j60.asm
                    ECON1   0x000fd2       data     extern E:\3.46\pic18-lt\cxx-framework\src\traditional\proc\p18f97j60.asm
                   OSCCON   0x000fd3       data     extern E:\3.46\pic18-lt\cxx-framework\src\traditional\proc\p18f97j60.asm
               OSCCONbits   0x000fd3       data     extern E:\3.46\pic18-lt\cxx-framework\src\traditional\proc\p18f97j60.asm
                T0CONbits   0x000fd5       data     extern E:\3.46\pic18-lt\cxx-framework\src\traditional\proc\p18f97j60.asm
                    T0CON   0x000fd5       data     extern E:\3.46\pic18-lt\cxx-framework\src\traditional\proc\p18f97j60.asm
                    TMR0L   0x000fd6       data     extern E:\3.46\pic18-lt\cxx-framework\src\traditional\proc\p18f97j60.asm
                    TMR0H   0x000fd7       data     extern E:\3.46\pic18-lt\cxx-framework\src\traditional\proc\p18f97j60.asm
                   STATUS   0x000fd8       data     extern E:\3.46\pic18-lt\cxx-framework\src\traditional\proc\p18f97j60.asm
               STATUSbits   0x000fd8       data     extern E:\3.46\pic18-lt\cxx-framework\src\traditional\proc\p18f97j60.asm
                    FSR2L   0x000fd9       data     extern E:\3.46\pic18-lt\cxx-framework\src\traditional\proc\p18f97j60.asm
                     FSR2   0x000fd9       data     extern E:\3.46\pic18-lt\cxx-framework\src\traditional\proc\p18f97j60.asm
                    FSR2H   0x000fda       data     extern E:\3.46\pic18-lt\cxx-framework\src\traditional\proc\p18f97j60.asm
                   PLUSW2   0x000fdb       data     extern E:\3.46\pic18-lt\cxx-framework\src\traditional\proc\p18f97j60.asm
                  PREINC2   0x000fdc       data     extern E:\3.46\pic18-lt\cxx-framework\src\traditional\proc\p18f97j60.asm
                 POSTDEC2   0x000fdd       data     extern E:\3.46\pic18-lt\cxx-framework\src\traditional\proc\p18f97j60.asm
                 POSTINC2   0x000fde       data     extern E:\3.46\pic18-lt\cxx-framework\src\traditional\proc\p18f97j60.asm
                    INDF2   0x000fdf       data     extern E:\3.46\pic18-lt\cxx-framework\src\traditional\proc\p18f97j60.asm
                      BSR   0x000fe0       data     extern E:\3.46\pic18-lt\cxx-framework\src\traditional\proc\p18f97j60.asm
                     FSR1   0x000fe1       data     extern E:\3.46\pic18-lt\cxx-framework\src\traditional\proc\p18f97j60.asm
                    FSR1L   0x000fe1       data     extern E:\3.46\pic18-lt\cxx-framework\src\traditional\proc\p18f97j60.asm
                    FSR1H   0x000fe2       data     extern E:\3.46\pic18-lt\cxx-framework\src\traditional\proc\p18f97j60.asm
                   PLUSW1   0x000fe3       data     extern E:\3.46\pic18-lt\cxx-framework\src\traditional\proc\p18f97j60.asm
                  PREINC1   0x000fe4       data     extern E:\3.46\pic18-lt\cxx-framework\src\traditional\proc\p18f97j60.asm
                 POSTDEC1   0x000fe5       data     extern E:\3.46\pic18-lt\cxx-framework\src\traditional\proc\p18f97j60.asm
                 POSTINC1   0x000fe6       data     extern E:\3.46\pic18-lt\cxx-framework\src\traditional\proc\p18f97j60.asm
                    INDF1   0x000fe7       data     extern E:\3.46\pic18-lt\cxx-framework\src\traditional\proc\p18f97j60.asm
                     WREG   0x000fe8       data     extern E:\3.46\pic18-lt\cxx-framework\src\traditional\proc\p18f97j60.asm
                    FSR0L   0x000fe9       data     extern E:\3.46\pic18-lt\cxx-framework\src\traditional\proc\p18f97j60.asm
                     FSR0   0x000fe9       data     extern E:\3.46\pic18-lt\cxx-framework\src\traditional\proc\p18f97j60.asm
                    FSR0H   0x000fea       data     extern E:\3.46\pic18-lt\cxx-framework\src\traditional\proc\p18f97j60.asm
                   PLUSW0   0x000feb       data     extern E:\3.46\pic18-lt\cxx-framework\src\traditional\proc\p18f97j60.asm
                  PREINC0   0x000fec       data     extern E:\3.46\pic18-lt\cxx-framework\src\traditional\proc\p18f97j60.asm
                 POSTDEC0   0x000fed       data     extern E:\3.46\pic18-lt\cxx-framework\src\traditional\proc\p18f97j60.asm
                 POSTINC0   0x000fee       data     extern E:\3.46\pic18-lt\cxx-framework\src\traditional\proc\p18f97j60.asm
                    INDF0   0x000fef       data     extern E:\3.46\pic18-lt\cxx-framework\src\traditional\proc\p18f97j60.asm
              INTCON3bits   0x000ff0       data     extern E:\3.46\pic18-lt\cxx-framework\src\traditional\proc\p18f97j60.asm
                  INTCON3   0x000ff0       data     extern E:\3.46\pic18-lt\cxx-framework\src\traditional\proc\p18f97j60.asm
              INTCON2bits   0x000ff1       data     extern E:\3.46\pic18-lt\cxx-framework\src\traditional\proc\p18f97j60.asm
                  INTCON2   0x000ff1       data     extern E:\3.46\pic18-lt\cxx-framework\src\traditional\proc\p18f97j60.asm
                   INTCON   0x000ff2       data     extern E:\3.46\pic18-lt\cxx-framework\src\traditional\proc\p18f97j60.asm
               INTCONbits   0x000ff2       data     extern E:\3.46\pic18-lt\cxx-framework\src\traditional\proc\p18f97j60.asm
                     PROD   0x000ff3       data     extern E:\3.46\pic18-lt\cxx-framework\src\traditional\proc\p18f97j60.asm
                    PRODL   0x000ff3       data     extern E:\3.46\pic18-lt\cxx-framework\src\traditional\proc\p18f97j60.asm
                    PRODH   0x000ff4       data     extern E:\3.46\pic18-lt\cxx-framework\src\traditional\proc\p18f97j60.asm
                   TABLAT   0x000ff5       data     extern E:\3.46\pic18-lt\cxx-framework\src\traditional\proc\p18f97j60.asm
                   TBLPTR   0x000ff6       data     extern E:\3.46\pic18-lt\cxx-framework\src\traditional\proc\p18f97j60.asm
                  TBLPTRL   0x000ff6       data     extern E:\3.46\pic18-lt\cxx-framework\src\traditional\proc\p18f97j60.asm
                  TBLPTRH   0x000ff7       data     extern E:\3.46\pic18-lt\cxx-framework\src\traditional\proc\p18f97j60.asm
                  TBLPTRU   0x000ff8       data     extern E:\3.46\pic18-lt\cxx-framework\src\traditional\proc\p18f97j60.asm
                       PC   0x000ff9       data     extern E:\3.46\pic18-lt\cxx-framework\src\traditional\proc\p18f97j60.asm
                      PCL   0x000ff9       data     extern E:\3.46\pic18-lt\cxx-framework\src\traditional\proc\p18f97j60.asm
                   PCLATH   0x000ffa       data     extern E:\3.46\pic18-lt\cxx-framework\src\traditional\proc\p18f97j60.asm
                   PCLATU   0x000ffb       data     extern E:\3.46\pic18-lt\cxx-framework\src\traditional\proc\p18f97j60.asm
               STKPTRbits   0x000ffc       data     extern E:\3.46\pic18-lt\cxx-framework\src\traditional\proc\p18f97j60.asm
                   STKPTR   0x000ffc       data     extern E:\3.46\pic18-lt\cxx-framework\src\traditional\proc\p18f97j60.asm
                     TOSL   0x000ffd       data     extern E:\3.46\pic18-lt\cxx-framework\src\traditional\proc\p18f97j60.asm
                      TOS   0x000ffd       data     extern E:\3.46\pic18-lt\cxx-framework\src\traditional\proc\p18f97j60.asm
                     TOSH   0x000ffe       data     extern E:\3.46\pic18-lt\cxx-framework\src\traditional\proc\p18f97j60.asm
                     TOSU   0x000fff       data     extern E:\3.46\pic18-lt\cxx-framework\src\traditional\proc\p18f97j60.asm


