

Microchip Technology PIC PRO Macro Assembler V1.45 build -152302408 
                                                                                               Mon Apr 16 22:20:30 2018

Microchip Technology Omniscient Code Generator v1.45 (PRO mode) build 201711160504
     1                           	processor	16F18854
     2                           	opt	pw 120
     3                           	opt	pm
     4                           	psect	cinit,global,class=CODE,merge=1,delta=2
     5                           	psect	bssCOMMON,global,class=COMMON,space=1,delta=1
     6                           	psect	bssBANK0,global,class=BANK0,space=1,delta=1
     7                           	psect	cstackCOMMON,global,class=COMMON,space=1,delta=1
     8                           	psect	intentry,global,class=CODE,delta=2
     9                           	psect	text9,local,class=CODE,merge=1,delta=2
    10                           	psect	pa_nodes0,global,class=CODE,delta=2
    11                           	dabs	1,0x7E,2
    12  0000                     
    13                           ; Version 1.45
    14                           ; Generated 16/11/2017 GMT
    15                           ; 
    16                           ; Copyright © 2017, Microchip Technology Inc. and its subsidiaries ("Microchip")
    17                           ; All rights reserved.
    18                           ; 
    19                           ; This software is developed by Microchip Technology Inc. and its subsidiaries ("Microch
      +                          ip").
    20                           ; 
    21                           ; Redistribution and use in source and binary forms, with or without modification, are
    22                           ; permitted provided that the following conditions are met:
    23                           ; 
    24                           ;     1. Redistributions of source code must retain the above copyright notice, this lis
      +                          t of
    25                           ;        conditions and the following disclaimer.
    26                           ; 
    27                           ;     2. Redistributions in binary form must reproduce the above copyright notice, this 
      +                          list
    28                           ;        of conditions and the following disclaimer in the documentation and/or other
    29                           ;        materials provided with the distribution.
    30                           ; 
    31                           ;     3. Microchip's name may not be used to endorse or promote products derived from th
      +                          is
    32                           ;        software without specific prior written permission.
    33                           ; 
    34                           ; THIS SOFTWARE IS PROVIDED BY MICROCHIP "AS IS" AND ANY EXPRESS OR IMPLIED WARRANTIES,
    35                           ; INCLUDING, BUT NOT LIMITED TO, THE IMPLIED WARRANTIES OF MERCHANTABILITY AND FITNESS F
      +                          OR
    36                           ; PURPOSE ARE DISCLAIMED.  IN NO EVENT SHALL MICROCHIP BE LIABLE FOR ANY DIRECT, INDIREC
      +                          T,
    37                           ; INCIDENTAL, SPECIAL, EXEMPLARY, OR CONSEQUENTIAL DAMAGES (INCLUDING BUT NOT LIMITED TO
    38                           ; PROCUREMENT OF SUBSTITUTE GOODS OR SERVICES; LOSS OF USE, DATA OR PROFITS; OR BUSINESS
    39                           ; INTERRUPTION) HOWSOEVER CAUSED AND ON ANY THEORY OF LIABILITY, WHETHER IN CONTRACT, ST
      +                          RICT
    40                           ; LIABILITY, OR TORT (INCLUDING NEGLIGENCE OR OTHERWISE) ARISING IN ANY WAY OUT OF THE U
      +                          SE OF
    41                           ; THIS SOFTWARE, EVEN IF ADVISED OF THE POSSIBILITY OF SUCH DAMAGE.
    42                           ; 
    43                           ; 
    44                           ; Code-generator required, PIC16F18854 Definitions
    45                           ; 
    46                           ; SFR Addresses
    47  0000                     	;# 
    48  0001                     	;# 
    49  0002                     	;# 
    50  0003                     	;# 
    51  0004                     	;# 
    52  0005                     	;# 
    53  0006                     	;# 
    54  0007                     	;# 
    55  0008                     	;# 
    56  0009                     	;# 
    57  000A                     	;# 
    58  000B                     	;# 
    59  000C                     	;# 
    60  000D                     	;# 
    61  000E                     	;# 
    62  0010                     	;# 
    63  0011                     	;# 
    64  0012                     	;# 
    65  0013                     	;# 
    66  0016                     	;# 
    67  0017                     	;# 
    68  0018                     	;# 
    69  001C                     	;# 
    70  001C                     	;# 
    71  001D                     	;# 
    72  001D                     	;# 
    73  001E                     	;# 
    74  001F                     	;# 
    75  008C                     	;# 
    76  008C                     	;# 
    77  008D                     	;# 
    78  008E                     	;# 
    79  008E                     	;# 
    80  008F                     	;# 
    81  0090                     	;# 
    82  0090                     	;# 
    83  0091                     	;# 
    84  0093                     	;# 
    85  0094                     	;# 
    86  0095                     	;# 
    87  0096                     	;# 
    88  0097                     	;# 
    89  0098                     	;# 
    90  0099                     	;# 
    91  009A                     	;# 
    92  009B                     	;# 
    93  009C                     	;# 
    94  009D                     	;# 
    95  009E                     	;# 
    96  010C                     	;# 
    97  010D                     	;# 
    98  010E                     	;# 
    99  010E                     	;# 
   100  010F                     	;# 
   101  0110                     	;# 
   102  0110                     	;# 
   103  0111                     	;# 
   104  0112                     	;# 
   105  0112                     	;# 
   106  0113                     	;# 
   107  0114                     	;# 
   108  0114                     	;# 
   109  0115                     	;# 
   110  0116                     	;# 
   111  0116                     	;# 
   112  0117                     	;# 
   113  0119                     	;# 
   114  0119                     	;# 
   115  0119                     	;# 
   116  011A                     	;# 
   117  011A                     	;# 
   118  011A                     	;# 
   119  011B                     	;# 
   120  011B                     	;# 
   121  011B                     	;# 
   122  011B                     	;# 
   123  011B                     	;# 
   124  011C                     	;# 
   125  011C                     	;# 
   126  011C                     	;# 
   127  011D                     	;# 
   128  011D                     	;# 
   129  011D                     	;# 
   130  011E                     	;# 
   131  011E                     	;# 
   132  011E                     	;# 
   133  011F                     	;# 
   134  011F                     	;# 
   135  011F                     	;# 
   136  011F                     	;# 
   137  011F                     	;# 
   138  018C                     	;# 
   139  018D                     	;# 
   140  018E                     	;# 
   141  018F                     	;# 
   142  0190                     	;# 
   143  0191                     	;# 
   144  0192                     	;# 
   145  0196                     	;# 
   146  0197                     	;# 
   147  0198                     	;# 
   148  0199                     	;# 
   149  019A                     	;# 
   150  019B                     	;# 
   151  019C                     	;# 
   152  020C                     	;# 
   153  020C                     	;# 
   154  020D                     	;# 
   155  020E                     	;# 
   156  020F                     	;# 
   157  020F                     	;# 
   158  0210                     	;# 
   159  0210                     	;# 
   160  0211                     	;# 
   161  0211                     	;# 
   162  0212                     	;# 
   163  0212                     	;# 
   164  0213                     	;# 
   165  0214                     	;# 
   166  0215                     	;# 
   167  0215                     	;# 
   168  0216                     	;# 
   169  0216                     	;# 
   170  0217                     	;# 
   171  0217                     	;# 
   172  0218                     	;# 
   173  0218                     	;# 
   174  0219                     	;# 
   175  021A                     	;# 
   176  021B                     	;# 
   177  021B                     	;# 
   178  021C                     	;# 
   179  021C                     	;# 
   180  021D                     	;# 
   181  021D                     	;# 
   182  021E                     	;# 
   183  021F                     	;# 
   184  028C                     	;# 
   185  028C                     	;# 
   186  028D                     	;# 
   187  028D                     	;# 
   188  028E                     	;# 
   189  028F                     	;# 
   190  0290                     	;# 
   191  0290                     	;# 
   192  0291                     	;# 
   193  0292                     	;# 
   194  0292                     	;# 
   195  0293                     	;# 
   196  0293                     	;# 
   197  0294                     	;# 
   198  0295                     	;# 
   199  0296                     	;# 
   200  0296                     	;# 
   201  0297                     	;# 
   202  0298                     	;# 
   203  0298                     	;# 
   204  0299                     	;# 
   205  0299                     	;# 
   206  029A                     	;# 
   207  029B                     	;# 
   208  029C                     	;# 
   209  029C                     	;# 
   210  029D                     	;# 
   211  030C                     	;# 
   212  030C                     	;# 
   213  030D                     	;# 
   214  030E                     	;# 
   215  030F                     	;# 
   216  0310                     	;# 
   217  0310                     	;# 
   218  0311                     	;# 
   219  0312                     	;# 
   220  0313                     	;# 
   221  0314                     	;# 
   222  0314                     	;# 
   223  0315                     	;# 
   224  0316                     	;# 
   225  0317                     	;# 
   226  0318                     	;# 
   227  0318                     	;# 
   228  0319                     	;# 
   229  031A                     	;# 
   230  031B                     	;# 
   231  031C                     	;# 
   232  031C                     	;# 
   233  031D                     	;# 
   234  031E                     	;# 
   235  031F                     	;# 
   236  038C                     	;# 
   237  038D                     	;# 
   238  038E                     	;# 
   239  0390                     	;# 
   240  0391                     	;# 
   241  0392                     	;# 
   242  040C                     	;# 
   243  040D                     	;# 
   244  040E                     	;# 
   245  040F                     	;# 
   246  0410                     	;# 
   247  0411                     	;# 
   248  0416                     	;# 
   249  0416                     	;# 
   250  0417                     	;# 
   251  0418                     	;# 
   252  0418                     	;# 
   253  0419                     	;# 
   254  041A                     	;# 
   255  041A                     	;# 
   256  041B                     	;# 
   257  041C                     	;# 
   258  041C                     	;# 
   259  041D                     	;# 
   260  041E                     	;# 
   261  041F                     	;# 
   262  048C                     	;# 
   263  048C                     	;# 
   264  048D                     	;# 
   265  048E                     	;# 
   266  048F                     	;# 
   267  048F                     	;# 
   268  0490                     	;# 
   269  0491                     	;# 
   270  0492                     	;# 
   271  0492                     	;# 
   272  0493                     	;# 
   273  0494                     	;# 
   274  0495                     	;# 
   275  0495                     	;# 
   276  0496                     	;# 
   277  0497                     	;# 
   278  0498                     	;# 
   279  0499                     	;# 
   280  049A                     	;# 
   281  049B                     	;# 
   282  049C                     	;# 
   283  049D                     	;# 
   284  050C                     	;# 
   285  050C                     	;# 
   286  050D                     	;# 
   287  050E                     	;# 
   288  050F                     	;# 
   289  050F                     	;# 
   290  0510                     	;# 
   291  0511                     	;# 
   292  0512                     	;# 
   293  0512                     	;# 
   294  0513                     	;# 
   295  0514                     	;# 
   296  0515                     	;# 
   297  0515                     	;# 
   298  0516                     	;# 
   299  0517                     	;# 
   300  0518                     	;# 
   301  0519                     	;# 
   302  051A                     	;# 
   303  051B                     	;# 
   304  051C                     	;# 
   305  051D                     	;# 
   306  058C                     	;# 
   307  058C                     	;# 
   308  058D                     	;# 
   309  058E                     	;# 
   310  058F                     	;# 
   311  058F                     	;# 
   312  0590                     	;# 
   313  0591                     	;# 
   314  0592                     	;# 
   315  0593                     	;# 
   316  060C                     	;# 
   317  060D                     	;# 
   318  060E                     	;# 
   319  060F                     	;# 
   320  0610                     	;# 
   321  0611                     	;# 
   322  0612                     	;# 
   323  0613                     	;# 
   324  0614                     	;# 
   325  0616                     	;# 
   326  0617                     	;# 
   327  0618                     	;# 
   328  0619                     	;# 
   329  061A                     	;# 
   330  061B                     	;# 
   331  061C                     	;# 
   332  061D                     	;# 
   333  061E                     	;# 
   334  068C                     	;# 
   335  068D                     	;# 
   336  068E                     	;# 
   337  068F                     	;# 
   338  0690                     	;# 
   339  0691                     	;# 
   340  0692                     	;# 
   341  0693                     	;# 
   342  0694                     	;# 
   343  070C                     	;# 
   344  070D                     	;# 
   345  070E                     	;# 
   346  070F                     	;# 
   347  0710                     	;# 
   348  0711                     	;# 
   349  0712                     	;# 
   350  0713                     	;# 
   351  0714                     	;# 
   352  0716                     	;# 
   353  0717                     	;# 
   354  0718                     	;# 
   355  0719                     	;# 
   356  071A                     	;# 
   357  071B                     	;# 
   358  071C                     	;# 
   359  071D                     	;# 
   360  071E                     	;# 
   361  0796                     	;# 
   362  0797                     	;# 
   363  0798                     	;# 
   364  0799                     	;# 
   365  079A                     	;# 
   366  079B                     	;# 
   367  080C                     	;# 
   368  080D                     	;# 
   369  080E                     	;# 
   370  080F                     	;# 
   371  0810                     	;# 
   372  0811                     	;# 
   373  0812                     	;# 
   374  0813                     	;# 
   375  0814                     	;# 
   376  081A                     	;# 
   377  081B                     	;# 
   378  081C                     	;# 
   379  081D                     	;# 
   380  081E                     	;# 
   381  081F                     	;# 
   382  088C                     	;# 
   383  088D                     	;# 
   384  088E                     	;# 
   385  088F                     	;# 
   386  0890                     	;# 
   387  0891                     	;# 
   388  0892                     	;# 
   389  0893                     	;# 
   390  0895                     	;# 
   391  0896                     	;# 
   392  0897                     	;# 
   393  0898                     	;# 
   394  0899                     	;# 
   395  089A                     	;# 
   396  089B                     	;# 
   397  090C                     	;# 
   398  090E                     	;# 
   399  090F                     	;# 
   400  091F                     	;# 
   401  098F                     	;# 
   402  098F                     	;# 
   403  0990                     	;# 
   404  0991                     	;# 
   405  0992                     	;# 
   406  0993                     	;# 
   407  0994                     	;# 
   408  0995                     	;# 
   409  0996                     	;# 
   410  0997                     	;# 
   411  0E0F                     	;# 
   412  0E10                     	;# 
   413  0E11                     	;# 
   414  0E12                     	;# 
   415  0E13                     	;# 
   416  0E14                     	;# 
   417  0E15                     	;# 
   418  0E16                     	;# 
   419  0E17                     	;# 
   420  0E18                     	;# 
   421  0E19                     	;# 
   422  0E1A                     	;# 
   423  0E1B                     	;# 
   424  0E1C                     	;# 
   425  0E1D                     	;# 
   426  0E1E                     	;# 
   427  0E1F                     	;# 
   428  0E20                     	;# 
   429  0E21                     	;# 
   430  0E22                     	;# 
   431  0E23                     	;# 
   432  0E24                     	;# 
   433  0E25                     	;# 
   434  0E26                     	;# 
   435  0E27                     	;# 
   436  0E28                     	;# 
   437  0E29                     	;# 
   438  0E2A                     	;# 
   439  0E2B                     	;# 
   440  0E2C                     	;# 
   441  0E2D                     	;# 
   442  0E2E                     	;# 
   443  0E2F                     	;# 
   444  0E30                     	;# 
   445  0E31                     	;# 
   446  0E32                     	;# 
   447  0E33                     	;# 
   448  0E34                     	;# 
   449  0E35                     	;# 
   450  0E36                     	;# 
   451  0E37                     	;# 
   452  0E8F                     	;# 
   453  0E90                     	;# 
   454  0E91                     	;# 
   455  0E92                     	;# 
   456  0E93                     	;# 
   457  0E94                     	;# 
   458  0E95                     	;# 
   459  0E96                     	;# 
   460  0E97                     	;# 
   461  0E9C                     	;# 
   462  0E9D                     	;# 
   463  0E9E                     	;# 
   464  0EA1                     	;# 
   465  0EA2                     	;# 
   466  0EA3                     	;# 
   467  0EA4                     	;# 
   468  0EA5                     	;# 
   469  0EA9                     	;# 
   470  0EAA                     	;# 
   471  0EAB                     	;# 
   472  0EAC                     	;# 
   473  0EB1                     	;# 
   474  0EB2                     	;# 
   475  0EB3                     	;# 
   476  0EB8                     	;# 
   477  0EB9                     	;# 
   478  0EBA                     	;# 
   479  0EBB                     	;# 
   480  0EBC                     	;# 
   481  0EBD                     	;# 
   482  0EBE                     	;# 
   483  0EC3                     	;# 
   484  0EC5                     	;# 
   485  0EC6                     	;# 
   486  0EC7                     	;# 
   487  0EC8                     	;# 
   488  0EC9                     	;# 
   489  0ECA                     	;# 
   490  0ECB                     	;# 
   491  0ECC                     	;# 
   492  0F10                     	;# 
   493  0F11                     	;# 
   494  0F12                     	;# 
   495  0F13                     	;# 
   496  0F14                     	;# 
   497  0F15                     	;# 
   498  0F16                     	;# 
   499  0F17                     	;# 
   500  0F18                     	;# 
   501  0F19                     	;# 
   502  0F1A                     	;# 
   503  0F1B                     	;# 
   504  0F1C                     	;# 
   505  0F1D                     	;# 
   506  0F1E                     	;# 
   507  0F1F                     	;# 
   508  0F20                     	;# 
   509  0F21                     	;# 
   510  0F22                     	;# 
   511  0F23                     	;# 
   512  0F24                     	;# 
   513  0F25                     	;# 
   514  0F26                     	;# 
   515  0F27                     	;# 
   516  0F38                     	;# 
   517  0F39                     	;# 
   518  0F3A                     	;# 
   519  0F3B                     	;# 
   520  0F3C                     	;# 
   521  0F3D                     	;# 
   522  0F3E                     	;# 
   523  0F3F                     	;# 
   524  0F40                     	;# 
   525  0F41                     	;# 
   526  0F43                     	;# 
   527  0F44                     	;# 
   528  0F45                     	;# 
   529  0F46                     	;# 
   530  0F47                     	;# 
   531  0F48                     	;# 
   532  0F49                     	;# 
   533  0F4A                     	;# 
   534  0F4B                     	;# 
   535  0F4C                     	;# 
   536  0F4E                     	;# 
   537  0F4F                     	;# 
   538  0F50                     	;# 
   539  0F51                     	;# 
   540  0F52                     	;# 
   541  0F53                     	;# 
   542  0F54                     	;# 
   543  0F55                     	;# 
   544  0F56                     	;# 
   545  0F57                     	;# 
   546  0F65                     	;# 
   547  0F68                     	;# 
   548  0F69                     	;# 
   549  0F6A                     	;# 
   550  0F6B                     	;# 
   551  0FE4                     	;# 
   552  0FE5                     	;# 
   553  0FE6                     	;# 
   554  0FE7                     	;# 
   555  0FE8                     	;# 
   556  0FE9                     	;# 
   557  0FEA                     	;# 
   558  0FEB                     	;# 
   559  0FED                     	;# 
   560  0FEE                     	;# 
   561  0FEF                     	;# 
   562  0000                     	;# 
   563  0001                     	;# 
   564  0002                     	;# 
   565  0003                     	;# 
   566  0004                     	;# 
   567  0005                     	;# 
   568  0006                     	;# 
   569  0007                     	;# 
   570  0008                     	;# 
   571  0009                     	;# 
   572  000A                     	;# 
   573  000B                     	;# 
   574  000C                     	;# 
   575  000D                     	;# 
   576  000E                     	;# 
   577  0010                     	;# 
   578  0011                     	;# 
   579  0012                     	;# 
   580  0013                     	;# 
   581  0016                     	;# 
   582  0017                     	;# 
   583  0018                     	;# 
   584  001C                     	;# 
   585  001C                     	;# 
   586  001D                     	;# 
   587  001D                     	;# 
   588  001E                     	;# 
   589  001F                     	;# 
   590  008C                     	;# 
   591  008C                     	;# 
   592  008D                     	;# 
   593  008E                     	;# 
   594  008E                     	;# 
   595  008F                     	;# 
   596  0090                     	;# 
   597  0090                     	;# 
   598  0091                     	;# 
   599  0093                     	;# 
   600  0094                     	;# 
   601  0095                     	;# 
   602  0096                     	;# 
   603  0097                     	;# 
   604  0098                     	;# 
   605  0099                     	;# 
   606  009A                     	;# 
   607  009B                     	;# 
   608  009C                     	;# 
   609  009D                     	;# 
   610  009E                     	;# 
   611  010C                     	;# 
   612  010D                     	;# 
   613  010E                     	;# 
   614  010E                     	;# 
   615  010F                     	;# 
   616  0110                     	;# 
   617  0110                     	;# 
   618  0111                     	;# 
   619  0112                     	;# 
   620  0112                     	;# 
   621  0113                     	;# 
   622  0114                     	;# 
   623  0114                     	;# 
   624  0115                     	;# 
   625  0116                     	;# 
   626  0116                     	;# 
   627  0117                     	;# 
   628  0119                     	;# 
   629  0119                     	;# 
   630  0119                     	;# 
   631  011A                     	;# 
   632  011A                     	;# 
   633  011A                     	;# 
   634  011B                     	;# 
   635  011B                     	;# 
   636  011B                     	;# 
   637  011B                     	;# 
   638  011B                     	;# 
   639  011C                     	;# 
   640  011C                     	;# 
   641  011C                     	;# 
   642  011D                     	;# 
   643  011D                     	;# 
   644  011D                     	;# 
   645  011E                     	;# 
   646  011E                     	;# 
   647  011E                     	;# 
   648  011F                     	;# 
   649  011F                     	;# 
   650  011F                     	;# 
   651  011F                     	;# 
   652  011F                     	;# 
   653  018C                     	;# 
   654  018D                     	;# 
   655  018E                     	;# 
   656  018F                     	;# 
   657  0190                     	;# 
   658  0191                     	;# 
   659  0192                     	;# 
   660  0196                     	;# 
   661  0197                     	;# 
   662  0198                     	;# 
   663  0199                     	;# 
   664  019A                     	;# 
   665  019B                     	;# 
   666  019C                     	;# 
   667  020C                     	;# 
   668  020C                     	;# 
   669  020D                     	;# 
   670  020E                     	;# 
   671  020F                     	;# 
   672  020F                     	;# 
   673  0210                     	;# 
   674  0210                     	;# 
   675  0211                     	;# 
   676  0211                     	;# 
   677  0212                     	;# 
   678  0212                     	;# 
   679  0213                     	;# 
   680  0214                     	;# 
   681  0215                     	;# 
   682  0215                     	;# 
   683  0216                     	;# 
   684  0216                     	;# 
   685  0217                     	;# 
   686  0217                     	;# 
   687  0218                     	;# 
   688  0218                     	;# 
   689  0219                     	;# 
   690  021A                     	;# 
   691  021B                     	;# 
   692  021B                     	;# 
   693  021C                     	;# 
   694  021C                     	;# 
   695  021D                     	;# 
   696  021D                     	;# 
   697  021E                     	;# 
   698  021F                     	;# 
   699  028C                     	;# 
   700  028C                     	;# 
   701  028D                     	;# 
   702  028D                     	;# 
   703  028E                     	;# 
   704  028F                     	;# 
   705  0290                     	;# 
   706  0290                     	;# 
   707  0291                     	;# 
   708  0292                     	;# 
   709  0292                     	;# 
   710  0293                     	;# 
   711  0293                     	;# 
   712  0294                     	;# 
   713  0295                     	;# 
   714  0296                     	;# 
   715  0296                     	;# 
   716  0297                     	;# 
   717  0298                     	;# 
   718  0298                     	;# 
   719  0299                     	;# 
   720  0299                     	;# 
   721  029A                     	;# 
   722  029B                     	;# 
   723  029C                     	;# 
   724  029C                     	;# 
   725  029D                     	;# 
   726  030C                     	;# 
   727  030C                     	;# 
   728  030D                     	;# 
   729  030E                     	;# 
   730  030F                     	;# 
   731  0310                     	;# 
   732  0310                     	;# 
   733  0311                     	;# 
   734  0312                     	;# 
   735  0313                     	;# 
   736  0314                     	;# 
   737  0314                     	;# 
   738  0315                     	;# 
   739  0316                     	;# 
   740  0317                     	;# 
   741  0318                     	;# 
   742  0318                     	;# 
   743  0319                     	;# 
   744  031A                     	;# 
   745  031B                     	;# 
   746  031C                     	;# 
   747  031C                     	;# 
   748  031D                     	;# 
   749  031E                     	;# 
   750  031F                     	;# 
   751  038C                     	;# 
   752  038D                     	;# 
   753  038E                     	;# 
   754  0390                     	;# 
   755  0391                     	;# 
   756  0392                     	;# 
   757  040C                     	;# 
   758  040D                     	;# 
   759  040E                     	;# 
   760  040F                     	;# 
   761  0410                     	;# 
   762  0411                     	;# 
   763  0416                     	;# 
   764  0416                     	;# 
   765  0417                     	;# 
   766  0418                     	;# 
   767  0418                     	;# 
   768  0419                     	;# 
   769  041A                     	;# 
   770  041A                     	;# 
   771  041B                     	;# 
   772  041C                     	;# 
   773  041C                     	;# 
   774  041D                     	;# 
   775  041E                     	;# 
   776  041F                     	;# 
   777  048C                     	;# 
   778  048C                     	;# 
   779  048D                     	;# 
   780  048E                     	;# 
   781  048F                     	;# 
   782  048F                     	;# 
   783  0490                     	;# 
   784  0491                     	;# 
   785  0492                     	;# 
   786  0492                     	;# 
   787  0493                     	;# 
   788  0494                     	;# 
   789  0495                     	;# 
   790  0495                     	;# 
   791  0496                     	;# 
   792  0497                     	;# 
   793  0498                     	;# 
   794  0499                     	;# 
   795  049A                     	;# 
   796  049B                     	;# 
   797  049C                     	;# 
   798  049D                     	;# 
   799  050C                     	;# 
   800  050C                     	;# 
   801  050D                     	;# 
   802  050E                     	;# 
   803  050F                     	;# 
   804  050F                     	;# 
   805  0510                     	;# 
   806  0511                     	;# 
   807  0512                     	;# 
   808  0512                     	;# 
   809  0513                     	;# 
   810  0514                     	;# 
   811  0515                     	;# 
   812  0515                     	;# 
   813  0516                     	;# 
   814  0517                     	;# 
   815  0518                     	;# 
   816  0519                     	;# 
   817  051A                     	;# 
   818  051B                     	;# 
   819  051C                     	;# 
   820  051D                     	;# 
   821  058C                     	;# 
   822  058C                     	;# 
   823  058D                     	;# 
   824  058E                     	;# 
   825  058F                     	;# 
   826  058F                     	;# 
   827  0590                     	;# 
   828  0591                     	;# 
   829  0592                     	;# 
   830  0593                     	;# 
   831  060C                     	;# 
   832  060D                     	;# 
   833  060E                     	;# 
   834  060F                     	;# 
   835  0610                     	;# 
   836  0611                     	;# 
   837  0612                     	;# 
   838  0613                     	;# 
   839  0614                     	;# 
   840  0616                     	;# 
   841  0617                     	;# 
   842  0618                     	;# 
   843  0619                     	;# 
   844  061A                     	;# 
   845  061B                     	;# 
   846  061C                     	;# 
   847  061D                     	;# 
   848  061E                     	;# 
   849  068C                     	;# 
   850  068D                     	;# 
   851  068E                     	;# 
   852  068F                     	;# 
   853  0690                     	;# 
   854  0691                     	;# 
   855  0692                     	;# 
   856  0693                     	;# 
   857  0694                     	;# 
   858  070C                     	;# 
   859  070D                     	;# 
   860  070E                     	;# 
   861  070F                     	;# 
   862  0710                     	;# 
   863  0711                     	;# 
   864  0712                     	;# 
   865  0713                     	;# 
   866  0714                     	;# 
   867  0716                     	;# 
   868  0717                     	;# 
   869  0718                     	;# 
   870  0719                     	;# 
   871  071A                     	;# 
   872  071B                     	;# 
   873  071C                     	;# 
   874  071D                     	;# 
   875  071E                     	;# 
   876  0796                     	;# 
   877  0797                     	;# 
   878  0798                     	;# 
   879  0799                     	;# 
   880  079A                     	;# 
   881  079B                     	;# 
   882  080C                     	;# 
   883  080D                     	;# 
   884  080E                     	;# 
   885  080F                     	;# 
   886  0810                     	;# 
   887  0811                     	;# 
   888  0812                     	;# 
   889  0813                     	;# 
   890  0814                     	;# 
   891  081A                     	;# 
   892  081B                     	;# 
   893  081C                     	;# 
   894  081D                     	;# 
   895  081E                     	;# 
   896  081F                     	;# 
   897  088C                     	;# 
   898  088D                     	;# 
   899  088E                     	;# 
   900  088F                     	;# 
   901  0890                     	;# 
   902  0891                     	;# 
   903  0892                     	;# 
   904  0893                     	;# 
   905  0895                     	;# 
   906  0896                     	;# 
   907  0897                     	;# 
   908  0898                     	;# 
   909  0899                     	;# 
   910  089A                     	;# 
   911  089B                     	;# 
   912  090C                     	;# 
   913  090E                     	;# 
   914  090F                     	;# 
   915  091F                     	;# 
   916  098F                     	;# 
   917  098F                     	;# 
   918  0990                     	;# 
   919  0991                     	;# 
   920  0992                     	;# 
   921  0993                     	;# 
   922  0994                     	;# 
   923  0995                     	;# 
   924  0996                     	;# 
   925  0997                     	;# 
   926  0E0F                     	;# 
   927  0E10                     	;# 
   928  0E11                     	;# 
   929  0E12                     	;# 
   930  0E13                     	;# 
   931  0E14                     	;# 
   932  0E15                     	;# 
   933  0E16                     	;# 
   934  0E17                     	;# 
   935  0E18                     	;# 
   936  0E19                     	;# 
   937  0E1A                     	;# 
   938  0E1B                     	;# 
   939  0E1C                     	;# 
   940  0E1D                     	;# 
   941  0E1E                     	;# 
   942  0E1F                     	;# 
   943  0E20                     	;# 
   944  0E21                     	;# 
   945  0E22                     	;# 
   946  0E23                     	;# 
   947  0E24                     	;# 
   948  0E25                     	;# 
   949  0E26                     	;# 
   950  0E27                     	;# 
   951  0E28                     	;# 
   952  0E29                     	;# 
   953  0E2A                     	;# 
   954  0E2B                     	;# 
   955  0E2C                     	;# 
   956  0E2D                     	;# 
   957  0E2E                     	;# 
   958  0E2F                     	;# 
   959  0E30                     	;# 
   960  0E31                     	;# 
   961  0E32                     	;# 
   962  0E33                     	;# 
   963  0E34                     	;# 
   964  0E35                     	;# 
   965  0E36                     	;# 
   966  0E37                     	;# 
   967  0E8F                     	;# 
   968  0E90                     	;# 
   969  0E91                     	;# 
   970  0E92                     	;# 
   971  0E93                     	;# 
   972  0E94                     	;# 
   973  0E95                     	;# 
   974  0E96                     	;# 
   975  0E97                     	;# 
   976  0E9C                     	;# 
   977  0E9D                     	;# 
   978  0E9E                     	;# 
   979  0EA1                     	;# 
   980  0EA2                     	;# 
   981  0EA3                     	;# 
   982  0EA4                     	;# 
   983  0EA5                     	;# 
   984  0EA9                     	;# 
   985  0EAA                     	;# 
   986  0EAB                     	;# 
   987  0EAC                     	;# 
   988  0EB1                     	;# 
   989  0EB2                     	;# 
   990  0EB3                     	;# 
   991  0EB8                     	;# 
   992  0EB9                     	;# 
   993  0EBA                     	;# 
   994  0EBB                     	;# 
   995  0EBC                     	;# 
   996  0EBD                     	;# 
   997  0EBE                     	;# 
   998  0EC3                     	;# 
   999  0EC5                     	;# 
  1000  0EC6                     	;# 
  1001  0EC7                     	;# 
  1002  0EC8                     	;# 
  1003  0EC9                     	;# 
  1004  0ECA                     	;# 
  1005  0ECB                     	;# 
  1006  0ECC                     	;# 
  1007  0F10                     	;# 
  1008  0F11                     	;# 
  1009  0F12                     	;# 
  1010  0F13                     	;# 
  1011  0F14                     	;# 
  1012  0F15                     	;# 
  1013  0F16                     	;# 
  1014  0F17                     	;# 
  1015  0F18                     	;# 
  1016  0F19                     	;# 
  1017  0F1A                     	;# 
  1018  0F1B                     	;# 
  1019  0F1C                     	;# 
  1020  0F1D                     	;# 
  1021  0F1E                     	;# 
  1022  0F1F                     	;# 
  1023  0F20                     	;# 
  1024  0F21                     	;# 
  1025  0F22                     	;# 
  1026  0F23                     	;# 
  1027  0F24                     	;# 
  1028  0F25                     	;# 
  1029  0F26                     	;# 
  1030  0F27                     	;# 
  1031  0F38                     	;# 
  1032  0F39                     	;# 
  1033  0F3A                     	;# 
  1034  0F3B                     	;# 
  1035  0F3C                     	;# 
  1036  0F3D                     	;# 
  1037  0F3E                     	;# 
  1038  0F3F                     	;# 
  1039  0F40                     	;# 
  1040  0F41                     	;# 
  1041  0F43                     	;# 
  1042  0F44                     	;# 
  1043  0F45                     	;# 
  1044  0F46                     	;# 
  1045  0F47                     	;# 
  1046  0F48                     	;# 
  1047  0F49                     	;# 
  1048  0F4A                     	;# 
  1049  0F4B                     	;# 
  1050  0F4C                     	;# 
  1051  0F4E                     	;# 
  1052  0F4F                     	;# 
  1053  0F50                     	;# 
  1054  0F51                     	;# 
  1055  0F52                     	;# 
  1056  0F53                     	;# 
  1057  0F54                     	;# 
  1058  0F55                     	;# 
  1059  0F56                     	;# 
  1060  0F57                     	;# 
  1061  0F65                     	;# 
  1062  0F68                     	;# 
  1063  0F69                     	;# 
  1064  0F6A                     	;# 
  1065  0F6B                     	;# 
  1066  0FE4                     	;# 
  1067  0FE5                     	;# 
  1068  0FE6                     	;# 
  1069  0FE7                     	;# 
  1070  0FE8                     	;# 
  1071  0FE9                     	;# 
  1072  0FEA                     	;# 
  1073  0FEB                     	;# 
  1074  0FED                     	;# 
  1075  0FEE                     	;# 
  1076  0FEF                     	;# 
  1077  0000                     	;# 
  1078  0001                     	;# 
  1079  0002                     	;# 
  1080  0003                     	;# 
  1081  0004                     	;# 
  1082  0005                     	;# 
  1083  0006                     	;# 
  1084  0007                     	;# 
  1085  0008                     	;# 
  1086  0009                     	;# 
  1087  000A                     	;# 
  1088  000B                     	;# 
  1089  000C                     	;# 
  1090  000D                     	;# 
  1091  000E                     	;# 
  1092  0010                     	;# 
  1093  0011                     	;# 
  1094  0012                     	;# 
  1095  0013                     	;# 
  1096  0016                     	;# 
  1097  0017                     	;# 
  1098  0018                     	;# 
  1099  001C                     	;# 
  1100  001C                     	;# 
  1101  001D                     	;# 
  1102  001D                     	;# 
  1103  001E                     	;# 
  1104  001F                     	;# 
  1105  008C                     	;# 
  1106  008C                     	;# 
  1107  008D                     	;# 
  1108  008E                     	;# 
  1109  008E                     	;# 
  1110  008F                     	;# 
  1111  0090                     	;# 
  1112  0090                     	;# 
  1113  0091                     	;# 
  1114  0093                     	;# 
  1115  0094                     	;# 
  1116  0095                     	;# 
  1117  0096                     	;# 
  1118  0097                     	;# 
  1119  0098                     	;# 
  1120  0099                     	;# 
  1121  009A                     	;# 
  1122  009B                     	;# 
  1123  009C                     	;# 
  1124  009D                     	;# 
  1125  009E                     	;# 
  1126  010C                     	;# 
  1127  010D                     	;# 
  1128  010E                     	;# 
  1129  010E                     	;# 
  1130  010F                     	;# 
  1131  0110                     	;# 
  1132  0110                     	;# 
  1133  0111                     	;# 
  1134  0112                     	;# 
  1135  0112                     	;# 
  1136  0113                     	;# 
  1137  0114                     	;# 
  1138  0114                     	;# 
  1139  0115                     	;# 
  1140  0116                     	;# 
  1141  0116                     	;# 
  1142  0117                     	;# 
  1143  0119                     	;# 
  1144  0119                     	;# 
  1145  0119                     	;# 
  1146  011A                     	;# 
  1147  011A                     	;# 
  1148  011A                     	;# 
  1149  011B                     	;# 
  1150  011B                     	;# 
  1151  011B                     	;# 
  1152  011B                     	;# 
  1153  011B                     	;# 
  1154  011C                     	;# 
  1155  011C                     	;# 
  1156  011C                     	;# 
  1157  011D                     	;# 
  1158  011D                     	;# 
  1159  011D                     	;# 
  1160  011E                     	;# 
  1161  011E                     	;# 
  1162  011E                     	;# 
  1163  011F                     	;# 
  1164  011F                     	;# 
  1165  011F                     	;# 
  1166  011F                     	;# 
  1167  011F                     	;# 
  1168  018C                     	;# 
  1169  018D                     	;# 
  1170  018E                     	;# 
  1171  018F                     	;# 
  1172  0190                     	;# 
  1173  0191                     	;# 
  1174  0192                     	;# 
  1175  0196                     	;# 
  1176  0197                     	;# 
  1177  0198                     	;# 
  1178  0199                     	;# 
  1179  019A                     	;# 
  1180  019B                     	;# 
  1181  019C                     	;# 
  1182  020C                     	;# 
  1183  020C                     	;# 
  1184  020D                     	;# 
  1185  020E                     	;# 
  1186  020F                     	;# 
  1187  020F                     	;# 
  1188  0210                     	;# 
  1189  0210                     	;# 
  1190  0211                     	;# 
  1191  0211                     	;# 
  1192  0212                     	;# 
  1193  0212                     	;# 
  1194  0213                     	;# 
  1195  0214                     	;# 
  1196  0215                     	;# 
  1197  0215                     	;# 
  1198  0216                     	;# 
  1199  0216                     	;# 
  1200  0217                     	;# 
  1201  0217                     	;# 
  1202  0218                     	;# 
  1203  0218                     	;# 
  1204  0219                     	;# 
  1205  021A                     	;# 
  1206  021B                     	;# 
  1207  021B                     	;# 
  1208  021C                     	;# 
  1209  021C                     	;# 
  1210  021D                     	;# 
  1211  021D                     	;# 
  1212  021E                     	;# 
  1213  021F                     	;# 
  1214  028C                     	;# 
  1215  028C                     	;# 
  1216  028D                     	;# 
  1217  028D                     	;# 
  1218  028E                     	;# 
  1219  028F                     	;# 
  1220  0290                     	;# 
  1221  0290                     	;# 
  1222  0291                     	;# 
  1223  0292                     	;# 
  1224  0292                     	;# 
  1225  0293                     	;# 
  1226  0293                     	;# 
  1227  0294                     	;# 
  1228  0295                     	;# 
  1229  0296                     	;# 
  1230  0296                     	;# 
  1231  0297                     	;# 
  1232  0298                     	;# 
  1233  0298                     	;# 
  1234  0299                     	;# 
  1235  0299                     	;# 
  1236  029A                     	;# 
  1237  029B                     	;# 
  1238  029C                     	;# 
  1239  029C                     	;# 
  1240  029D                     	;# 
  1241  030C                     	;# 
  1242  030C                     	;# 
  1243  030D                     	;# 
  1244  030E                     	;# 
  1245  030F                     	;# 
  1246  0310                     	;# 
  1247  0310                     	;# 
  1248  0311                     	;# 
  1249  0312                     	;# 
  1250  0313                     	;# 
  1251  0314                     	;# 
  1252  0314                     	;# 
  1253  0315                     	;# 
  1254  0316                     	;# 
  1255  0317                     	;# 
  1256  0318                     	;# 
  1257  0318                     	;# 
  1258  0319                     	;# 
  1259  031A                     	;# 
  1260  031B                     	;# 
  1261  031C                     	;# 
  1262  031C                     	;# 
  1263  031D                     	;# 
  1264  031E                     	;# 
  1265  031F                     	;# 
  1266  038C                     	;# 
  1267  038D                     	;# 
  1268  038E                     	;# 
  1269  0390                     	;# 
  1270  0391                     	;# 
  1271  0392                     	;# 
  1272  040C                     	;# 
  1273  040D                     	;# 
  1274  040E                     	;# 
  1275  040F                     	;# 
  1276  0410                     	;# 
  1277  0411                     	;# 
  1278  0416                     	;# 
  1279  0416                     	;# 
  1280  0417                     	;# 
  1281  0418                     	;# 
  1282  0418                     	;# 
  1283  0419                     	;# 
  1284  041A                     	;# 
  1285  041A                     	;# 
  1286  041B                     	;# 
  1287  041C                     	;# 
  1288  041C                     	;# 
  1289  041D                     	;# 
  1290  041E                     	;# 
  1291  041F                     	;# 
  1292  048C                     	;# 
  1293  048C                     	;# 
  1294  048D                     	;# 
  1295  048E                     	;# 
  1296  048F                     	;# 
  1297  048F                     	;# 
  1298  0490                     	;# 
  1299  0491                     	;# 
  1300  0492                     	;# 
  1301  0492                     	;# 
  1302  0493                     	;# 
  1303  0494                     	;# 
  1304  0495                     	;# 
  1305  0495                     	;# 
  1306  0496                     	;# 
  1307  0497                     	;# 
  1308  0498                     	;# 
  1309  0499                     	;# 
  1310  049A                     	;# 
  1311  049B                     	;# 
  1312  049C                     	;# 
  1313  049D                     	;# 
  1314  050C                     	;# 
  1315  050C                     	;# 
  1316  050D                     	;# 
  1317  050E                     	;# 
  1318  050F                     	;# 
  1319  050F                     	;# 
  1320  0510                     	;# 
  1321  0511                     	;# 
  1322  0512                     	;# 
  1323  0512                     	;# 
  1324  0513                     	;# 
  1325  0514                     	;# 
  1326  0515                     	;# 
  1327  0515                     	;# 
  1328  0516                     	;# 
  1329  0517                     	;# 
  1330  0518                     	;# 
  1331  0519                     	;# 
  1332  051A                     	;# 
  1333  051B                     	;# 
  1334  051C                     	;# 
  1335  051D                     	;# 
  1336  058C                     	;# 
  1337  058C                     	;# 
  1338  058D                     	;# 
  1339  058E                     	;# 
  1340  058F                     	;# 
  1341  058F                     	;# 
  1342  0590                     	;# 
  1343  0591                     	;# 
  1344  0592                     	;# 
  1345  0593                     	;# 
  1346  060C                     	;# 
  1347  060D                     	;# 
  1348  060E                     	;# 
  1349  060F                     	;# 
  1350  0610                     	;# 
  1351  0611                     	;# 
  1352  0612                     	;# 
  1353  0613                     	;# 
  1354  0614                     	;# 
  1355  0616                     	;# 
  1356  0617                     	;# 
  1357  0618                     	;# 
  1358  0619                     	;# 
  1359  061A                     	;# 
  1360  061B                     	;# 
  1361  061C                     	;# 
  1362  061D                     	;# 
  1363  061E                     	;# 
  1364  068C                     	;# 
  1365  068D                     	;# 
  1366  068E                     	;# 
  1367  068F                     	;# 
  1368  0690                     	;# 
  1369  0691                     	;# 
  1370  0692                     	;# 
  1371  0693                     	;# 
  1372  0694                     	;# 
  1373  070C                     	;# 
  1374  070D                     	;# 
  1375  070E                     	;# 
  1376  070F                     	;# 
  1377  0710                     	;# 
  1378  0711                     	;# 
  1379  0712                     	;# 
  1380  0713                     	;# 
  1381  0714                     	;# 
  1382  0716                     	;# 
  1383  0717                     	;# 
  1384  0718                     	;# 
  1385  0719                     	;# 
  1386  071A                     	;# 
  1387  071B                     	;# 
  1388  071C                     	;# 
  1389  071D                     	;# 
  1390  071E                     	;# 
  1391  0796                     	;# 
  1392  0797                     	;# 
  1393  0798                     	;# 
  1394  0799                     	;# 
  1395  079A                     	;# 
  1396  079B                     	;# 
  1397  080C                     	;# 
  1398  080D                     	;# 
  1399  080E                     	;# 
  1400  080F                     	;# 
  1401  0810                     	;# 
  1402  0811                     	;# 
  1403  0812                     	;# 
  1404  0813                     	;# 
  1405  0814                     	;# 
  1406  081A                     	;# 
  1407  081B                     	;# 
  1408  081C                     	;# 
  1409  081D                     	;# 
  1410  081E                     	;# 
  1411  081F                     	;# 
  1412  088C                     	;# 
  1413  088D                     	;# 
  1414  088E                     	;# 
  1415  088F                     	;# 
  1416  0890                     	;# 
  1417  0891                     	;# 
  1418  0892                     	;# 
  1419  0893                     	;# 
  1420  0895                     	;# 
  1421  0896                     	;# 
  1422  0897                     	;# 
  1423  0898                     	;# 
  1424  0899                     	;# 
  1425  089A                     	;# 
  1426  089B                     	;# 
  1427  090C                     	;# 
  1428  090E                     	;# 
  1429  090F                     	;# 
  1430  091F                     	;# 
  1431  098F                     	;# 
  1432  098F                     	;# 
  1433  0990                     	;# 
  1434  0991                     	;# 
  1435  0992                     	;# 
  1436  0993                     	;# 
  1437  0994                     	;# 
  1438  0995                     	;# 
  1439  0996                     	;# 
  1440  0997                     	;# 
  1441  0E0F                     	;# 
  1442  0E10                     	;# 
  1443  0E11                     	;# 
  1444  0E12                     	;# 
  1445  0E13                     	;# 
  1446  0E14                     	;# 
  1447  0E15                     	;# 
  1448  0E16                     	;# 
  1449  0E17                     	;# 
  1450  0E18                     	;# 
  1451  0E19                     	;# 
  1452  0E1A                     	;# 
  1453  0E1B                     	;# 
  1454  0E1C                     	;# 
  1455  0E1D                     	;# 
  1456  0E1E                     	;# 
  1457  0E1F                     	;# 
  1458  0E20                     	;# 
  1459  0E21                     	;# 
  1460  0E22                     	;# 
  1461  0E23                     	;# 
  1462  0E24                     	;# 
  1463  0E25                     	;# 
  1464  0E26                     	;# 
  1465  0E27                     	;# 
  1466  0E28                     	;# 
  1467  0E29                     	;# 
  1468  0E2A                     	;# 
  1469  0E2B                     	;# 
  1470  0E2C                     	;# 
  1471  0E2D                     	;# 
  1472  0E2E                     	;# 
  1473  0E2F                     	;# 
  1474  0E30                     	;# 
  1475  0E31                     	;# 
  1476  0E32                     	;# 
  1477  0E33                     	;# 
  1478  0E34                     	;# 
  1479  0E35                     	;# 
  1480  0E36                     	;# 
  1481  0E37                     	;# 
  1482  0E8F                     	;# 
  1483  0E90                     	;# 
  1484  0E91                     	;# 
  1485  0E92                     	;# 
  1486  0E93                     	;# 
  1487  0E94                     	;# 
  1488  0E95                     	;# 
  1489  0E96                     	;# 
  1490  0E97                     	;# 
  1491  0E9C                     	;# 
  1492  0E9D                     	;# 
  1493  0E9E                     	;# 
  1494  0EA1                     	;# 
  1495  0EA2                     	;# 
  1496  0EA3                     	;# 
  1497  0EA4                     	;# 
  1498  0EA5                     	;# 
  1499  0EA9                     	;# 
  1500  0EAA                     	;# 
  1501  0EAB                     	;# 
  1502  0EAC                     	;# 
  1503  0EB1                     	;# 
  1504  0EB2                     	;# 
  1505  0EB3                     	;# 
  1506  0EB8                     	;# 
  1507  0EB9                     	;# 
  1508  0EBA                     	;# 
  1509  0EBB                     	;# 
  1510  0EBC                     	;# 
  1511  0EBD                     	;# 
  1512  0EBE                     	;# 
  1513  0EC3                     	;# 
  1514  0EC5                     	;# 
  1515  0EC6                     	;# 
  1516  0EC7                     	;# 
  1517  0EC8                     	;# 
  1518  0EC9                     	;# 
  1519  0ECA                     	;# 
  1520  0ECB                     	;# 
  1521  0ECC                     	;# 
  1522  0F10                     	;# 
  1523  0F11                     	;# 
  1524  0F12                     	;# 
  1525  0F13                     	;# 
  1526  0F14                     	;# 
  1527  0F15                     	;# 
  1528  0F16                     	;# 
  1529  0F17                     	;# 
  1530  0F18                     	;# 
  1531  0F19                     	;# 
  1532  0F1A                     	;# 
  1533  0F1B                     	;# 
  1534  0F1C                     	;# 
  1535  0F1D                     	;# 
  1536  0F1E                     	;# 
  1537  0F1F                     	;# 
  1538  0F20                     	;# 
  1539  0F21                     	;# 
  1540  0F22                     	;# 
  1541  0F23                     	;# 
  1542  0F24                     	;# 
  1543  0F25                     	;# 
  1544  0F26                     	;# 
  1545  0F27                     	;# 
  1546  0F38                     	;# 
  1547  0F39                     	;# 
  1548  0F3A                     	;# 
  1549  0F3B                     	;# 
  1550  0F3C                     	;# 
  1551  0F3D                     	;# 
  1552  0F3E                     	;# 
  1553  0F3F                     	;# 
  1554  0F40                     	;# 
  1555  0F41                     	;# 
  1556  0F43                     	;# 
  1557  0F44                     	;# 
  1558  0F45                     	;# 
  1559  0F46                     	;# 
  1560  0F47                     	;# 
  1561  0F48                     	;# 
  1562  0F49                     	;# 
  1563  0F4A                     	;# 
  1564  0F4B                     	;# 
  1565  0F4C                     	;# 
  1566  0F4E                     	;# 
  1567  0F4F                     	;# 
  1568  0F50                     	;# 
  1569  0F51                     	;# 
  1570  0F52                     	;# 
  1571  0F53                     	;# 
  1572  0F54                     	;# 
  1573  0F55                     	;# 
  1574  0F56                     	;# 
  1575  0F57                     	;# 
  1576  0F65                     	;# 
  1577  0F68                     	;# 
  1578  0F69                     	;# 
  1579  0F6A                     	;# 
  1580  0F6B                     	;# 
  1581  0FE4                     	;# 
  1582  0FE5                     	;# 
  1583  0FE6                     	;# 
  1584  0FE7                     	;# 
  1585  0FE8                     	;# 
  1586  0FE9                     	;# 
  1587  0FEA                     	;# 
  1588  0FEB                     	;# 
  1589  0FED                     	;# 
  1590  0FEE                     	;# 
  1591  0FEF                     	;# 
  1592  0000                     	;# 
  1593  0001                     	;# 
  1594  0002                     	;# 
  1595  0003                     	;# 
  1596  0004                     	;# 
  1597  0005                     	;# 
  1598  0006                     	;# 
  1599  0007                     	;# 
  1600  0008                     	;# 
  1601  0009                     	;# 
  1602  000A                     	;# 
  1603  000B                     	;# 
  1604  000C                     	;# 
  1605  000D                     	;# 
  1606  000E                     	;# 
  1607  0010                     	;# 
  1608  0011                     	;# 
  1609  0012                     	;# 
  1610  0013                     	;# 
  1611  0016                     	;# 
  1612  0017                     	;# 
  1613  0018                     	;# 
  1614  001C                     	;# 
  1615  001C                     	;# 
  1616  001D                     	;# 
  1617  001D                     	;# 
  1618  001E                     	;# 
  1619  001F                     	;# 
  1620  008C                     	;# 
  1621  008C                     	;# 
  1622  008D                     	;# 
  1623  008E                     	;# 
  1624  008E                     	;# 
  1625  008F                     	;# 
  1626  0090                     	;# 
  1627  0090                     	;# 
  1628  0091                     	;# 
  1629  0093                     	;# 
  1630  0094                     	;# 
  1631  0095                     	;# 
  1632  0096                     	;# 
  1633  0097                     	;# 
  1634  0098                     	;# 
  1635  0099                     	;# 
  1636  009A                     	;# 
  1637  009B                     	;# 
  1638  009C                     	;# 
  1639  009D                     	;# 
  1640  009E                     	;# 
  1641  010C                     	;# 
  1642  010D                     	;# 
  1643  010E                     	;# 
  1644  010E                     	;# 
  1645  010F                     	;# 
  1646  0110                     	;# 
  1647  0110                     	;# 
  1648  0111                     	;# 
  1649  0112                     	;# 
  1650  0112                     	;# 
  1651  0113                     	;# 
  1652  0114                     	;# 
  1653  0114                     	;# 
  1654  0115                     	;# 
  1655  0116                     	;# 
  1656  0116                     	;# 
  1657  0117                     	;# 
  1658  0119                     	;# 
  1659  0119                     	;# 
  1660  0119                     	;# 
  1661  011A                     	;# 
  1662  011A                     	;# 
  1663  011A                     	;# 
  1664  011B                     	;# 
  1665  011B                     	;# 
  1666  011B                     	;# 
  1667  011B                     	;# 
  1668  011B                     	;# 
  1669  011C                     	;# 
  1670  011C                     	;# 
  1671  011C                     	;# 
  1672  011D                     	;# 
  1673  011D                     	;# 
  1674  011D                     	;# 
  1675  011E                     	;# 
  1676  011E                     	;# 
  1677  011E                     	;# 
  1678  011F                     	;# 
  1679  011F                     	;# 
  1680  011F                     	;# 
  1681  011F                     	;# 
  1682  011F                     	;# 
  1683  018C                     	;# 
  1684  018D                     	;# 
  1685  018E                     	;# 
  1686  018F                     	;# 
  1687  0190                     	;# 
  1688  0191                     	;# 
  1689  0192                     	;# 
  1690  0196                     	;# 
  1691  0197                     	;# 
  1692  0198                     	;# 
  1693  0199                     	;# 
  1694  019A                     	;# 
  1695  019B                     	;# 
  1696  019C                     	;# 
  1697  020C                     	;# 
  1698  020C                     	;# 
  1699  020D                     	;# 
  1700  020E                     	;# 
  1701  020F                     	;# 
  1702  020F                     	;# 
  1703  0210                     	;# 
  1704  0210                     	;# 
  1705  0211                     	;# 
  1706  0211                     	;# 
  1707  0212                     	;# 
  1708  0212                     	;# 
  1709  0213                     	;# 
  1710  0214                     	;# 
  1711  0215                     	;# 
  1712  0215                     	;# 
  1713  0216                     	;# 
  1714  0216                     	;# 
  1715  0217                     	;# 
  1716  0217                     	;# 
  1717  0218                     	;# 
  1718  0218                     	;# 
  1719  0219                     	;# 
  1720  021A                     	;# 
  1721  021B                     	;# 
  1722  021B                     	;# 
  1723  021C                     	;# 
  1724  021C                     	;# 
  1725  021D                     	;# 
  1726  021D                     	;# 
  1727  021E                     	;# 
  1728  021F                     	;# 
  1729  028C                     	;# 
  1730  028C                     	;# 
  1731  028D                     	;# 
  1732  028D                     	;# 
  1733  028E                     	;# 
  1734  028F                     	;# 
  1735  0290                     	;# 
  1736  0290                     	;# 
  1737  0291                     	;# 
  1738  0292                     	;# 
  1739  0292                     	;# 
  1740  0293                     	;# 
  1741  0293                     	;# 
  1742  0294                     	;# 
  1743  0295                     	;# 
  1744  0296                     	;# 
  1745  0296                     	;# 
  1746  0297                     	;# 
  1747  0298                     	;# 
  1748  0298                     	;# 
  1749  0299                     	;# 
  1750  0299                     	;# 
  1751  029A                     	;# 
  1752  029B                     	;# 
  1753  029C                     	;# 
  1754  029C                     	;# 
  1755  029D                     	;# 
  1756  030C                     	;# 
  1757  030C                     	;# 
  1758  030D                     	;# 
  1759  030E                     	;# 
  1760  030F                     	;# 
  1761  0310                     	;# 
  1762  0310                     	;# 
  1763  0311                     	;# 
  1764  0312                     	;# 
  1765  0313                     	;# 
  1766  0314                     	;# 
  1767  0314                     	;# 
  1768  0315                     	;# 
  1769  0316                     	;# 
  1770  0317                     	;# 
  1771  0318                     	;# 
  1772  0318                     	;# 
  1773  0319                     	;# 
  1774  031A                     	;# 
  1775  031B                     	;# 
  1776  031C                     	;# 
  1777  031C                     	;# 
  1778  031D                     	;# 
  1779  031E                     	;# 
  1780  031F                     	;# 
  1781  038C                     	;# 
  1782  038D                     	;# 
  1783  038E                     	;# 
  1784  0390                     	;# 
  1785  0391                     	;# 
  1786  0392                     	;# 
  1787  040C                     	;# 
  1788  040D                     	;# 
  1789  040E                     	;# 
  1790  040F                     	;# 
  1791  0410                     	;# 
  1792  0411                     	;# 
  1793  0416                     	;# 
  1794  0416                     	;# 
  1795  0417                     	;# 
  1796  0418                     	;# 
  1797  0418                     	;# 
  1798  0419                     	;# 
  1799  041A                     	;# 
  1800  041A                     	;# 
  1801  041B                     	;# 
  1802  041C                     	;# 
  1803  041C                     	;# 
  1804  041D                     	;# 
  1805  041E                     	;# 
  1806  041F                     	;# 
  1807  048C                     	;# 
  1808  048C                     	;# 
  1809  048D                     	;# 
  1810  048E                     	;# 
  1811  048F                     	;# 
  1812  048F                     	;# 
  1813  0490                     	;# 
  1814  0491                     	;# 
  1815  0492                     	;# 
  1816  0492                     	;# 
  1817  0493                     	;# 
  1818  0494                     	;# 
  1819  0495                     	;# 
  1820  0495                     	;# 
  1821  0496                     	;# 
  1822  0497                     	;# 
  1823  0498                     	;# 
  1824  0499                     	;# 
  1825  049A                     	;# 
  1826  049B                     	;# 
  1827  049C                     	;# 
  1828  049D                     	;# 
  1829  050C                     	;# 
  1830  050C                     	;# 
  1831  050D                     	;# 
  1832  050E                     	;# 
  1833  050F                     	;# 
  1834  050F                     	;# 
  1835  0510                     	;# 
  1836  0511                     	;# 
  1837  0512                     	;# 
  1838  0512                     	;# 
  1839  0513                     	;# 
  1840  0514                     	;# 
  1841  0515                     	;# 
  1842  0515                     	;# 
  1843  0516                     	;# 
  1844  0517                     	;# 
  1845  0518                     	;# 
  1846  0519                     	;# 
  1847  051A                     	;# 
  1848  051B                     	;# 
  1849  051C                     	;# 
  1850  051D                     	;# 
  1851  058C                     	;# 
  1852  058C                     	;# 
  1853  058D                     	;# 
  1854  058E                     	;# 
  1855  058F                     	;# 
  1856  058F                     	;# 
  1857  0590                     	;# 
  1858  0591                     	;# 
  1859  0592                     	;# 
  1860  0593                     	;# 
  1861  060C                     	;# 
  1862  060D                     	;# 
  1863  060E                     	;# 
  1864  060F                     	;# 
  1865  0610                     	;# 
  1866  0611                     	;# 
  1867  0612                     	;# 
  1868  0613                     	;# 
  1869  0614                     	;# 
  1870  0616                     	;# 
  1871  0617                     	;# 
  1872  0618                     	;# 
  1873  0619                     	;# 
  1874  061A                     	;# 
  1875  061B                     	;# 
  1876  061C                     	;# 
  1877  061D                     	;# 
  1878  061E                     	;# 
  1879  068C                     	;# 
  1880  068D                     	;# 
  1881  068E                     	;# 
  1882  068F                     	;# 
  1883  0690                     	;# 
  1884  0691                     	;# 
  1885  0692                     	;# 
  1886  0693                     	;# 
  1887  0694                     	;# 
  1888  070C                     	;# 
  1889  070D                     	;# 
  1890  070E                     	;# 
  1891  070F                     	;# 
  1892  0710                     	;# 
  1893  0711                     	;# 
  1894  0712                     	;# 
  1895  0713                     	;# 
  1896  0714                     	;# 
  1897  0716                     	;# 
  1898  0717                     	;# 
  1899  0718                     	;# 
  1900  0719                     	;# 
  1901  071A                     	;# 
  1902  071B                     	;# 
  1903  071C                     	;# 
  1904  071D                     	;# 
  1905  071E                     	;# 
  1906  0796                     	;# 
  1907  0797                     	;# 
  1908  0798                     	;# 
  1909  0799                     	;# 
  1910  079A                     	;# 
  1911  079B                     	;# 
  1912  080C                     	;# 
  1913  080D                     	;# 
  1914  080E                     	;# 
  1915  080F                     	;# 
  1916  0810                     	;# 
  1917  0811                     	;# 
  1918  0812                     	;# 
  1919  0813                     	;# 
  1920  0814                     	;# 
  1921  081A                     	;# 
  1922  081B                     	;# 
  1923  081C                     	;# 
  1924  081D                     	;# 
  1925  081E                     	;# 
  1926  081F                     	;# 
  1927  088C                     	;# 
  1928  088D                     	;# 
  1929  088E                     	;# 
  1930  088F                     	;# 
  1931  0890                     	;# 
  1932  0891                     	;# 
  1933  0892                     	;# 
  1934  0893                     	;# 
  1935  0895                     	;# 
  1936  0896                     	;# 
  1937  0897                     	;# 
  1938  0898                     	;# 
  1939  0899                     	;# 
  1940  089A                     	;# 
  1941  089B                     	;# 
  1942  090C                     	;# 
  1943  090E                     	;# 
  1944  090F                     	;# 
  1945  091F                     	;# 
  1946  098F                     	;# 
  1947  098F                     	;# 
  1948  0990                     	;# 
  1949  0991                     	;# 
  1950  0992                     	;# 
  1951  0993                     	;# 
  1952  0994                     	;# 
  1953  0995                     	;# 
  1954  0996                     	;# 
  1955  0997                     	;# 
  1956  0E0F                     	;# 
  1957  0E10                     	;# 
  1958  0E11                     	;# 
  1959  0E12                     	;# 
  1960  0E13                     	;# 
  1961  0E14                     	;# 
  1962  0E15                     	;# 
  1963  0E16                     	;# 
  1964  0E17                     	;# 
  1965  0E18                     	;# 
  1966  0E19                     	;# 
  1967  0E1A                     	;# 
  1968  0E1B                     	;# 
  1969  0E1C                     	;# 
  1970  0E1D                     	;# 
  1971  0E1E                     	;# 
  1972  0E1F                     	;# 
  1973  0E20                     	;# 
  1974  0E21                     	;# 
  1975  0E22                     	;# 
  1976  0E23                     	;# 
  1977  0E24                     	;# 
  1978  0E25                     	;# 
  1979  0E26                     	;# 
  1980  0E27                     	;# 
  1981  0E28                     	;# 
  1982  0E29                     	;# 
  1983  0E2A                     	;# 
  1984  0E2B                     	;# 
  1985  0E2C                     	;# 
  1986  0E2D                     	;# 
  1987  0E2E                     	;# 
  1988  0E2F                     	;# 
  1989  0E30                     	;# 
  1990  0E31                     	;# 
  1991  0E32                     	;# 
  1992  0E33                     	;# 
  1993  0E34                     	;# 
  1994  0E35                     	;# 
  1995  0E36                     	;# 
  1996  0E37                     	;# 
  1997  0E8F                     	;# 
  1998  0E90                     	;# 
  1999  0E91                     	;# 
  2000  0E92                     	;# 
  2001  0E93                     	;# 
  2002  0E94                     	;# 
  2003  0E95                     	;# 
  2004  0E96                     	;# 
  2005  0E97                     	;# 
  2006  0E9C                     	;# 
  2007  0E9D                     	;# 
  2008  0E9E                     	;# 
  2009  0EA1                     	;# 
  2010  0EA2                     	;# 
  2011  0EA3                     	;# 
  2012  0EA4                     	;# 
  2013  0EA5                     	;# 
  2014  0EA9                     	;# 
  2015  0EAA                     	;# 
  2016  0EAB                     	;# 
  2017  0EAC                     	;# 
  2018  0EB1                     	;# 
  2019  0EB2                     	;# 
  2020  0EB3                     	;# 
  2021  0EB8                     	;# 
  2022  0EB9                     	;# 
  2023  0EBA                     	;# 
  2024  0EBB                     	;# 
  2025  0EBC                     	;# 
  2026  0EBD                     	;# 
  2027  0EBE                     	;# 
  2028  0EC3                     	;# 
  2029  0EC5                     	;# 
  2030  0EC6                     	;# 
  2031  0EC7                     	;# 
  2032  0EC8                     	;# 
  2033  0EC9                     	;# 
  2034  0ECA                     	;# 
  2035  0ECB                     	;# 
  2036  0ECC                     	;# 
  2037  0F10                     	;# 
  2038  0F11                     	;# 
  2039  0F12                     	;# 
  2040  0F13                     	;# 
  2041  0F14                     	;# 
  2042  0F15                     	;# 
  2043  0F16                     	;# 
  2044  0F17                     	;# 
  2045  0F18                     	;# 
  2046  0F19                     	;# 
  2047  0F1A                     	;# 
  2048  0F1B                     	;# 
  2049  0F1C                     	;# 
  2050  0F1D                     	;# 
  2051  0F1E                     	;# 
  2052  0F1F                     	;# 
  2053  0F20                     	;# 
  2054  0F21                     	;# 
  2055  0F22                     	;# 
  2056  0F23                     	;# 
  2057  0F24                     	;# 
  2058  0F25                     	;# 
  2059  0F26                     	;# 
  2060  0F27                     	;# 
  2061  0F38                     	;# 
  2062  0F39                     	;# 
  2063  0F3A                     	;# 
  2064  0F3B                     	;# 
  2065  0F3C                     	;# 
  2066  0F3D                     	;# 
  2067  0F3E                     	;# 
  2068  0F3F                     	;# 
  2069  0F40                     	;# 
  2070  0F41                     	;# 
  2071  0F43                     	;# 
  2072  0F44                     	;# 
  2073  0F45                     	;# 
  2074  0F46                     	;# 
  2075  0F47                     	;# 
  2076  0F48                     	;# 
  2077  0F49                     	;# 
  2078  0F4A                     	;# 
  2079  0F4B                     	;# 
  2080  0F4C                     	;# 
  2081  0F4E                     	;# 
  2082  0F4F                     	;# 
  2083  0F50                     	;# 
  2084  0F51                     	;# 
  2085  0F52                     	;# 
  2086  0F53                     	;# 
  2087  0F54                     	;# 
  2088  0F55                     	;# 
  2089  0F56                     	;# 
  2090  0F57                     	;# 
  2091  0F65                     	;# 
  2092  0F68                     	;# 
  2093  0F69                     	;# 
  2094  0F6A                     	;# 
  2095  0F6B                     	;# 
  2096  0FE4                     	;# 
  2097  0FE5                     	;# 
  2098  0FE6                     	;# 
  2099  0FE7                     	;# 
  2100  0FE8                     	;# 
  2101  0FE9                     	;# 
  2102  0FEA                     	;# 
  2103  0FEB                     	;# 
  2104  0FED                     	;# 
  2105  0FEE                     	;# 
  2106  0FEF                     	;# 
  2107  0000                     	;# 
  2108  0001                     	;# 
  2109  0002                     	;# 
  2110  0003                     	;# 
  2111  0004                     	;# 
  2112  0005                     	;# 
  2113  0006                     	;# 
  2114  0007                     	;# 
  2115  0008                     	;# 
  2116  0009                     	;# 
  2117  000A                     	;# 
  2118  000B                     	;# 
  2119  000C                     	;# 
  2120  000D                     	;# 
  2121  000E                     	;# 
  2122  0010                     	;# 
  2123  0011                     	;# 
  2124  0012                     	;# 
  2125  0013                     	;# 
  2126  0016                     	;# 
  2127  0017                     	;# 
  2128  0018                     	;# 
  2129  001C                     	;# 
  2130  001C                     	;# 
  2131  001D                     	;# 
  2132  001D                     	;# 
  2133  001E                     	;# 
  2134  001F                     	;# 
  2135  008C                     	;# 
  2136  008C                     	;# 
  2137  008D                     	;# 
  2138  008E                     	;# 
  2139  008E                     	;# 
  2140  008F                     	;# 
  2141  0090                     	;# 
  2142  0090                     	;# 
  2143  0091                     	;# 
  2144  0093                     	;# 
  2145  0094                     	;# 
  2146  0095                     	;# 
  2147  0096                     	;# 
  2148  0097                     	;# 
  2149  0098                     	;# 
  2150  0099                     	;# 
  2151  009A                     	;# 
  2152  009B                     	;# 
  2153  009C                     	;# 
  2154  009D                     	;# 
  2155  009E                     	;# 
  2156  010C                     	;# 
  2157  010D                     	;# 
  2158  010E                     	;# 
  2159  010E                     	;# 
  2160  010F                     	;# 
  2161  0110                     	;# 
  2162  0110                     	;# 
  2163  0111                     	;# 
  2164  0112                     	;# 
  2165  0112                     	;# 
  2166  0113                     	;# 
  2167  0114                     	;# 
  2168  0114                     	;# 
  2169  0115                     	;# 
  2170  0116                     	;# 
  2171  0116                     	;# 
  2172  0117                     	;# 
  2173  0119                     	;# 
  2174  0119                     	;# 
  2175  0119                     	;# 
  2176  011A                     	;# 
  2177  011A                     	;# 
  2178  011A                     	;# 
  2179  011B                     	;# 
  2180  011B                     	;# 
  2181  011B                     	;# 
  2182  011B                     	;# 
  2183  011B                     	;# 
  2184  011C                     	;# 
  2185  011C                     	;# 
  2186  011C                     	;# 
  2187  011D                     	;# 
  2188  011D                     	;# 
  2189  011D                     	;# 
  2190  011E                     	;# 
  2191  011E                     	;# 
  2192  011E                     	;# 
  2193  011F                     	;# 
  2194  011F                     	;# 
  2195  011F                     	;# 
  2196  011F                     	;# 
  2197  011F                     	;# 
  2198  018C                     	;# 
  2199  018D                     	;# 
  2200  018E                     	;# 
  2201  018F                     	;# 
  2202  0190                     	;# 
  2203  0191                     	;# 
  2204  0192                     	;# 
  2205  0196                     	;# 
  2206  0197                     	;# 
  2207  0198                     	;# 
  2208  0199                     	;# 
  2209  019A                     	;# 
  2210  019B                     	;# 
  2211  019C                     	;# 
  2212  020C                     	;# 
  2213  020C                     	;# 
  2214  020D                     	;# 
  2215  020E                     	;# 
  2216  020F                     	;# 
  2217  020F                     	;# 
  2218  0210                     	;# 
  2219  0210                     	;# 
  2220  0211                     	;# 
  2221  0211                     	;# 
  2222  0212                     	;# 
  2223  0212                     	;# 
  2224  0213                     	;# 
  2225  0214                     	;# 
  2226  0215                     	;# 
  2227  0215                     	;# 
  2228  0216                     	;# 
  2229  0216                     	;# 
  2230  0217                     	;# 
  2231  0217                     	;# 
  2232  0218                     	;# 
  2233  0218                     	;# 
  2234  0219                     	;# 
  2235  021A                     	;# 
  2236  021B                     	;# 
  2237  021B                     	;# 
  2238  021C                     	;# 
  2239  021C                     	;# 
  2240  021D                     	;# 
  2241  021D                     	;# 
  2242  021E                     	;# 
  2243  021F                     	;# 
  2244  028C                     	;# 
  2245  028C                     	;# 
  2246  028D                     	;# 
  2247  028D                     	;# 
  2248  028E                     	;# 
  2249  028F                     	;# 
  2250  0290                     	;# 
  2251  0290                     	;# 
  2252  0291                     	;# 
  2253  0292                     	;# 
  2254  0292                     	;# 
  2255  0293                     	;# 
  2256  0293                     	;# 
  2257  0294                     	;# 
  2258  0295                     	;# 
  2259  0296                     	;# 
  2260  0296                     	;# 
  2261  0297                     	;# 
  2262  0298                     	;# 
  2263  0298                     	;# 
  2264  0299                     	;# 
  2265  0299                     	;# 
  2266  029A                     	;# 
  2267  029B                     	;# 
  2268  029C                     	;# 
  2269  029C                     	;# 
  2270  029D                     	;# 
  2271  030C                     	;# 
  2272  030C                     	;# 
  2273  030D                     	;# 
  2274  030E                     	;# 
  2275  030F                     	;# 
  2276  0310                     	;# 
  2277  0310                     	;# 
  2278  0311                     	;# 
  2279  0312                     	;# 
  2280  0313                     	;# 
  2281  0314                     	;# 
  2282  0314                     	;# 
  2283  0315                     	;# 
  2284  0316                     	;# 
  2285  0317                     	;# 
  2286  0318                     	;# 
  2287  0318                     	;# 
  2288  0319                     	;# 
  2289  031A                     	;# 
  2290  031B                     	;# 
  2291  031C                     	;# 
  2292  031C                     	;# 
  2293  031D                     	;# 
  2294  031E                     	;# 
  2295  031F                     	;# 
  2296  038C                     	;# 
  2297  038D                     	;# 
  2298  038E                     	;# 
  2299  0390                     	;# 
  2300  0391                     	;# 
  2301  0392                     	;# 
  2302  040C                     	;# 
  2303  040D                     	;# 
  2304  040E                     	;# 
  2305  040F                     	;# 
  2306  0410                     	;# 
  2307  0411                     	;# 
  2308  0416                     	;# 
  2309  0416                     	;# 
  2310  0417                     	;# 
  2311  0418                     	;# 
  2312  0418                     	;# 
  2313  0419                     	;# 
  2314  041A                     	;# 
  2315  041A                     	;# 
  2316  041B                     	;# 
  2317  041C                     	;# 
  2318  041C                     	;# 
  2319  041D                     	;# 
  2320  041E                     	;# 
  2321  041F                     	;# 
  2322  048C                     	;# 
  2323  048C                     	;# 
  2324  048D                     	;# 
  2325  048E                     	;# 
  2326  048F                     	;# 
  2327  048F                     	;# 
  2328  0490                     	;# 
  2329  0491                     	;# 
  2330  0492                     	;# 
  2331  0492                     	;# 
  2332  0493                     	;# 
  2333  0494                     	;# 
  2334  0495                     	;# 
  2335  0495                     	;# 
  2336  0496                     	;# 
  2337  0497                     	;# 
  2338  0498                     	;# 
  2339  0499                     	;# 
  2340  049A                     	;# 
  2341  049B                     	;# 
  2342  049C                     	;# 
  2343  049D                     	;# 
  2344  050C                     	;# 
  2345  050C                     	;# 
  2346  050D                     	;# 
  2347  050E                     	;# 
  2348  050F                     	;# 
  2349  050F                     	;# 
  2350  0510                     	;# 
  2351  0511                     	;# 
  2352  0512                     	;# 
  2353  0512                     	;# 
  2354  0513                     	;# 
  2355  0514                     	;# 
  2356  0515                     	;# 
  2357  0515                     	;# 
  2358  0516                     	;# 
  2359  0517                     	;# 
  2360  0518                     	;# 
  2361  0519                     	;# 
  2362  051A                     	;# 
  2363  051B                     	;# 
  2364  051C                     	;# 
  2365  051D                     	;# 
  2366  058C                     	;# 
  2367  058C                     	;# 
  2368  058D                     	;# 
  2369  058E                     	;# 
  2370  058F                     	;# 
  2371  058F                     	;# 
  2372  0590                     	;# 
  2373  0591                     	;# 
  2374  0592                     	;# 
  2375  0593                     	;# 
  2376  060C                     	;# 
  2377  060D                     	;# 
  2378  060E                     	;# 
  2379  060F                     	;# 
  2380  0610                     	;# 
  2381  0611                     	;# 
  2382  0612                     	;# 
  2383  0613                     	;# 
  2384  0614                     	;# 
  2385  0616                     	;# 
  2386  0617                     	;# 
  2387  0618                     	;# 
  2388  0619                     	;# 
  2389  061A                     	;# 
  2390  061B                     	;# 
  2391  061C                     	;# 
  2392  061D                     	;# 
  2393  061E                     	;# 
  2394  068C                     	;# 
  2395  068D                     	;# 
  2396  068E                     	;# 
  2397  068F                     	;# 
  2398  0690                     	;# 
  2399  0691                     	;# 
  2400  0692                     	;# 
  2401  0693                     	;# 
  2402  0694                     	;# 
  2403  070C                     	;# 
  2404  070D                     	;# 
  2405  070E                     	;# 
  2406  070F                     	;# 
  2407  0710                     	;# 
  2408  0711                     	;# 
  2409  0712                     	;# 
  2410  0713                     	;# 
  2411  0714                     	;# 
  2412  0716                     	;# 
  2413  0717                     	;# 
  2414  0718                     	;# 
  2415  0719                     	;# 
  2416  071A                     	;# 
  2417  071B                     	;# 
  2418  071C                     	;# 
  2419  071D                     	;# 
  2420  071E                     	;# 
  2421  0796                     	;# 
  2422  0797                     	;# 
  2423  0798                     	;# 
  2424  0799                     	;# 
  2425  079A                     	;# 
  2426  079B                     	;# 
  2427  080C                     	;# 
  2428  080D                     	;# 
  2429  080E                     	;# 
  2430  080F                     	;# 
  2431  0810                     	;# 
  2432  0811                     	;# 
  2433  0812                     	;# 
  2434  0813                     	;# 
  2435  0814                     	;# 
  2436  081A                     	;# 
  2437  081B                     	;# 
  2438  081C                     	;# 
  2439  081D                     	;# 
  2440  081E                     	;# 
  2441  081F                     	;# 
  2442  088C                     	;# 
  2443  088D                     	;# 
  2444  088E                     	;# 
  2445  088F                     	;# 
  2446  0890                     	;# 
  2447  0891                     	;# 
  2448  0892                     	;# 
  2449  0893                     	;# 
  2450  0895                     	;# 
  2451  0896                     	;# 
  2452  0897                     	;# 
  2453  0898                     	;# 
  2454  0899                     	;# 
  2455  089A                     	;# 
  2456  089B                     	;# 
  2457  090C                     	;# 
  2458  090E                     	;# 
  2459  090F                     	;# 
  2460  091F                     	;# 
  2461  098F                     	;# 
  2462  098F                     	;# 
  2463  0990                     	;# 
  2464  0991                     	;# 
  2465  0992                     	;# 
  2466  0993                     	;# 
  2467  0994                     	;# 
  2468  0995                     	;# 
  2469  0996                     	;# 
  2470  0997                     	;# 
  2471  0E0F                     	;# 
  2472  0E10                     	;# 
  2473  0E11                     	;# 
  2474  0E12                     	;# 
  2475  0E13                     	;# 
  2476  0E14                     	;# 
  2477  0E15                     	;# 
  2478  0E16                     	;# 
  2479  0E17                     	;# 
  2480  0E18                     	;# 
  2481  0E19                     	;# 
  2482  0E1A                     	;# 
  2483  0E1B                     	;# 
  2484  0E1C                     	;# 
  2485  0E1D                     	;# 
  2486  0E1E                     	;# 
  2487  0E1F                     	;# 
  2488  0E20                     	;# 
  2489  0E21                     	;# 
  2490  0E22                     	;# 
  2491  0E23                     	;# 
  2492  0E24                     	;# 
  2493  0E25                     	;# 
  2494  0E26                     	;# 
  2495  0E27                     	;# 
  2496  0E28                     	;# 
  2497  0E29                     	;# 
  2498  0E2A                     	;# 
  2499  0E2B                     	;# 
  2500  0E2C                     	;# 
  2501  0E2D                     	;# 
  2502  0E2E                     	;# 
  2503  0E2F                     	;# 
  2504  0E30                     	;# 
  2505  0E31                     	;# 
  2506  0E32                     	;# 
  2507  0E33                     	;# 
  2508  0E34                     	;# 
  2509  0E35                     	;# 
  2510  0E36                     	;# 
  2511  0E37                     	;# 
  2512  0E8F                     	;# 
  2513  0E90                     	;# 
  2514  0E91                     	;# 
  2515  0E92                     	;# 
  2516  0E93                     	;# 
  2517  0E94                     	;# 
  2518  0E95                     	;# 
  2519  0E96                     	;# 
  2520  0E97                     	;# 
  2521  0E9C                     	;# 
  2522  0E9D                     	;# 
  2523  0E9E                     	;# 
  2524  0EA1                     	;# 
  2525  0EA2                     	;# 
  2526  0EA3                     	;# 
  2527  0EA4                     	;# 
  2528  0EA5                     	;# 
  2529  0EA9                     	;# 
  2530  0EAA                     	;# 
  2531  0EAB                     	;# 
  2532  0EAC                     	;# 
  2533  0EB1                     	;# 
  2534  0EB2                     	;# 
  2535  0EB3                     	;# 
  2536  0EB8                     	;# 
  2537  0EB9                     	;# 
  2538  0EBA                     	;# 
  2539  0EBB                     	;# 
  2540  0EBC                     	;# 
  2541  0EBD                     	;# 
  2542  0EBE                     	;# 
  2543  0EC3                     	;# 
  2544  0EC5                     	;# 
  2545  0EC6                     	;# 
  2546  0EC7                     	;# 
  2547  0EC8                     	;# 
  2548  0EC9                     	;# 
  2549  0ECA                     	;# 
  2550  0ECB                     	;# 
  2551  0ECC                     	;# 
  2552  0F10                     	;# 
  2553  0F11                     	;# 
  2554  0F12                     	;# 
  2555  0F13                     	;# 
  2556  0F14                     	;# 
  2557  0F15                     	;# 
  2558  0F16                     	;# 
  2559  0F17                     	;# 
  2560  0F18                     	;# 
  2561  0F19                     	;# 
  2562  0F1A                     	;# 
  2563  0F1B                     	;# 
  2564  0F1C                     	;# 
  2565  0F1D                     	;# 
  2566  0F1E                     	;# 
  2567  0F1F                     	;# 
  2568  0F20                     	;# 
  2569  0F21                     	;# 
  2570  0F22                     	;# 
  2571  0F23                     	;# 
  2572  0F24                     	;# 
  2573  0F25                     	;# 
  2574  0F26                     	;# 
  2575  0F27                     	;# 
  2576  0F38                     	;# 
  2577  0F39                     	;# 
  2578  0F3A                     	;# 
  2579  0F3B                     	;# 
  2580  0F3C                     	;# 
  2581  0F3D                     	;# 
  2582  0F3E                     	;# 
  2583  0F3F                     	;# 
  2584  0F40                     	;# 
  2585  0F41                     	;# 
  2586  0F43                     	;# 
  2587  0F44                     	;# 
  2588  0F45                     	;# 
  2589  0F46                     	;# 
  2590  0F47                     	;# 
  2591  0F48                     	;# 
  2592  0F49                     	;# 
  2593  0F4A                     	;# 
  2594  0F4B                     	;# 
  2595  0F4C                     	;# 
  2596  0F4E                     	;# 
  2597  0F4F                     	;# 
  2598  0F50                     	;# 
  2599  0F51                     	;# 
  2600  0F52                     	;# 
  2601  0F53                     	;# 
  2602  0F54                     	;# 
  2603  0F55                     	;# 
  2604  0F56                     	;# 
  2605  0F57                     	;# 
  2606  0F65                     	;# 
  2607  0F68                     	;# 
  2608  0F69                     	;# 
  2609  0F6A                     	;# 
  2610  0F6B                     	;# 
  2611  0FE4                     	;# 
  2612  0FE5                     	;# 
  2613  0FE6                     	;# 
  2614  0FE7                     	;# 
  2615  0FE8                     	;# 
  2616  0FE9                     	;# 
  2617  0FEA                     	;# 
  2618  0FEB                     	;# 
  2619  0FED                     	;# 
  2620  0FEE                     	;# 
  2621  0FEF                     	;# 
  2622  0000                     	;# 
  2623  0001                     	;# 
  2624  0002                     	;# 
  2625  0003                     	;# 
  2626  0004                     	;# 
  2627  0005                     	;# 
  2628  0006                     	;# 
  2629  0007                     	;# 
  2630  0008                     	;# 
  2631  0009                     	;# 
  2632  000A                     	;# 
  2633  000B                     	;# 
  2634  000C                     	;# 
  2635  000D                     	;# 
  2636  000E                     	;# 
  2637  0010                     	;# 
  2638  0011                     	;# 
  2639  0012                     	;# 
  2640  0013                     	;# 
  2641  0016                     	;# 
  2642  0017                     	;# 
  2643  0018                     	;# 
  2644  001C                     	;# 
  2645  001C                     	;# 
  2646  001D                     	;# 
  2647  001D                     	;# 
  2648  001E                     	;# 
  2649  001F                     	;# 
  2650  008C                     	;# 
  2651  008C                     	;# 
  2652  008D                     	;# 
  2653  008E                     	;# 
  2654  008E                     	;# 
  2655  008F                     	;# 
  2656  0090                     	;# 
  2657  0090                     	;# 
  2658  0091                     	;# 
  2659  0093                     	;# 
  2660  0094                     	;# 
  2661  0095                     	;# 
  2662  0096                     	;# 
  2663  0097                     	;# 
  2664  0098                     	;# 
  2665  0099                     	;# 
  2666  009A                     	;# 
  2667  009B                     	;# 
  2668  009C                     	;# 
  2669  009D                     	;# 
  2670  009E                     	;# 
  2671  010C                     	;# 
  2672  010D                     	;# 
  2673  010E                     	;# 
  2674  010E                     	;# 
  2675  010F                     	;# 
  2676  0110                     	;# 
  2677  0110                     	;# 
  2678  0111                     	;# 
  2679  0112                     	;# 
  2680  0112                     	;# 
  2681  0113                     	;# 
  2682  0114                     	;# 
  2683  0114                     	;# 
  2684  0115                     	;# 
  2685  0116                     	;# 
  2686  0116                     	;# 
  2687  0117                     	;# 
  2688  0119                     	;# 
  2689  0119                     	;# 
  2690  0119                     	;# 
  2691  011A                     	;# 
  2692  011A                     	;# 
  2693  011A                     	;# 
  2694  011B                     	;# 
  2695  011B                     	;# 
  2696  011B                     	;# 
  2697  011B                     	;# 
  2698  011B                     	;# 
  2699  011C                     	;# 
  2700  011C                     	;# 
  2701  011C                     	;# 
  2702  011D                     	;# 
  2703  011D                     	;# 
  2704  011D                     	;# 
  2705  011E                     	;# 
  2706  011E                     	;# 
  2707  011E                     	;# 
  2708  011F                     	;# 
  2709  011F                     	;# 
  2710  011F                     	;# 
  2711  011F                     	;# 
  2712  011F                     	;# 
  2713  018C                     	;# 
  2714  018D                     	;# 
  2715  018E                     	;# 
  2716  018F                     	;# 
  2717  0190                     	;# 
  2718  0191                     	;# 
  2719  0192                     	;# 
  2720  0196                     	;# 
  2721  0197                     	;# 
  2722  0198                     	;# 
  2723  0199                     	;# 
  2724  019A                     	;# 
  2725  019B                     	;# 
  2726  019C                     	;# 
  2727  020C                     	;# 
  2728  020C                     	;# 
  2729  020D                     	;# 
  2730  020E                     	;# 
  2731  020F                     	;# 
  2732  020F                     	;# 
  2733  0210                     	;# 
  2734  0210                     	;# 
  2735  0211                     	;# 
  2736  0211                     	;# 
  2737  0212                     	;# 
  2738  0212                     	;# 
  2739  0213                     	;# 
  2740  0214                     	;# 
  2741  0215                     	;# 
  2742  0215                     	;# 
  2743  0216                     	;# 
  2744  0216                     	;# 
  2745  0217                     	;# 
  2746  0217                     	;# 
  2747  0218                     	;# 
  2748  0218                     	;# 
  2749  0219                     	;# 
  2750  021A                     	;# 
  2751  021B                     	;# 
  2752  021B                     	;# 
  2753  021C                     	;# 
  2754  021C                     	;# 
  2755  021D                     	;# 
  2756  021D                     	;# 
  2757  021E                     	;# 
  2758  021F                     	;# 
  2759  028C                     	;# 
  2760  028C                     	;# 
  2761  028D                     	;# 
  2762  028D                     	;# 
  2763  028E                     	;# 
  2764  028F                     	;# 
  2765  0290                     	;# 
  2766  0290                     	;# 
  2767  0291                     	;# 
  2768  0292                     	;# 
  2769  0292                     	;# 
  2770  0293                     	;# 
  2771  0293                     	;# 
  2772  0294                     	;# 
  2773  0295                     	;# 
  2774  0296                     	;# 
  2775  0296                     	;# 
  2776  0297                     	;# 
  2777  0298                     	;# 
  2778  0298                     	;# 
  2779  0299                     	;# 
  2780  0299                     	;# 
  2781  029A                     	;# 
  2782  029B                     	;# 
  2783  029C                     	;# 
  2784  029C                     	;# 
  2785  029D                     	;# 
  2786  030C                     	;# 
  2787  030C                     	;# 
  2788  030D                     	;# 
  2789  030E                     	;# 
  2790  030F                     	;# 
  2791  0310                     	;# 
  2792  0310                     	;# 
  2793  0311                     	;# 
  2794  0312                     	;# 
  2795  0313                     	;# 
  2796  0314                     	;# 
  2797  0314                     	;# 
  2798  0315                     	;# 
  2799  0316                     	;# 
  2800  0317                     	;# 
  2801  0318                     	;# 
  2802  0318                     	;# 
  2803  0319                     	;# 
  2804  031A                     	;# 
  2805  031B                     	;# 
  2806  031C                     	;# 
  2807  031C                     	;# 
  2808  031D                     	;# 
  2809  031E                     	;# 
  2810  031F                     	;# 
  2811  038C                     	;# 
  2812  038D                     	;# 
  2813  038E                     	;# 
  2814  0390                     	;# 
  2815  0391                     	;# 
  2816  0392                     	;# 
  2817  040C                     	;# 
  2818  040D                     	;# 
  2819  040E                     	;# 
  2820  040F                     	;# 
  2821  0410                     	;# 
  2822  0411                     	;# 
  2823  0416                     	;# 
  2824  0416                     	;# 
  2825  0417                     	;# 
  2826  0418                     	;# 
  2827  0418                     	;# 
  2828  0419                     	;# 
  2829  041A                     	;# 
  2830  041A                     	;# 
  2831  041B                     	;# 
  2832  041C                     	;# 
  2833  041C                     	;# 
  2834  041D                     	;# 
  2835  041E                     	;# 
  2836  041F                     	;# 
  2837  048C                     	;# 
  2838  048C                     	;# 
  2839  048D                     	;# 
  2840  048E                     	;# 
  2841  048F                     	;# 
  2842  048F                     	;# 
  2843  0490                     	;# 
  2844  0491                     	;# 
  2845  0492                     	;# 
  2846  0492                     	;# 
  2847  0493                     	;# 
  2848  0494                     	;# 
  2849  0495                     	;# 
  2850  0495                     	;# 
  2851  0496                     	;# 
  2852  0497                     	;# 
  2853  0498                     	;# 
  2854  0499                     	;# 
  2855  049A                     	;# 
  2856  049B                     	;# 
  2857  049C                     	;# 
  2858  049D                     	;# 
  2859  050C                     	;# 
  2860  050C                     	;# 
  2861  050D                     	;# 
  2862  050E                     	;# 
  2863  050F                     	;# 
  2864  050F                     	;# 
  2865  0510                     	;# 
  2866  0511                     	;# 
  2867  0512                     	;# 
  2868  0512                     	;# 
  2869  0513                     	;# 
  2870  0514                     	;# 
  2871  0515                     	;# 
  2872  0515                     	;# 
  2873  0516                     	;# 
  2874  0517                     	;# 
  2875  0518                     	;# 
  2876  0519                     	;# 
  2877  051A                     	;# 
  2878  051B                     	;# 
  2879  051C                     	;# 
  2880  051D                     	;# 
  2881  058C                     	;# 
  2882  058C                     	;# 
  2883  058D                     	;# 
  2884  058E                     	;# 
  2885  058F                     	;# 
  2886  058F                     	;# 
  2887  0590                     	;# 
  2888  0591                     	;# 
  2889  0592                     	;# 
  2890  0593                     	;# 
  2891  060C                     	;# 
  2892  060D                     	;# 
  2893  060E                     	;# 
  2894  060F                     	;# 
  2895  0610                     	;# 
  2896  0611                     	;# 
  2897  0612                     	;# 
  2898  0613                     	;# 
  2899  0614                     	;# 
  2900  0616                     	;# 
  2901  0617                     	;# 
  2902  0618                     	;# 
  2903  0619                     	;# 
  2904  061A                     	;# 
  2905  061B                     	;# 
  2906  061C                     	;# 
  2907  061D                     	;# 
  2908  061E                     	;# 
  2909  068C                     	;# 
  2910  068D                     	;# 
  2911  068E                     	;# 
  2912  068F                     	;# 
  2913  0690                     	;# 
  2914  0691                     	;# 
  2915  0692                     	;# 
  2916  0693                     	;# 
  2917  0694                     	;# 
  2918  070C                     	;# 
  2919  070D                     	;# 
  2920  070E                     	;# 
  2921  070F                     	;# 
  2922  0710                     	;# 
  2923  0711                     	;# 
  2924  0712                     	;# 
  2925  0713                     	;# 
  2926  0714                     	;# 
  2927  0716                     	;# 
  2928  0717                     	;# 
  2929  0718                     	;# 
  2930  0719                     	;# 
  2931  071A                     	;# 
  2932  071B                     	;# 
  2933  071C                     	;# 
  2934  071D                     	;# 
  2935  071E                     	;# 
  2936  0796                     	;# 
  2937  0797                     	;# 
  2938  0798                     	;# 
  2939  0799                     	;# 
  2940  079A                     	;# 
  2941  079B                     	;# 
  2942  080C                     	;# 
  2943  080D                     	;# 
  2944  080E                     	;# 
  2945  080F                     	;# 
  2946  0810                     	;# 
  2947  0811                     	;# 
  2948  0812                     	;# 
  2949  0813                     	;# 
  2950  0814                     	;# 
  2951  081A                     	;# 
  2952  081B                     	;# 
  2953  081C                     	;# 
  2954  081D                     	;# 
  2955  081E                     	;# 
  2956  081F                     	;# 
  2957  088C                     	;# 
  2958  088D                     	;# 
  2959  088E                     	;# 
  2960  088F                     	;# 
  2961  0890                     	;# 
  2962  0891                     	;# 
  2963  0892                     	;# 
  2964  0893                     	;# 
  2965  0895                     	;# 
  2966  0896                     	;# 
  2967  0897                     	;# 
  2968  0898                     	;# 
  2969  0899                     	;# 
  2970  089A                     	;# 
  2971  089B                     	;# 
  2972  090C                     	;# 
  2973  090E                     	;# 
  2974  090F                     	;# 
  2975  091F                     	;# 
  2976  098F                     	;# 
  2977  098F                     	;# 
  2978  0990                     	;# 
  2979  0991                     	;# 
  2980  0992                     	;# 
  2981  0993                     	;# 
  2982  0994                     	;# 
  2983  0995                     	;# 
  2984  0996                     	;# 
  2985  0997                     	;# 
  2986  0E0F                     	;# 
  2987  0E10                     	;# 
  2988  0E11                     	;# 
  2989  0E12                     	;# 
  2990  0E13                     	;# 
  2991  0E14                     	;# 
  2992  0E15                     	;# 
  2993  0E16                     	;# 
  2994  0E17                     	;# 
  2995  0E18                     	;# 
  2996  0E19                     	;# 
  2997  0E1A                     	;# 
  2998  0E1B                     	;# 
  2999  0E1C                     	;# 
  3000  0E1D                     	;# 
  3001  0E1E                     	;# 
  3002  0E1F                     	;# 
  3003  0E20                     	;# 
  3004  0E21                     	;# 
  3005  0E22                     	;# 
  3006  0E23                     	;# 
  3007  0E24                     	;# 
  3008  0E25                     	;# 
  3009  0E26                     	;# 
  3010  0E27                     	;# 
  3011  0E28                     	;# 
  3012  0E29                     	;# 
  3013  0E2A                     	;# 
  3014  0E2B                     	;# 
  3015  0E2C                     	;# 
  3016  0E2D                     	;# 
  3017  0E2E                     	;# 
  3018  0E2F                     	;# 
  3019  0E30                     	;# 
  3020  0E31                     	;# 
  3021  0E32                     	;# 
  3022  0E33                     	;# 
  3023  0E34                     	;# 
  3024  0E35                     	;# 
  3025  0E36                     	;# 
  3026  0E37                     	;# 
  3027  0E8F                     	;# 
  3028  0E90                     	;# 
  3029  0E91                     	;# 
  3030  0E92                     	;# 
  3031  0E93                     	;# 
  3032  0E94                     	;# 
  3033  0E95                     	;# 
  3034  0E96                     	;# 
  3035  0E97                     	;# 
  3036  0E9C                     	;# 
  3037  0E9D                     	;# 
  3038  0E9E                     	;# 
  3039  0EA1                     	;# 
  3040  0EA2                     	;# 
  3041  0EA3                     	;# 
  3042  0EA4                     	;# 
  3043  0EA5                     	;# 
  3044  0EA9                     	;# 
  3045  0EAA                     	;# 
  3046  0EAB                     	;# 
  3047  0EAC                     	;# 
  3048  0EB1                     	;# 
  3049  0EB2                     	;# 
  3050  0EB3                     	;# 
  3051  0EB8                     	;# 
  3052  0EB9                     	;# 
  3053  0EBA                     	;# 
  3054  0EBB                     	;# 
  3055  0EBC                     	;# 
  3056  0EBD                     	;# 
  3057  0EBE                     	;# 
  3058  0EC3                     	;# 
  3059  0EC5                     	;# 
  3060  0EC6                     	;# 
  3061  0EC7                     	;# 
  3062  0EC8                     	;# 
  3063  0EC9                     	;# 
  3064  0ECA                     	;# 
  3065  0ECB                     	;# 
  3066  0ECC                     	;# 
  3067  0F10                     	;# 
  3068  0F11                     	;# 
  3069  0F12                     	;# 
  3070  0F13                     	;# 
  3071  0F14                     	;# 
  3072  0F15                     	;# 
  3073  0F16                     	;# 
  3074  0F17                     	;# 
  3075  0F18                     	;# 
  3076  0F19                     	;# 
  3077  0F1A                     	;# 
  3078  0F1B                     	;# 
  3079  0F1C                     	;# 
  3080  0F1D                     	;# 
  3081  0F1E                     	;# 
  3082  0F1F                     	;# 
  3083  0F20                     	;# 
  3084  0F21                     	;# 
  3085  0F22                     	;# 
  3086  0F23                     	;# 
  3087  0F24                     	;# 
  3088  0F25                     	;# 
  3089  0F26                     	;# 
  3090  0F27                     	;# 
  3091  0F38                     	;# 
  3092  0F39                     	;# 
  3093  0F3A                     	;# 
  3094  0F3B                     	;# 
  3095  0F3C                     	;# 
  3096  0F3D                     	;# 
  3097  0F3E                     	;# 
  3098  0F3F                     	;# 
  3099  0F40                     	;# 
  3100  0F41                     	;# 
  3101  0F43                     	;# 
  3102  0F44                     	;# 
  3103  0F45                     	;# 
  3104  0F46                     	;# 
  3105  0F47                     	;# 
  3106  0F48                     	;# 
  3107  0F49                     	;# 
  3108  0F4A                     	;# 
  3109  0F4B                     	;# 
  3110  0F4C                     	;# 
  3111  0F4E                     	;# 
  3112  0F4F                     	;# 
  3113  0F50                     	;# 
  3114  0F51                     	;# 
  3115  0F52                     	;# 
  3116  0F53                     	;# 
  3117  0F54                     	;# 
  3118  0F55                     	;# 
  3119  0F56                     	;# 
  3120  0F57                     	;# 
  3121  0F65                     	;# 
  3122  0F68                     	;# 
  3123  0F69                     	;# 
  3124  0F6A                     	;# 
  3125  0F6B                     	;# 
  3126  0FE4                     	;# 
  3127  0FE5                     	;# 
  3128  0FE6                     	;# 
  3129  0FE7                     	;# 
  3130  0FE8                     	;# 
  3131  0FE9                     	;# 
  3132  0FEA                     	;# 
  3133  0FEB                     	;# 
  3134  0FED                     	;# 
  3135  0FEE                     	;# 
  3136  0FEF                     	;# 
  3137  0013                     _TRISC	set	19
  3138  0012                     _TRISB	set	18
  3139  0011                     _TRISA	set	17
  3140  0018                     _LATC	set	24
  3141  0017                     _LATB	set	23
  3142  0016                     _LATA	set	22
  3143  000B                     _INTCONbits	set	11
  3144  0119                     _RC1REG	set	281
  3145  011D                     _RC1STAbits	set	285
  3146  011C                     _SP1BRGH	set	284
  3147  011B                     _SP1BRGL	set	283
  3148  011E                     _TX1STA	set	286
  3149  011D                     _RC1STA	set	285
  3150  011F                     _BAUD1CON	set	287
  3151  041F                     _CRCCON1bits	set	1055
  3152  041C                     _CRCXORL	set	1052
  3153  041D                     _CRCXORH	set	1053
  3154  0411                     _SCANTRIG	set	1041
  3155  040E                     _SCANHADRL	set	1038
  3156  040F                     _SCANHADRH	set	1039
  3157  040C                     _SCANLADRL	set	1036
  3158  040D                     _SCANLADRH	set	1037
  3159  0410                     _SCANCON0	set	1040
  3160  0419                     _CRCACCH	set	1049
  3161  0418                     _CRCACCL	set	1048
  3162  041F                     _CRCCON1	set	1055
  3163  041E                     _CRCCON0	set	1054
  3164  070F                     _PIR3bits	set	1807
  3165  0719                     _PIE3bits	set	1817
  3166  079B                     _PMD5	set	1947
  3167  079A                     _PMD4	set	1946
  3168  0799                     _PMD3	set	1945
  3169  0798                     _PMD2	set	1944
  3170  0797                     _PMD1	set	1943
  3171  0796                     _PMD0	set	1942
  3172  0892                     _OSCTUNE	set	2194
  3173  0893                     _OSCFRQ	set	2195
  3174  0891                     _OSCEN	set	2193
  3175  088F                     _OSCCON3	set	2191
  3176  088D                     _OSCCON1	set	2189
  3177  4480                     _PLLR	set	17536
  3178  0ECB                     _RXPPSbits	set	3787
  3179  0F26                     _RC6PPS	set	3878
  3180  0F50                     _ODCONC	set	3920
  3181  0F45                     _ODCONB	set	3909
  3182  0F3A                     _ODCONA	set	3898
  3183  0F4F                     _WPUC	set	3919
  3184  0F39                     _WPUA	set	3897
  3185  0F44                     _WPUB	set	3908
  3186  0F65                     _WPUE	set	3941
  3187  0F38                     _ANSELA	set	3896
  3188  0F43                     _ANSELB	set	3907
  3189  0F4E                     _ANSELC	set	3918
  3190                           
  3191                           ; #config settings
  3192  0000                     
  3193                           	psect	cinit
  3194  0015                     start_initialization:	
  3195  0015                     __initialization:	
  3196                           
  3197                           ; Clear objects allocated to COMMON
  3198  0015  01F0               	clrf	__pbssCOMMON& (0+127)
  3199  0016  01F1               	clrf	(__pbssCOMMON+1)& (0+127)
  3200  0017  01F2               	clrf	(__pbssCOMMON+2)& (0+127)
  3201  0018  01F3               	clrf	(__pbssCOMMON+3)& (0+127)
  3202  0019  01F4               	clrf	(__pbssCOMMON+4)& (0+127)
  3203  001A  01F5               	clrf	(__pbssCOMMON+5)& (0+127)
  3204  001B  01F6               	clrf	(__pbssCOMMON+6)& (0+127)
  3205  001C  01F7               	clrf	(__pbssCOMMON+7)& (0+127)
  3206                           
  3207                           ; Clear objects allocated to BANK0
  3208  001D  0020               	movlb	0	; select bank0
  3209  001E  01A0               	clrf	__pbssBANK0& (0+127)
  3210  001F  01A1               	clrf	(__pbssBANK0+1)& (0+127)
  3211  0020  01A2               	clrf	(__pbssBANK0+2)& (0+127)
  3212  0021  01A3               	clrf	(__pbssBANK0+3)& (0+127)
  3213  0022  01A4               	clrf	(__pbssBANK0+4)& (0+127)
  3214  0023  01A5               	clrf	(__pbssBANK0+5)& (0+127)
  3215  0024  01A6               	clrf	(__pbssBANK0+6)& (0+127)
  3216  0025  01A7               	clrf	(__pbssBANK0+7)& (0+127)
  3217  0026                     end_of_initialization:	
  3218                           ;End of C runtime variable initialization code
  3219                           
  3220  0026                     __end_of__initialization:	
  3221  0026  107E               	bcf	126,0	;clear compiler interrupt flag (level 1)
  3222  0027  0020               	movlb	0
  3223  0028  2829               	ljmp	_main	;jump to C main() function
  3224  0029                     __pmaintext:	
  3225                           ; 1 bytes @ 0x4
  3226 ;;
  3227 ;;Main: autosize = 0, tempsize = 0, incstack = 0, save=0
  3228 ;;
  3229 ;; *************** function _main *****************
  3230 ;; Defined at:
  3231 ;;		line 12 in file "main.c"
  3232 ;; Parameters:    Size  Location     Type
  3233 ;;		None
  3234 ;; Auto vars:     Size  Location     Type
  3235 ;;		None
  3236 ;; Return value:  Size  Location     Type
  3237 ;;                  1    wreg      void 
  3238 ;; Registers used:
  3239 ;;		wreg, status,2, status,0, pclath, cstack
  3240 ;; Tracked objects:
  3241 ;;		On entry : B1F/0
  3242 ;;		On exit  : 11/0
  3243 ;;		Unchanged: 0/0
  3244 ;; Data sizes:     COMMON   BANK0   BANK1   BANK2   BANK3   BANK4   BANK5   BANK6
  3245 ;;      Params:         0       0       0       0       0       0       0       0
  3246 ;;      Locals:         0       0       0       0       0       0       0       0
  3247 ;;      Temps:          0       0       0       0       0       0       0       0
  3248 ;;      Totals:         0       0       0       0       0       0       0       0
  3249 ;;Total ram usage:        0 bytes
  3250 ;; Hardware stack levels required when called:    5
  3251 ;; This function calls:
  3252 ;;		_SYSTEM_Initialize
  3253 ;; This function is called by:
  3254 ;;		Startup code after reset
  3255 ;; This function uses a non-reentrant model
  3256 ;;
  3257                           
  3258                           
  3259                           ;psect for function _main
  3260  0029                     _main:	
  3261                           
  3262                           ;main.c: 14: SYSTEM_Initialize();
  3263                           
  3264                           ;incstack = 0
  3265                           ; Regs used in _main: [wreg+status,2+status,0+pclath+cstack]
  3266  0029  202C  3180         	fcall	_SYSTEM_Initialize
  3267  002B                     l9:	
  3268                           ;main.c: 16: while(1){
  3269                           
  3270  002B  282B               	goto	l9
  3271  002C                     __end_of_main:	
  3272  002C                     __ptext1:	
  3273 ;; *************** function _SYSTEM_Initialize *****************
  3274 ;; Defined at:
  3275 ;;		line 50 in file "mcc_generated_files/mcc.c"
  3276 ;; Parameters:    Size  Location     Type
  3277 ;;		None
  3278 ;; Auto vars:     Size  Location     Type
  3279 ;;		None
  3280 ;; Return value:  Size  Location     Type
  3281 ;;                  1    wreg      void 
  3282 ;; Registers used:
  3283 ;;		wreg, status,2, status,0, pclath, cstack
  3284 ;; Tracked objects:
  3285 ;;		On entry : B1F/0
  3286 ;;		On exit  : 1F/E
  3287 ;;		Unchanged: 0/0
  3288 ;; Data sizes:     COMMON   BANK0   BANK1   BANK2   BANK3   BANK4   BANK5   BANK6
  3289 ;;      Params:         0       0       0       0       0       0       0       0
  3290 ;;      Locals:         0       0       0       0       0       0       0       0
  3291 ;;      Temps:          0       0       0       0       0       0       0       0
  3292 ;;      Totals:         0       0       0       0       0       0       0       0
  3293 ;;Total ram usage:        0 bytes
  3294 ;; Hardware stack levels used:    1
  3295 ;; Hardware stack levels required when called:    4
  3296 ;; This function calls:
  3297 ;;		_CRC_Initialize
  3298 ;;		_EUSART_Initialize
  3299 ;;		_OSCILLATOR_Initialize
  3300 ;;		_PIN_MANAGER_Initialize
  3301 ;;		_PMD_Initialize
  3302 ;; This function is called by:
  3303 ;;		_main
  3304 ;; This function uses a non-reentrant model
  3305 ;;
  3306                           
  3307                           
  3308                           ;psect for function _SYSTEM_Initialize
  3309  002C                     _SYSTEM_Initialize:	
  3310                           
  3311                           ;mcc.c: 52: PMD_Initialize();
  3312                           
  3313                           ;incstack = 0
  3314                           ; Regs used in _SYSTEM_Initialize: [wreg+status,2+status,0+pclath+cstack]
  3315  002C  205D  3180         	fcall	_PMD_Initialize
  3316                           
  3317                           ;mcc.c: 53: PIN_MANAGER_Initialize();
  3318  002E  2040  3180         	fcall	_PIN_MANAGER_Initialize
  3319                           
  3320                           ;mcc.c: 54: OSCILLATOR_Initialize();
  3321  0030  2035  3180         	fcall	_OSCILLATOR_Initialize
  3322                           
  3323                           ;mcc.c: 55: CRC_Initialize();
  3324  0032  2065  3180         	fcall	_CRC_Initialize
  3325                           
  3326                           ;mcc.c: 56: EUSART_Initialize();
  3327  0034  2888               	ljmp	l863
  3328  0035                     __end_of_SYSTEM_Initialize:	
  3329  0035                     __ptext4:	
  3330 ;; *************** function _OSCILLATOR_Initialize *****************
  3331 ;; Defined at:
  3332 ;;		line 59 in file "mcc_generated_files/mcc.c"
  3333 ;; Parameters:    Size  Location     Type
  3334 ;;		None
  3335 ;; Auto vars:     Size  Location     Type
  3336 ;;		None
  3337 ;; Return value:  Size  Location     Type
  3338 ;;                  1    wreg      void 
  3339 ;; Registers used:
  3340 ;;		wreg, status,2
  3341 ;; Tracked objects:
  3342 ;;		On entry : B1F/1E
  3343 ;;		On exit  : B1F/11
  3344 ;;		Unchanged: B00/0
  3345 ;; Data sizes:     COMMON   BANK0   BANK1   BANK2   BANK3   BANK4   BANK5   BANK6
  3346 ;;      Params:         0       0       0       0       0       0       0       0
  3347 ;;      Locals:         0       0       0       0       0       0       0       0
  3348 ;;      Temps:          0       0       0       0       0       0       0       0
  3349 ;;      Totals:         0       0       0       0       0       0       0       0
  3350 ;;Total ram usage:        0 bytes
  3351 ;; Hardware stack levels used:    1
  3352 ;; Hardware stack levels required when called:    2
  3353 ;; This function calls:
  3354 ;;		Nothing
  3355 ;; This function is called by:
  3356 ;;		_SYSTEM_Initialize
  3357 ;; This function uses a non-reentrant model
  3358 ;;
  3359                           
  3360                           
  3361                           ;psect for function _OSCILLATOR_Initialize
  3362  0035                     _OSCILLATOR_Initialize:	
  3363                           
  3364                           ;mcc.c: 62: OSCCON1 = 0x10;
  3365                           
  3366                           ;incstack = 0
  3367                           ; Regs used in _OSCILLATOR_Initialize: [wreg+status,2]
  3368  0035  3010               	movlw	16
  3369  0036  0031               	movlb	17	; select bank17
  3370  0037  008D               	movwf	13	;volatile
  3371                           
  3372                           ;mcc.c: 64: OSCCON3 = 0x00;
  3373  0038  018F               	clrf	15	;volatile
  3374                           
  3375                           ;mcc.c: 66: OSCEN = 0x00;
  3376  0039  0191               	clrf	17	;volatile
  3377                           
  3378                           ;mcc.c: 68: OSCFRQ = 0x05;
  3379  003A  3005               	movlw	5
  3380  003B  0093               	movwf	19	;volatile
  3381                           
  3382                           ;mcc.c: 70: OSCTUNE = 0x00;
  3383  003C  0192               	clrf	18	;volatile
  3384  003D                     l229:	
  3385                           ;mcc.c: 73: {
  3386                           
  3387  003D  1810               	btfsc	16,0	;volatile
  3388  003E  0008               	return
  3389  003F  283D               	goto	l229
  3390  0040                     __end_of_OSCILLATOR_Initialize:	
  3391  0040                     __ptext3:	
  3392 ;; *************** function _PIN_MANAGER_Initialize *****************
  3393 ;; Defined at:
  3394 ;;		line 57 in file "mcc_generated_files/pin_manager.c"
  3395 ;; Parameters:    Size  Location     Type
  3396 ;;		None
  3397 ;; Auto vars:     Size  Location     Type
  3398 ;;		None
  3399 ;; Return value:  Size  Location     Type
  3400 ;;                  1    wreg      void 
  3401 ;; Registers used:
  3402 ;;		wreg, status,2, status,0
  3403 ;; Tracked objects:
  3404 ;;		On entry : B1F/F
  3405 ;;		On exit  : B1F/1E
  3406 ;;		Unchanged: B00/0
  3407 ;; Data sizes:     COMMON   BANK0   BANK1   BANK2   BANK3   BANK4   BANK5   BANK6
  3408 ;;      Params:         0       0       0       0       0       0       0       0
  3409 ;;      Locals:         0       0       0       0       0       0       0       0
  3410 ;;      Temps:          0       0       0       0       0       0       0       0
  3411 ;;      Totals:         0       0       0       0       0       0       0       0
  3412 ;;Total ram usage:        0 bytes
  3413 ;; Hardware stack levels used:    1
  3414 ;; Hardware stack levels required when called:    2
  3415 ;; This function calls:
  3416 ;;		Nothing
  3417 ;; This function is called by:
  3418 ;;		_SYSTEM_Initialize
  3419 ;; This function uses a non-reentrant model
  3420 ;;
  3421                           
  3422                           
  3423                           ;psect for function _PIN_MANAGER_Initialize
  3424  0040                     _PIN_MANAGER_Initialize:	
  3425                           
  3426                           ;pin_manager.c: 62: LATA = 0x00;
  3427                           
  3428                           ;incstack = 0
  3429                           ; Regs used in _PIN_MANAGER_Initialize: [wreg+status,2+status,0]
  3430  0040  0020               	movlb	0	; select bank0
  3431  0041  0196               	clrf	22	;volatile
  3432                           
  3433                           ;pin_manager.c: 63: LATB = 0x00;
  3434  0042  0197               	clrf	23	;volatile
  3435                           
  3436                           ;pin_manager.c: 64: LATC = 0x00;
  3437  0043  0198               	clrf	24	;volatile
  3438                           
  3439                           ;pin_manager.c: 69: TRISA = 0xFF;
  3440  0044  30FF               	movlw	255
  3441  0045  0091               	movwf	17	;volatile
  3442                           
  3443                           ;pin_manager.c: 70: TRISB = 0xFF;
  3444  0046  0092               	movwf	18	;volatile
  3445                           
  3446                           ;pin_manager.c: 71: TRISC = 0xBF;
  3447  0047  30BF               	movlw	191
  3448  0048  0093               	movwf	19	;volatile
  3449                           
  3450                           ;pin_manager.c: 76: ANSELC = 0x00;
  3451  0049  003E               	movlb	30	; select bank30
  3452  004A  01CE               	clrf	78	;volatile
  3453                           
  3454                           ;pin_manager.c: 77: ANSELB = 0x00;
  3455  004B  01C3               	clrf	67	;volatile
  3456                           
  3457                           ;pin_manager.c: 78: ANSELA = 0x00;
  3458  004C  01B8               	clrf	56	;volatile
  3459                           
  3460                           ;pin_manager.c: 83: WPUE = 0x00;
  3461  004D  01E5               	clrf	101	;volatile
  3462                           
  3463                           ;pin_manager.c: 84: WPUB = 0x00;
  3464  004E  01C4               	clrf	68	;volatile
  3465                           
  3466                           ;pin_manager.c: 85: WPUA = 0x00;
  3467  004F  01B9               	clrf	57	;volatile
  3468                           
  3469                           ;pin_manager.c: 86: WPUC = 0x00;
  3470  0050  01CF               	clrf	79	;volatile
  3471                           
  3472                           ;pin_manager.c: 91: ODCONA = 0x00;
  3473  0051  01BA               	clrf	58	;volatile
  3474                           
  3475                           ;pin_manager.c: 92: ODCONB = 0x00;
  3476  0052  01C5               	clrf	69	;volatile
  3477                           
  3478                           ;pin_manager.c: 93: ODCONC = 0x00;
  3479  0053  01D0               	clrf	80	;volatile
  3480                           
  3481                           ;pin_manager.c: 102: RXPPSbits.RXPPS = 0x17;
  3482  0054  003D               	movlb	29	; select bank29
  3483  0055  084B               	movf	75,w	;volatile
  3484  0056  39E0               	andlw	-32
  3485  0057  3817               	iorlw	23
  3486  0058  00CB               	movwf	75	;volatile
  3487                           
  3488                           ;pin_manager.c: 103: RC6PPS = 0x10;
  3489  0059  3010               	movlw	16
  3490  005A  003E               	movlb	30	; select bank30
  3491  005B  00A6               	movwf	38	;volatile
  3492  005C  0008               	return
  3493  005D                     __end_of_PIN_MANAGER_Initialize:	
  3494  005D                     __ptext2:	
  3495 ;; *************** function _PMD_Initialize *****************
  3496 ;; Defined at:
  3497 ;;		line 77 in file "mcc_generated_files/mcc.c"
  3498 ;; Parameters:    Size  Location     Type
  3499 ;;		None
  3500 ;; Auto vars:     Size  Location     Type
  3501 ;;		None
  3502 ;; Return value:  Size  Location     Type
  3503 ;;                  1    wreg      void 
  3504 ;; Registers used:
  3505 ;;		status,2
  3506 ;; Tracked objects:
  3507 ;;		On entry : B1F/0
  3508 ;;		On exit  : B1F/F
  3509 ;;		Unchanged: B00/0
  3510 ;; Data sizes:     COMMON   BANK0   BANK1   BANK2   BANK3   BANK4   BANK5   BANK6
  3511 ;;      Params:         0       0       0       0       0       0       0       0
  3512 ;;      Locals:         0       0       0       0       0       0       0       0
  3513 ;;      Temps:          0       0       0       0       0       0       0       0
  3514 ;;      Totals:         0       0       0       0       0       0       0       0
  3515 ;;Total ram usage:        0 bytes
  3516 ;; Hardware stack levels used:    1
  3517 ;; Hardware stack levels required when called:    2
  3518 ;; This function calls:
  3519 ;;		Nothing
  3520 ;; This function is called by:
  3521 ;;		_SYSTEM_Initialize
  3522 ;; This function uses a non-reentrant model
  3523 ;;
  3524                           
  3525                           
  3526                           ;psect for function _PMD_Initialize
  3527  005D                     _PMD_Initialize:	
  3528                           
  3529                           ;mcc.c: 80: PMD0 = 0x00;
  3530                           
  3531                           ;incstack = 0
  3532                           ; Regs used in _PMD_Initialize: [status,2]
  3533  005D  002F               	movlb	15	; select bank15
  3534  005E  0196               	clrf	22	;volatile
  3535                           
  3536                           ;mcc.c: 82: PMD1 = 0x00;
  3537  005F  0197               	clrf	23	;volatile
  3538                           
  3539                           ;mcc.c: 84: PMD2 = 0x00;
  3540  0060  0198               	clrf	24	;volatile
  3541                           
  3542                           ;mcc.c: 86: PMD3 = 0x00;
  3543  0061  0199               	clrf	25	;volatile
  3544                           
  3545                           ;mcc.c: 88: PMD4 = 0x00;
  3546  0062  019A               	clrf	26	;volatile
  3547                           
  3548                           ;mcc.c: 90: PMD5 = 0x00;
  3549  0063  019B               	clrf	27	;volatile
  3550  0064  0008               	return
  3551  0065                     __end_of_PMD_Initialize:	
  3552  0065                     __ptext7:	
  3553 ;; *************** function _CRC_Initialize *****************
  3554 ;; Defined at:
  3555 ;;		line 76 in file "mcc_generated_files/crc.c"
  3556 ;; Parameters:    Size  Location     Type
  3557 ;;		None
  3558 ;; Auto vars:     Size  Location     Type
  3559 ;;  seed            2    2[COMMON] unsigned int 
  3560 ;;  poly            2    0[COMMON] unsigned int 
  3561 ;; Return value:  Size  Location     Type
  3562 ;;                  1    wreg      void 
  3563 ;; Registers used:
  3564 ;;		wreg, status,2, status,0
  3565 ;; Tracked objects:
  3566 ;;		On entry : B1F/11
  3567 ;;		On exit  : B1F/8
  3568 ;;		Unchanged: B00/0
  3569 ;; Data sizes:     COMMON   BANK0   BANK1   BANK2   BANK3   BANK4   BANK5   BANK6
  3570 ;;      Params:         0       0       0       0       0       0       0       0
  3571 ;;      Locals:         4       0       0       0       0       0       0       0
  3572 ;;      Temps:          0       0       0       0       0       0       0       0
  3573 ;;      Totals:         4       0       0       0       0       0       0       0
  3574 ;;Total ram usage:        4 bytes
  3575 ;; Hardware stack levels used:    1
  3576 ;; Hardware stack levels required when called:    2
  3577 ;; This function calls:
  3578 ;;		Nothing
  3579 ;; This function is called by:
  3580 ;;		_SYSTEM_Initialize
  3581 ;; This function uses a non-reentrant model
  3582 ;;
  3583                           
  3584                           
  3585                           ;psect for function _CRC_Initialize
  3586  0065                     _CRC_Initialize:	
  3587                           
  3588                           ;crc.c: 78: uint16_t poly;
  3589                           ;crc.c: 79: uint16_t seed;
  3590                           ;crc.c: 82: CRCCON0 = 0x80;
  3591                           
  3592                           ;incstack = 0
  3593                           ; Regs used in _CRC_Initialize: [wreg+status,2+status,0]
  3594  0065  3080               	movlw	128
  3595  0066  0028               	movlb	8	; select bank8
  3596  0067  009E               	movwf	30	;volatile
  3597                           
  3598                           ;crc.c: 84: CRCCON1 = (0 << 4) | (15);
  3599  0068  300F               	movlw	15
  3600  0069  009F               	movwf	31	;volatile
  3601                           
  3602                           ;crc.c: 86: CRCACCL = 0x00;
  3603  006A  0198               	clrf	24	;volatile
  3604                           
  3605                           ;crc.c: 88: CRCACCH = 0x00;
  3606  006B  0199               	clrf	25	;volatile
  3607                           
  3608                           ;crc.c: 90: SCANCON0 = 0x00;
  3609  006C  0190               	clrf	16	;volatile
  3610                           
  3611                           ;crc.c: 92: SCANLADRH = 0x00;
  3612  006D  018D               	clrf	13	;volatile
  3613                           
  3614                           ;crc.c: 94: SCANLADRL = 0x00;
  3615  006E  018C               	clrf	12	;volatile
  3616                           
  3617                           ;crc.c: 96: SCANHADRH = 0xFF;
  3618  006F  30FF               	movlw	255
  3619  0070  008F               	movwf	15	;volatile
  3620                           
  3621                           ;crc.c: 98: SCANHADRL = 0xFF;
  3622  0071  008E               	movwf	14	;volatile
  3623                           
  3624                           ;crc.c: 100: SCANTRIG = 0x00;
  3625  0072  0191               	clrf	17	;volatile
  3626                           
  3627                           ;crc.c: 102: poly = 32773;
  3628  0073  3005               	movlw	5
  3629  0074  00F8               	movwf	CRC_Initialize@poly
  3630  0075  3080               	movlw	128
  3631  0076  00F9               	movwf	CRC_Initialize@poly+1
  3632                           
  3633                           ;crc.c: 103: CRCXORH = poly >> 8;
  3634  0077  009D               	movwf	29	;volatile
  3635                           
  3636                           ;crc.c: 104: CRCXORL = poly;
  3637  0078  3005               	movlw	5
  3638  0079  009C               	movwf	28	;volatile
  3639                           
  3640                           ;crc.c: 106: seed = 65535;
  3641  007A  30FF               	movlw	255
  3642  007B  00FA               	movwf	CRC_Initialize@seed
  3643  007C  00FB               	movwf	CRC_Initialize@seed+1
  3644                           
  3645                           ;crc.c: 108: CRCACCH = seed >> 8;
  3646  007D  0099               	movwf	25	;volatile
  3647                           
  3648                           ;crc.c: 109: CRCACCL = seed;
  3649  007E  0098               	movwf	24	;volatile
  3650                           
  3651                           ;crc.c: 111: crcObj.dataWidth = (uint8_t)(CRCCON1bits.DLEN + 1);
  3652  007F  0E1F               	swapf	31,w	;volatile
  3653  0080  390F               	andlw	15
  3654  0081  3E01               	addlw	1
  3655  0082  00F5               	movwf	_crcObj
  3656                           
  3657                           ;crc.c: 112: crcObj.polyWidth = (uint8_t)(CRCCON1bits.PLEN + 1);
  3658  0083  081F               	movf	31,w	;volatile
  3659  0084  390F               	andlw	15
  3660  0085  3E01               	addlw	1
  3661  0086  00F6               	movwf	_crcObj+1
  3662  0087  0008               	return
  3663  0088                     __end_of_CRC_Initialize:	
  3664  0088                     __ptext5:	
  3665 ;; *************** function _EUSART_Initialize *****************
  3666 ;; Defined at:
  3667 ;;		line 71 in file "mcc_generated_files/eusart.c"
  3668 ;; Parameters:    Size  Location     Type
  3669 ;;		None
  3670 ;; Auto vars:     Size  Location     Type
  3671 ;;		None
  3672 ;; Return value:  Size  Location     Type
  3673 ;;                  1    wreg      void 
  3674 ;; Registers used:
  3675 ;;		wreg, status,2, status,0, pclath, cstack
  3676 ;; Tracked objects:
  3677 ;;		On entry : B1F/8
  3678 ;;		On exit  : B1F/E
  3679 ;;		Unchanged: B00/0
  3680 ;; Data sizes:     COMMON   BANK0   BANK1   BANK2   BANK3   BANK4   BANK5   BANK6
  3681 ;;      Params:         0       0       0       0       0       0       0       0
  3682 ;;      Locals:         0       0       0       0       0       0       0       0
  3683 ;;      Temps:          0       0       0       0       0       0       0       0
  3684 ;;      Totals:         0       0       0       0       0       0       0       0
  3685 ;;Total ram usage:        0 bytes
  3686 ;; Hardware stack levels used:    1
  3687 ;; Hardware stack levels required when called:    3
  3688 ;; This function calls:
  3689 ;;		_EUSART_SetRxInterruptHandler
  3690 ;; This function is called by:
  3691 ;;		_SYSTEM_Initialize
  3692 ;; This function uses a non-reentrant model
  3693 ;;
  3694                           
  3695                           
  3696                           ;psect for function _EUSART_Initialize
  3697  0088                     _EUSART_Initialize:	
  3698  0088                     l863:	
  3699                           ;incstack = 0
  3700                           ; Regs used in _EUSART_Initialize: [wreg+status,2+status,0+pclath+cstack]
  3701                           
  3702                           
  3703                           ;eusart.c: 74: PIE3bits.RCIE = 0;
  3704  0088  002E               	movlb	14	; select bank14
  3705  0089  1299               	bcf	25,5	;volatile
  3706                           
  3707                           ;eusart.c: 75: EUSART_SetRxInterruptHandler(EUSART_Receive_ISR);
  3708  008A  30A4               	movlw	low _EUSART_Receive_ISR
  3709  008B  00F8               	movwf	EUSART_SetRxInterruptHandler@interruptHandler
  3710  008C  3000               	movlw	high _EUSART_Receive_ISR
  3711  008D  00F9               	movwf	EUSART_SetRxInterruptHandler@interruptHandler+1
  3712  008E  209F               	fcall	_EUSART_SetRxInterruptHandler
  3713                           
  3714                           ;eusart.c: 79: BAUD1CON = 0x08;
  3715  008F  3008               	movlw	8
  3716  0090  0022               	movlb	2	; select bank2
  3717  0091  009F               	movwf	31	;volatile
  3718                           
  3719                           ;eusart.c: 82: RC1STA = 0x90;
  3720  0092  3090               	movlw	144
  3721  0093  009D               	movwf	29	;volatile
  3722                           
  3723                           ;eusart.c: 85: TX1STA = 0x24;
  3724  0094  3024               	movlw	36
  3725  0095  009E               	movwf	30	;volatile
  3726                           
  3727                           ;eusart.c: 88: SP1BRGL = 0x3F;
  3728  0096  303F               	movlw	63
  3729  0097  009B               	movwf	27	;volatile
  3730                           
  3731                           ;eusart.c: 91: SP1BRGH = 0x00;
  3732  0098  019C               	clrf	28	;volatile
  3733                           
  3734                           ;eusart.c: 95: eusartRxHead = 0;
  3735  0099  01F4               	clrf	_eusartRxHead	;volatile
  3736                           
  3737                           ;eusart.c: 96: eusartRxTail = 0;
  3738  009A  01F3               	clrf	_eusartRxTail	;volatile
  3739                           
  3740                           ;eusart.c: 97: eusartRxCount = 0;
  3741  009B  01F2               	clrf	_eusartRxCount	;volatile
  3742                           
  3743                           ;eusart.c: 100: PIE3bits.RCIE = 1;
  3744  009C  002E               	movlb	14	; select bank14
  3745  009D  1699               	bsf	25,5	;volatile
  3746  009E  0008               	return
  3747  009F                     __end_of_EUSART_Initialize:	
  3748  009F                     __ptext6:	
  3749 ;; *************** function _EUSART_SetRxInterruptHandler *****************
  3750 ;; Defined at:
  3751 ;;		line 170 in file "mcc_generated_files/eusart.c"
  3752 ;; Parameters:    Size  Location     Type
  3753 ;;  interruptHan    2    0[COMMON] PTR FTN()void 
  3754 ;;		 -> EUSART_Receive_ISR(1), 
  3755 ;; Auto vars:     Size  Location     Type
  3756 ;;		None
  3757 ;; Return value:  Size  Location     Type
  3758 ;;                  1    wreg      void 
  3759 ;; Registers used:
  3760 ;;		wreg
  3761 ;; Tracked objects:
  3762 ;;		On entry : B1F/E
  3763 ;;		On exit  : B1F/E
  3764 ;;		Unchanged: B1F/0
  3765 ;; Data sizes:     COMMON   BANK0   BANK1   BANK2   BANK3   BANK4   BANK5   BANK6
  3766 ;;      Params:         2       0       0       0       0       0       0       0
  3767 ;;      Locals:         0       0       0       0       0       0       0       0
  3768 ;;      Temps:          0       0       0       0       0       0       0       0
  3769 ;;      Totals:         2       0       0       0       0       0       0       0
  3770 ;;Total ram usage:        2 bytes
  3771 ;; Hardware stack levels used:    1
  3772 ;; Hardware stack levels required when called:    2
  3773 ;; This function calls:
  3774 ;;		Nothing
  3775 ;; This function is called by:
  3776 ;;		_EUSART_Initialize
  3777 ;; This function uses a non-reentrant model
  3778 ;;
  3779                           
  3780                           
  3781                           ;psect for function _EUSART_SetRxInterruptHandler
  3782  009F                     _EUSART_SetRxInterruptHandler:	
  3783                           
  3784                           ;eusart.c: 171: EUSART_RxDefaultInterruptHandler = interruptHandler;
  3785                           
  3786                           ;incstack = 0
  3787                           ; Regs used in _EUSART_SetRxInterruptHandler: [wreg]
  3788  009F  0879               	movf	EUSART_SetRxInterruptHandler@interruptHandler+1,w
  3789  00A0  00F1               	movwf	_EUSART_RxDefaultInterruptHandler+1
  3790  00A1  0878               	movf	EUSART_SetRxInterruptHandler@interruptHandler,w
  3791  00A2  00F0               	movwf	_EUSART_RxDefaultInterruptHandler
  3792  00A3  0008               	return
  3793  00A4                     __end_of_EUSART_SetRxInterruptHandler:	
  3794                           
  3795                           	psect	bssCOMMON
  3796  0070                     __pbssCOMMON:	
  3797  0070                     _EUSART_RxDefaultInterruptHandler:	
  3798  0070                     	ds	2
  3799  0072                     _eusartRxCount:	
  3800  0072                     	ds	1
  3801  0073                     _eusartRxTail:	
  3802  0073                     	ds	1
  3803  0074                     _eusartRxHead:	
  3804  0074                     	ds	1
  3805  0075                     _crcObj:	
  3806  0075                     	ds	3
  3807                           
  3808                           	psect	bssBANK0
  3809  0020                     __pbssBANK0:	
  3810  0020                     _eusartRxBuffer:	
  3811  0020                     	ds	8
  3812                           
  3813                           	psect	cstackCOMMON
  3814  0078                     __pcstackCOMMON:	
  3815  0078                     ?_SYSTEM_Initialize:	
  3816  0078                     ?_EUSART_SetRxInterruptHandler:	
  3817                           ; 1 bytes @ 0x0
  3818                           
  3819  0078                     ?_EUSART_Receive_ISR:	
  3820                           ; 1 bytes @ 0x0
  3821                           
  3822  0078                     ??_EUSART_Receive_ISR:	
  3823                           ; 1 bytes @ 0x0
  3824                           
  3825  0078                     ?_PMD_Initialize:	
  3826                           ; 1 bytes @ 0x0
  3827                           
  3828  0078                     ??_PMD_Initialize:	
  3829                           ; 1 bytes @ 0x0
  3830                           
  3831  0078                     ?_PIN_MANAGER_Initialize:	
  3832                           ; 1 bytes @ 0x0
  3833                           
  3834  0078                     ??_PIN_MANAGER_Initialize:	
  3835                           ; 1 bytes @ 0x0
  3836                           
  3837  0078                     ?_OSCILLATOR_Initialize:	
  3838                           ; 1 bytes @ 0x0
  3839                           
  3840  0078                     ??_OSCILLATOR_Initialize:	
  3841                           ; 1 bytes @ 0x0
  3842                           
  3843  0078                     ?_main:	
  3844                           ; 1 bytes @ 0x0
  3845                           
  3846  0078                     ?_CRC_Initialize:	
  3847                           ; 1 bytes @ 0x0
  3848                           
  3849  0078                     ??_CRC_Initialize:	
  3850                           ; 1 bytes @ 0x0
  3851                           
  3852  0078                     ?_INTERRUPT_InterruptManager:	
  3853                           ; 1 bytes @ 0x0
  3854                           
  3855  0078                     ??_INTERRUPT_InterruptManager:	
  3856                           ; 1 bytes @ 0x0
  3857                           
  3858  0078                     ?_EUSART_Initialize:	
  3859                           ; 1 bytes @ 0x0
  3860                           
  3861  0078                     CRC_Initialize@poly:	
  3862                           ; 1 bytes @ 0x0
  3863                           
  3864  0078                     EUSART_SetRxInterruptHandler@interruptHandler:	
  3865                           ; 2 bytes @ 0x0
  3866                           
  3867                           
  3868                           ; 2 bytes @ 0x0
  3869  0078                     	ds	2
  3870  007A                     ??_EUSART_SetRxInterruptHandler:	
  3871  007A                     ??_EUSART_Initialize:	
  3872                           ; 1 bytes @ 0x2
  3873                           
  3874  007A                     CRC_Initialize@seed:	
  3875                           ; 1 bytes @ 0x2
  3876                           
  3877                           
  3878                           ; 2 bytes @ 0x2
  3879  007A                     	ds	2
  3880  007C                     ??_SYSTEM_Initialize:	
  3881  007C                     ??_main:	
  3882                           ; 1 bytes @ 0x4
  3883                           
  3884                           
  3885                           	psect	intentry
  3886  0004                     __pintentry:	
  3887 ;; *************** function _INTERRUPT_InterruptManager *****************
  3888 ;; Defined at:
  3889 ;;		line 52 in file "mcc_generated_files/interrupt_manager.c"
  3890 ;; Parameters:    Size  Location     Type
  3891 ;;		None
  3892 ;; Auto vars:     Size  Location     Type
  3893 ;;		None
  3894 ;; Return value:  Size  Location     Type
  3895 ;;                  1    wreg      void 
  3896 ;; Registers used:
  3897 ;;		wreg, fsr1l, fsr1h, status,2, status,0, pclath, cstack
  3898 ;; Tracked objects:
  3899 ;;		On entry : 0/0
  3900 ;;		On exit  : 0/0
  3901 ;;		Unchanged: 0/0
  3902 ;; Data sizes:     COMMON   BANK0   BANK1   BANK2   BANK3   BANK4   BANK5   BANK6
  3903 ;;      Params:         0       0       0       0       0       0       0       0
  3904 ;;      Locals:         0       0       0       0       0       0       0       0
  3905 ;;      Temps:          0       0       0       0       0       0       0       0
  3906 ;;      Totals:         0       0       0       0       0       0       0       0
  3907 ;;Total ram usage:        0 bytes
  3908 ;; Hardware stack levels used:    1
  3909 ;; Hardware stack levels required when called:    1
  3910 ;; This function calls:
  3911 ;;		Absolute function
  3912 ;;		_EUSART_Receive_ISR
  3913 ;; This function is called by:
  3914 ;;		Interrupt level 1
  3915 ;; This function uses a non-reentrant model
  3916 ;;
  3917                           
  3918  0004                     _INTERRUPT_InterruptManager:	
  3919                           
  3920                           ;incstack = 0
  3921  0004  147E               	bsf	126,0	;set compiler interrupt flag (level 1)
  3922                           
  3923                           ; Regs used in _INTERRUPT_InterruptManager: [wreg+fsr1l+fsr1h+status,2+status,0+pclath+c
      +                          stack]
  3924  0005  3180               	pagesel	$
  3925                           
  3926                           ;interrupt_manager.c: 55: if(INTCONbits.PEIE == 1)
  3927  0006  1F0B               	btfss	11,6	;volatile
  3928  0007  2811               	goto	i1l116
  3929                           
  3930                           ;interrupt_manager.c: 56: {
  3931                           ;interrupt_manager.c: 57: if(PIE3bits.RCIE == 1 && PIR3bits.RCIF == 1)
  3932  0008  002E               	movlb	14	; select bank14
  3933  0009  1A99               	btfsc	25,5	;volatile
  3934  000A  1E8F               	btfss	15,5	;volatile
  3935  000B  2811               	goto	i1l116
  3936                           
  3937                           ;interrupt_manager.c: 58: {
  3938                           ;interrupt_manager.c: 59: EUSART_RxDefaultInterruptHandler();
  3939  000C  0871               	movf	_EUSART_RxDefaultInterruptHandler+1,w
  3940  000D  008A               	movwf	10
  3941  000E  0870               	movf	_EUSART_RxDefaultInterruptHandler,w
  3942  000F  000A               	callw
  3943  0010  3180               	pagesel	$
  3944  0011                     i1l116:	
  3945                           ;interrupt_manager.c: 60: }
  3946                           
  3947  0011  107E               	bcf	126,0	;clear compiler interrupt flag (level 1)
  3948  0012  0009               	retfie
  3949  0013                     __end_of_INTERRUPT_InterruptManager:	
  3950                           
  3951                           	psect	text9
  3952  00A4                     __ptext9:	
  3953 ;; *************** function _EUSART_Receive_ISR *****************
  3954 ;; Defined at:
  3955 ;;		line 149 in file "mcc_generated_files/eusart.c"
  3956 ;; Parameters:    Size  Location     Type
  3957 ;;		None
  3958 ;; Auto vars:     Size  Location     Type
  3959 ;;		None
  3960 ;; Return value:  Size  Location     Type
  3961 ;;                  1    wreg      void 
  3962 ;; Registers used:
  3963 ;;		wreg, fsr1l, fsr1h, status,2, status,0
  3964 ;; Tracked objects:
  3965 ;;		On entry : 1F/E
  3966 ;;		On exit  : 1F/2
  3967 ;;		Unchanged: 0/0
  3968 ;; Data sizes:     COMMON   BANK0   BANK1   BANK2   BANK3   BANK4   BANK5   BANK6
  3969 ;;      Params:         0       0       0       0       0       0       0       0
  3970 ;;      Locals:         0       0       0       0       0       0       0       0
  3971 ;;      Temps:          0       0       0       0       0       0       0       0
  3972 ;;      Totals:         0       0       0       0       0       0       0       0
  3973 ;;Total ram usage:        0 bytes
  3974 ;; Hardware stack levels used:    1
  3975 ;; This function calls:
  3976 ;;		Nothing
  3977 ;; This function is called by:
  3978 ;;		_EUSART_Initialize
  3979 ;;		_INTERRUPT_InterruptManager
  3980 ;; This function uses a non-reentrant model
  3981 ;;
  3982                           
  3983                           
  3984                           ;psect for function _EUSART_Receive_ISR
  3985  00A4                     _EUSART_Receive_ISR:	
  3986                           
  3987                           ;eusart.c: 152: if(1 == RC1STAbits.OERR)
  3988                           
  3989                           ;incstack = 0
  3990                           ; Regs used in _EUSART_Receive_ISR: [wreg+fsr1l+fsr1h+status,2+status,0]
  3991  00A4  0022               	movlb	2	; select bank2
  3992  00A5  1C9D               	btfss	29,1	;volatile
  3993  00A6  28A9               	goto	i1l899
  3994                           
  3995                           ;eusart.c: 153: {
  3996                           ;eusart.c: 156: RC1STAbits.CREN = 0;
  3997  00A7  121D               	bcf	29,4	;volatile
  3998                           
  3999                           ;eusart.c: 157: RC1STAbits.CREN = 1;
  4000  00A8  161D               	bsf	29,4	;volatile
  4001  00A9                     i1l899:	
  4002                           
  4003                           ;eusart.c: 158: }
  4004                           ;eusart.c: 161: eusartRxBuffer[eusartRxHead++] = RC1REG;
  4005  00A9  0874               	movf	_eusartRxHead,w
  4006  00AA  3E20               	addlw	(low (_eusartRxBuffer| 0))& (0+255)
  4007  00AB  0086               	movwf	6
  4008  00AC  0187               	clrf	7
  4009  00AD  0819               	movf	25,w	;volatile
  4010  00AE  0081               	movwf	1
  4011  00AF  0AF4               	incf	_eusartRxHead,f	;volatile
  4012                           
  4013                           ;eusart.c: 162: if(sizeof(eusartRxBuffer) <= eusartRxHead)
  4014  00B0  3008               	movlw	8
  4015  00B1  0274               	subwf	_eusartRxHead,w
  4016  00B2  1803               	btfsc	3,0
  4017                           
  4018                           ;eusart.c: 163: {
  4019                           ;eusart.c: 164: eusartRxHead = 0;
  4020  00B3  01F4               	clrf	_eusartRxHead	;volatile
  4021                           
  4022                           ;eusart.c: 165: }
  4023                           ;eusart.c: 166: eusartRxCount++;
  4024  00B4  0AF2               	incf	_eusartRxCount,f	;volatile
  4025  00B5  0008               	return
  4026  00B6                     __end_of_EUSART_Receive_ISR:	
  4027  007E                     btemp	set	126	;btemp
  4028  007E                     int$flags	set	126
  4029  007E                     wtemp0	set	126


Data Sizes:
    Strings     0
    Constant    0
    Data        0
    BSS         16
    Persistent  0
    Stack       0

Auto Spaces:
    Space          Size  Autos    Used
    COMMON           14      4      12
    BANK0            80      0       8
    BANK1            80      0       0
    BANK2            80      0       0
    BANK3            80      0       0
    BANK4            80      0       0
    BANK5            80      0       0
    BANK6            16      0       0

Pointer List with Targets:

    EUSART_SetRxInterruptHandler@interruptHandler	PTR FTN()void  size(2) Largest target is 1
		 -> EUSART_Receive_ISR(), 

    EUSART_RxDefaultInterruptHandler	PTR FTN()void  size(2) Largest target is 1
		 -> Absolute function(), EUSART_Receive_ISR(), 


Critical Paths under _main in COMMON

    _SYSTEM_Initialize->_CRC_Initialize
    _EUSART_Initialize->_EUSART_SetRxInterruptHandler

Critical Paths under _INTERRUPT_InterruptManager in COMMON

    None.

Critical Paths under _main in BANK0

    None.

Critical Paths under _INTERRUPT_InterruptManager in BANK0

    None.

Critical Paths under _main in BANK1

    None.

Critical Paths under _INTERRUPT_InterruptManager in BANK1

    None.

Critical Paths under _main in BANK2

    None.

Critical Paths under _INTERRUPT_InterruptManager in BANK2

    None.

Critical Paths under _main in BANK3

    None.

Critical Paths under _INTERRUPT_InterruptManager in BANK3

    None.

Critical Paths under _main in BANK4

    None.

Critical Paths under _INTERRUPT_InterruptManager in BANK4

    None.

Critical Paths under _main in BANK5

    None.

Critical Paths under _INTERRUPT_InterruptManager in BANK5

    None.

Critical Paths under _main in BANK6

    None.

Critical Paths under _INTERRUPT_InterruptManager in BANK6

    None.

Call Graph Tables:

 ---------------------------------------------------------------------------------
 (Depth) Function   	        Calls       Base Space   Used Autos Params    Refs
 ---------------------------------------------------------------------------------
 (0) _main                                                 0     0      0     146
                  _SYSTEM_Initialize
 ---------------------------------------------------------------------------------
 (1) _SYSTEM_Initialize                                    0     0      0     146
                     _CRC_Initialize
                  _EUSART_Initialize
              _OSCILLATOR_Initialize
             _PIN_MANAGER_Initialize
                     _PMD_Initialize
 ---------------------------------------------------------------------------------
 (2) _PMD_Initialize                                       0     0      0       0
 ---------------------------------------------------------------------------------
 (2) _PIN_MANAGER_Initialize                               0     0      0       0
 ---------------------------------------------------------------------------------
 (2) _OSCILLATOR_Initialize                                0     0      0       0
 ---------------------------------------------------------------------------------
 (2) _EUSART_Initialize                                    0     0      0      86
       _EUSART_SetRxInterruptHandler
 ---------------------------------------------------------------------------------
 (3) _EUSART_SetRxInterruptHandler                         2     0      2      86
                                              0 COMMON     2     0      2
 ---------------------------------------------------------------------------------
 (2) _CRC_Initialize                                       4     4      0      60
                                              0 COMMON     4     4      0
 ---------------------------------------------------------------------------------
 Estimated maximum stack depth 3
 ---------------------------------------------------------------------------------
 (Depth) Function   	        Calls       Base Space   Used Autos Params    Refs
 ---------------------------------------------------------------------------------
 (4) _INTERRUPT_InterruptManager                           0     0      0       0
                   Absolute function *
                 _EUSART_Receive_ISR *
 ---------------------------------------------------------------------------------
 (5) _EUSART_Receive_ISR                                   0     0      0       0
 ---------------------------------------------------------------------------------
 (5) Absolute function(Fake)                               0     0      0       0
 ---------------------------------------------------------------------------------
 Estimated maximum stack depth 5
 ---------------------------------------------------------------------------------

 Call Graph Graphs:

 _main (ROOT)
   _SYSTEM_Initialize
     _CRC_Initialize
     _EUSART_Initialize
       _EUSART_SetRxInterruptHandler
     _OSCILLATOR_Initialize
     _PIN_MANAGER_Initialize
     _PMD_Initialize

 _INTERRUPT_InterruptManager (ROOT)
   Absolute function(Fake) *
   _EUSART_Receive_ISR *

 Address spaces:
Name               Size   Autos  Total    Cost      Usage
BIGRAM             1F0      0       0       0        0.0%
EEDATA             100      0       0       0        0.0%
NULL                 0      0       0       0        0.0%
CODE                 0      0       0       0        0.0%
BITCOMMON            E      0       0       1        0.0%
BITSFR0              0      0       0       1        0.0%
SFR0                 0      0       0       1        0.0%
COMMON               E      4       C       2       85.7%
BITSFR1              0      0       0       2        0.0%
SFR1                 0      0       0       2        0.0%
BITSFR2              0      0       0       3        0.0%
SFR2                 0      0       0       3        0.0%
STACK                0      0       0       3        0.0%
BITSFR3              0      0       0       4        0.0%
SFR3                 0      0       0       4        0.0%
ABS                  0      0      14       4        0.0%
BITBANK0            50      0       0       5        0.0%
BITSFR4              0      0       0       5        0.0%
SFR4                 0      0       0       5        0.0%
BANK0               50      0       8       6       10.0%
BITSFR5              0      0       0       6        0.0%
SFR5                 0      0       0       6        0.0%
BITBANK1            50      0       0       7        0.0%
BITSFR6              0      0       0       7        0.0%
SFR6                 0      0       0       7        0.0%
BANK1               50      0       0       8        0.0%
BITSFR7              0      0       0       8        0.0%
SFR7                 0      0       0       8        0.0%
BITBANK2            50      0       0       9        0.0%
BITSFR8              0      0       0       9        0.0%
SFR8                 0      0       0       9        0.0%
BANK2               50      0       0      10        0.0%
BITSFR9              0      0       0      10        0.0%
SFR9                 0      0       0      10        0.0%
BITBANK3            50      0       0      11        0.0%
BITSFR10             0      0       0      11        0.0%
SFR10                0      0       0      11        0.0%
BANK3               50      0       0      12        0.0%
BITSFR11             0      0       0      12        0.0%
SFR11                0      0       0      12        0.0%
BITBANK4            50      0       0      13        0.0%
BITSFR12             0      0       0      13        0.0%
SFR12                0      0       0      13        0.0%
BANK4               50      0       0      14        0.0%
BITSFR13             0      0       0      14        0.0%
SFR13                0      0       0      14        0.0%
BITBANK5            50      0       0      15        0.0%
BITSFR14             0      0       0      15        0.0%
SFR14                0      0       0      15        0.0%
BANK5               50      0       0      16        0.0%
BITSFR15             0      0       0      16        0.0%
SFR15                0      0       0      16        0.0%
BITBANK6            10      0       0      17        0.0%
BITSFR16             0      0       0      17        0.0%
SFR16                0      0       0      17        0.0%
BANK6               10      0       0      18        0.0%
BITSFR17             0      0       0      18        0.0%
SFR17                0      0       0      18        0.0%
BITSFR18             0      0       0      19        0.0%
SFR18                0      0       0      19        0.0%
DATA                 0      0      14      19        0.0%
BITSFR19             0      0       0      20        0.0%
SFR19                0      0       0      20        0.0%
BITSFR20             0      0       0      21        0.0%
SFR20                0      0       0      21        0.0%
BITSFR21             0      0       0      22        0.0%
SFR21                0      0       0      22        0.0%
BITSFR22             0      0       0      23        0.0%
SFR22                0      0       0      23        0.0%
BITSFR23             0      0       0      24        0.0%
SFR23                0      0       0      24        0.0%
BITSFR24             0      0       0      25        0.0%
SFR24                0      0       0      25        0.0%
BITSFR25             0      0       0      26        0.0%
SFR25                0      0       0      26        0.0%
BITSFR26             0      0       0      27        0.0%
SFR26                0      0       0      27        0.0%
BITSFR27             0      0       0      28        0.0%
SFR27                0      0       0      28        0.0%
BITSFR28             0      0       0      29        0.0%
SFR28                0      0       0      29        0.0%
BITSFR29             0      0       0      30        0.0%
SFR29                0      0       0      30        0.0%
BITSFR30             0      0       0      31        0.0%
SFR30                0      0       0      31        0.0%
BITSFR31             0      0       0      32        0.0%
SFR31                0      0       0      32        0.0%


Microchip Technology PIC Macro Assembler V1.45 build -152302408 
Symbol Table                                                                                   Mon Apr 16 22:20:30 2018

               ?_EUSART_SetRxInterruptHandler 0078                                             l9 002B  
                                 __CFG_CP$OFF 0000                                           l229 003D  
                                         l863 0088                                  __CFG_CPD$OFF 0000  
                     __size_of_PMD_Initialize 0008                                  __CFG_BORV$LO 0000  
                                __CFG_LVP$OFF 0000                                  __CFG_ZCD$OFF 0000  
                                        _LATA 0016                                          _LATB 0017  
                                        _LATC 0018                                          _PMD0 0796  
                                        _PMD1 0797                                          _PMD2 0798  
                                        _PMD3 0799                                          _PMD4 079A  
                                        _PMD5 079B                                          _PLLR 4480  
                                        _WPUA 0F39                                          _WPUB 0F44  
                                        _WPUC 0F4F                                          _WPUE 0F65  
                                __CFG_WRT$OFF 0000                                 __CFG_FCMEN$ON 0000  
                                        _main 0029                                          fsr1h 0007  
                                        indf1 0001                                          fsr1l 0006  
                                        btemp 007E                                 __CFG_BOREN$ON 0000  
                                        start 0013                                 __CFG_CSWEN$ON 0000  
                               __CFG_MCLRE$ON 0000                __size_of_OSCILLATOR_Initialize 000B  
               __end_of_OSCILLATOR_Initialize 0040                                         ?_main 0078  
                               __CFG_WDTE$OFF 0000                                __CFG_DEBUG$OFF 0000  
                                       i1l116 0011                                         i1l899 00A9  
                                       _OSCEN 0891                                         _TRISA 0011  
                                       _TRISB 0012                                         _TRISC 0013  
                                       pclath 000A                                         wtemp0 007E  
                             __initialization 0015                                  __end_of_main 002C  
                 ?_INTERRUPT_InterruptManager 0078                              ??_CRC_Initialize 0078  
              ??_EUSART_SetRxInterruptHandler 007A                                        ??_main 007C  
                                      _ANSELA 0F38                                        _ANSELB 0F43  
                                      _ANSELC 0F4E                                        _RC1REG 0119  
                                      _RC1STA 011D                                        _ODCONA 0F3A  
                                      _ODCONB 0F45                                        _ODCONC 0F50  
                                      _RC6PPS 0F26                                __CFG_WDTCCS$SC 0000  
                                      _OSCFRQ 0893                                        _TX1STA 011E  
                              __CFG_PWRTE$OFF 0000                                __CFG_STVREN$ON 0000  
                                      _crcObj 0075                                _PMD_Initialize 005D  
                           _SYSTEM_Initialize 002C                       __end_of__initialization 0026  
                          ?_SYSTEM_Initialize 0078                                __pcstackCOMMON 0078  
                          CRC_Initialize@seed 007A                            CRC_Initialize@poly 0078  
                         ??_SYSTEM_Initialize 007C                        __end_of_PMD_Initialize 0065  
                   __end_of_SYSTEM_Initialize 0035                                    __pbssBANK0 0020  
                 __size_of_EUSART_Receive_ISR 0012                                    __pmaintext 0029  
                             __CFG_PPS1WAY$ON 0000                                    __pintentry 0004  
                                     _CRCACCH 0419                                       _CRCACCL 0418  
                             ?_PMD_Initialize 0078                                       _CRCCON0 041E  
                                     _CRCCON1 041F                                       _CRCXORH 041D  
                                     _CRCXORL 041C                                 _eusartRxCount 0072  
                                     _SP1BRGH 011C                                       _SP1BRGL 011B  
                                     _OSCCON1 088D                                       _OSCCON3 088F  
                                     _OSCTUNE 0892                          __CFG_SCANE$available 0000  
                                     __ptext1 002C                                       __ptext2 005D  
                                     __ptext3 0040                                       __ptext4 0035  
                                     __ptext5 0088                                       __ptext6 009F  
                                     __ptext7 0065                                       __ptext9 00A4  
                       _OSCILLATOR_Initialize 0035                      ??_PIN_MANAGER_Initialize 0078  
                  __size_of_SYSTEM_Initialize 0009                          end_of_initialization 0026  
                                   _SCANHADRH 040F                                     _SCANHADRL 040E  
                                   _SCANLADRH 040D                                     _SCANLADRL 040C  
                           _EUSART_Initialize 0088                            ?_EUSART_Initialize 0078  
                       __CFG_WDTCPS$WDTCPS_31 0000                           ??_EUSART_Initialize 007A  
                            __CFG_FEXTOSC$OFF 0000                                     _RXPPSbits 0ECB  
                   __end_of_EUSART_Initialize 009F                        ?_OSCILLATOR_Initialize 0078  
                         start_initialization 0015               __size_of_PIN_MANAGER_Initialize 001D  
                     __size_of_CRC_Initialize 0023  EUSART_SetRxInterruptHandler@interruptHandler 0078  
                            __CFG_LPBOREN$OFF 0000                              ??_PMD_Initialize 0078  
                                 __pbssCOMMON 0070                                     ___latbits 0001  
                                 _CRCCON1bits 041F                    __end_of_EUSART_Receive_ISR 00B6  
                  __size_of_EUSART_Initialize 0017              _EUSART_RxDefaultInterruptHandler 0070  
                      _PIN_MANAGER_Initialize 0040                                  _eusartRxHead 0074  
                                _eusartRxTail 0073                  ??_INTERRUPT_InterruptManager 0078  
                                    _BAUD1CON 011F                          __CFG_RSTOSC$HFINTPLL 0000  
                              _eusartRxBuffer 0020                                      _SCANCON0 0410  
                                    _SCANTRIG 0411                                      _PIE3bits 0719  
         __size_of_INTERRUPT_InterruptManager 000F                                      _PIR3bits 070F  
                              _CRC_Initialize 0065                       ??_OSCILLATOR_Initialize 0078  
                      __end_of_CRC_Initialize 0088                                 __size_of_main 0003  
                        __CFG_WDTCWS$WDTCWS_7 0000                                    _RC1STAbits 011D  
                                    int$flags 007E            __end_of_INTERRUPT_InterruptManager 0013  
                  _INTERRUPT_InterruptManager 0004                                    _INTCONbits 000B  
                             ?_CRC_Initialize 0078                                      intlevel1 0000  
                     ?_PIN_MANAGER_Initialize 0078                             __CFG_CLKOUTEN$OFF 0000  
        __end_of_EUSART_SetRxInterruptHandler 00A4         __size_of_EUSART_SetRxInterruptHandler 0005  
                _EUSART_SetRxInterruptHandler 009F                            _EUSART_Receive_ISR 00A4  
                         ?_EUSART_Receive_ISR 0078                __end_of_PIN_MANAGER_Initialize 005D  
                        ??_EUSART_Receive_ISR 0078  
